ARM GAS  C:\Users\user\AppData\Local\Temp\cc7jhrgg.s 			page 1


   1              		.syntax unified
   2              		.cpu cortex-m3
   3              		.fpu softvfp
   4              		.eabi_attribute 20, 1
   5              		.eabi_attribute 21, 1
   6              		.eabi_attribute 23, 3
   7              		.eabi_attribute 24, 1
   8              		.eabi_attribute 25, 1
   9              		.eabi_attribute 26, 1
  10              		.eabi_attribute 30, 1
  11              		.eabi_attribute 34, 1
  12              		.eabi_attribute 18, 4
  13              		.thumb
  14              		.syntax unified
  15              		.file	"cyfitter_cfg.c"
  16              		.text
  17              	.Ltext0:
  18              		.cfi_sections	.debug_frame
  19              		.section	.text.CyClockStartupError,"ax",%progbits
  20              		.align	2
  21              		.thumb
  22              		.thumb_func
  23              		.type	CyClockStartupError, %function
  24              	CyClockStartupError:
  25              	.LFB3:
  26              		.file 1 "Generated_Source\\PSoC5\\cyfitter_cfg.c"
   1:Generated_Source\PSoC5/cyfitter_cfg.c **** 
   2:Generated_Source\PSoC5/cyfitter_cfg.c **** /*******************************************************************************
   3:Generated_Source\PSoC5/cyfitter_cfg.c **** * File Name: cyfitter_cfg.c
   4:Generated_Source\PSoC5/cyfitter_cfg.c **** * 
   5:Generated_Source\PSoC5/cyfitter_cfg.c **** * PSoC Creator  4.2
   6:Generated_Source\PSoC5/cyfitter_cfg.c **** *
   7:Generated_Source\PSoC5/cyfitter_cfg.c **** * Description:
   8:Generated_Source\PSoC5/cyfitter_cfg.c **** * This file contains device initialization code.
   9:Generated_Source\PSoC5/cyfitter_cfg.c **** * Except for the user defined sections in CyClockStartupError(), this file should not be modified.
  10:Generated_Source\PSoC5/cyfitter_cfg.c **** * This file is automatically generated by PSoC Creator.
  11:Generated_Source\PSoC5/cyfitter_cfg.c **** *
  12:Generated_Source\PSoC5/cyfitter_cfg.c **** ********************************************************************************
  13:Generated_Source\PSoC5/cyfitter_cfg.c **** * Copyright (c) 2007-2018 Cypress Semiconductor.  All rights reserved.
  14:Generated_Source\PSoC5/cyfitter_cfg.c **** * You may use this file only in accordance with the license, terms, conditions, 
  15:Generated_Source\PSoC5/cyfitter_cfg.c **** * disclaimers, and limitations in the end user license agreement accompanying 
  16:Generated_Source\PSoC5/cyfitter_cfg.c **** * the software package with which this file was provided.
  17:Generated_Source\PSoC5/cyfitter_cfg.c **** ********************************************************************************/
  18:Generated_Source\PSoC5/cyfitter_cfg.c **** 
  19:Generated_Source\PSoC5/cyfitter_cfg.c **** #include <string.h>
  20:Generated_Source\PSoC5/cyfitter_cfg.c **** #include "cytypes.h"
  21:Generated_Source\PSoC5/cyfitter_cfg.c **** #include "cydevice_trm.h"
  22:Generated_Source\PSoC5/cyfitter_cfg.c **** #include "cyfitter.h"
  23:Generated_Source\PSoC5/cyfitter_cfg.c **** #include "CyLib.h"
  24:Generated_Source\PSoC5/cyfitter_cfg.c **** #include "cyfitter_cfg.h"
  25:Generated_Source\PSoC5/cyfitter_cfg.c **** #include "cyapicallbacks.h"
  26:Generated_Source\PSoC5/cyfitter_cfg.c **** 
  27:Generated_Source\PSoC5/cyfitter_cfg.c **** #define CY_NEED_CYCLOCKSTARTUPERROR 1
  28:Generated_Source\PSoC5/cyfitter_cfg.c **** 
  29:Generated_Source\PSoC5/cyfitter_cfg.c **** 
  30:Generated_Source\PSoC5/cyfitter_cfg.c **** #if defined(__GNUC__) || defined(__ARMCC_VERSION)
  31:Generated_Source\PSoC5/cyfitter_cfg.c ****     #define CYPACKED 
ARM GAS  C:\Users\user\AppData\Local\Temp\cc7jhrgg.s 			page 2


  32:Generated_Source\PSoC5/cyfitter_cfg.c ****     #define CYPACKED_ATTR __attribute__ ((packed))
  33:Generated_Source\PSoC5/cyfitter_cfg.c ****     #define CYALIGNED __attribute__ ((aligned))
  34:Generated_Source\PSoC5/cyfitter_cfg.c ****     #define CY_CFG_UNUSED __attribute__ ((unused))
  35:Generated_Source\PSoC5/cyfitter_cfg.c ****     #ifndef CY_CFG_SECTION
  36:Generated_Source\PSoC5/cyfitter_cfg.c ****         #define CY_CFG_SECTION __attribute__ ((section(".psocinit")))
  37:Generated_Source\PSoC5/cyfitter_cfg.c ****     #endif
  38:Generated_Source\PSoC5/cyfitter_cfg.c ****     
  39:Generated_Source\PSoC5/cyfitter_cfg.c ****     #if defined(__ARMCC_VERSION)
  40:Generated_Source\PSoC5/cyfitter_cfg.c ****         #define CY_CFG_MEMORY_BARRIER() __memory_changed()
  41:Generated_Source\PSoC5/cyfitter_cfg.c ****     #else
  42:Generated_Source\PSoC5/cyfitter_cfg.c ****         #define CY_CFG_MEMORY_BARRIER() __sync_synchronize()
  43:Generated_Source\PSoC5/cyfitter_cfg.c ****     #endif
  44:Generated_Source\PSoC5/cyfitter_cfg.c ****     
  45:Generated_Source\PSoC5/cyfitter_cfg.c **** #elif defined(__ICCARM__)
  46:Generated_Source\PSoC5/cyfitter_cfg.c ****     #include <intrinsics.h>
  47:Generated_Source\PSoC5/cyfitter_cfg.c **** 
  48:Generated_Source\PSoC5/cyfitter_cfg.c ****     #define CYPACKED __packed
  49:Generated_Source\PSoC5/cyfitter_cfg.c ****     #define CYPACKED_ATTR 
  50:Generated_Source\PSoC5/cyfitter_cfg.c ****     #define CYALIGNED _Pragma("data_alignment=4")
  51:Generated_Source\PSoC5/cyfitter_cfg.c ****     #define CY_CFG_UNUSED _Pragma("diag_suppress=Pe177")
  52:Generated_Source\PSoC5/cyfitter_cfg.c ****     #define CY_CFG_SECTION _Pragma("location=\".psocinit\"")
  53:Generated_Source\PSoC5/cyfitter_cfg.c ****     
  54:Generated_Source\PSoC5/cyfitter_cfg.c ****     #define CY_CFG_MEMORY_BARRIER() __DMB()
  55:Generated_Source\PSoC5/cyfitter_cfg.c ****     
  56:Generated_Source\PSoC5/cyfitter_cfg.c **** #else
  57:Generated_Source\PSoC5/cyfitter_cfg.c ****     #error Unsupported toolchain
  58:Generated_Source\PSoC5/cyfitter_cfg.c **** #endif
  59:Generated_Source\PSoC5/cyfitter_cfg.c **** 
  60:Generated_Source\PSoC5/cyfitter_cfg.c **** #ifndef CYCODE
  61:Generated_Source\PSoC5/cyfitter_cfg.c ****     #define CYCODE
  62:Generated_Source\PSoC5/cyfitter_cfg.c **** #endif
  63:Generated_Source\PSoC5/cyfitter_cfg.c **** #ifndef CYDATA
  64:Generated_Source\PSoC5/cyfitter_cfg.c ****     #define CYDATA
  65:Generated_Source\PSoC5/cyfitter_cfg.c **** #endif
  66:Generated_Source\PSoC5/cyfitter_cfg.c **** #ifndef CYFAR
  67:Generated_Source\PSoC5/cyfitter_cfg.c ****     #define CYFAR
  68:Generated_Source\PSoC5/cyfitter_cfg.c **** #endif
  69:Generated_Source\PSoC5/cyfitter_cfg.c **** #ifndef CYXDATA
  70:Generated_Source\PSoC5/cyfitter_cfg.c ****     #define CYXDATA
  71:Generated_Source\PSoC5/cyfitter_cfg.c **** #endif
  72:Generated_Source\PSoC5/cyfitter_cfg.c **** 
  73:Generated_Source\PSoC5/cyfitter_cfg.c **** 
  74:Generated_Source\PSoC5/cyfitter_cfg.c **** CY_CFG_UNUSED
  75:Generated_Source\PSoC5/cyfitter_cfg.c **** static void CYMEMZERO(void *s, size_t n);
  76:Generated_Source\PSoC5/cyfitter_cfg.c **** CY_CFG_UNUSED
  77:Generated_Source\PSoC5/cyfitter_cfg.c **** static void CYMEMZERO(void *s, size_t n)
  78:Generated_Source\PSoC5/cyfitter_cfg.c **** {
  79:Generated_Source\PSoC5/cyfitter_cfg.c **** 	(void)memset(s, 0, n);
  80:Generated_Source\PSoC5/cyfitter_cfg.c **** }
  81:Generated_Source\PSoC5/cyfitter_cfg.c **** CY_CFG_UNUSED
  82:Generated_Source\PSoC5/cyfitter_cfg.c **** static void CYCONFIGCPY(void *dest, const void *src, size_t n);
  83:Generated_Source\PSoC5/cyfitter_cfg.c **** CY_CFG_UNUSED
  84:Generated_Source\PSoC5/cyfitter_cfg.c **** static void CYCONFIGCPY(void *dest, const void *src, size_t n)
  85:Generated_Source\PSoC5/cyfitter_cfg.c **** {
  86:Generated_Source\PSoC5/cyfitter_cfg.c **** 	(void)memcpy(dest, src, n);
  87:Generated_Source\PSoC5/cyfitter_cfg.c **** }
  88:Generated_Source\PSoC5/cyfitter_cfg.c **** CY_CFG_UNUSED
ARM GAS  C:\Users\user\AppData\Local\Temp\cc7jhrgg.s 			page 3


  89:Generated_Source\PSoC5/cyfitter_cfg.c **** static void CYCONFIGCPYCODE(void *dest, const void *src, size_t n);
  90:Generated_Source\PSoC5/cyfitter_cfg.c **** CY_CFG_UNUSED
  91:Generated_Source\PSoC5/cyfitter_cfg.c **** static void CYCONFIGCPYCODE(void *dest, const void *src, size_t n)
  92:Generated_Source\PSoC5/cyfitter_cfg.c **** {
  93:Generated_Source\PSoC5/cyfitter_cfg.c **** 	(void)memcpy(dest, src, n);
  94:Generated_Source\PSoC5/cyfitter_cfg.c **** }
  95:Generated_Source\PSoC5/cyfitter_cfg.c **** 
  96:Generated_Source\PSoC5/cyfitter_cfg.c **** 
  97:Generated_Source\PSoC5/cyfitter_cfg.c **** 
  98:Generated_Source\PSoC5/cyfitter_cfg.c **** 
  99:Generated_Source\PSoC5/cyfitter_cfg.c **** /* Clock startup error codes                                                   */
 100:Generated_Source\PSoC5/cyfitter_cfg.c **** #define CYCLOCKSTART_NO_ERROR    0u
 101:Generated_Source\PSoC5/cyfitter_cfg.c **** #define CYCLOCKSTART_XTAL_ERROR  1u
 102:Generated_Source\PSoC5/cyfitter_cfg.c **** #define CYCLOCKSTART_32KHZ_ERROR 2u
 103:Generated_Source\PSoC5/cyfitter_cfg.c **** #define CYCLOCKSTART_PLL_ERROR   3u
 104:Generated_Source\PSoC5/cyfitter_cfg.c **** #define CYCLOCKSTART_FLL_ERROR   4u
 105:Generated_Source\PSoC5/cyfitter_cfg.c **** #define CYCLOCKSTART_WCO_ERROR   5u
 106:Generated_Source\PSoC5/cyfitter_cfg.c **** 
 107:Generated_Source\PSoC5/cyfitter_cfg.c **** 
 108:Generated_Source\PSoC5/cyfitter_cfg.c **** #ifdef CY_NEED_CYCLOCKSTARTUPERROR
 109:Generated_Source\PSoC5/cyfitter_cfg.c **** /*******************************************************************************
 110:Generated_Source\PSoC5/cyfitter_cfg.c **** * Function Name: CyClockStartupError
 111:Generated_Source\PSoC5/cyfitter_cfg.c **** ********************************************************************************
 112:Generated_Source\PSoC5/cyfitter_cfg.c **** * Summary:
 113:Generated_Source\PSoC5/cyfitter_cfg.c **** *  If an error is encountered during clock configuration (crystal startup error,
 114:Generated_Source\PSoC5/cyfitter_cfg.c **** *  PLL lock error, etc.), the system will end up here.  Unless reimplemented by
 115:Generated_Source\PSoC5/cyfitter_cfg.c **** *  the customer, this function will stop in an infinite loop.
 116:Generated_Source\PSoC5/cyfitter_cfg.c **** *
 117:Generated_Source\PSoC5/cyfitter_cfg.c **** * Parameters:
 118:Generated_Source\PSoC5/cyfitter_cfg.c **** *   void
 119:Generated_Source\PSoC5/cyfitter_cfg.c **** *
 120:Generated_Source\PSoC5/cyfitter_cfg.c **** * Return:
 121:Generated_Source\PSoC5/cyfitter_cfg.c **** *   void
 122:Generated_Source\PSoC5/cyfitter_cfg.c **** *
 123:Generated_Source\PSoC5/cyfitter_cfg.c **** *******************************************************************************/
 124:Generated_Source\PSoC5/cyfitter_cfg.c **** CY_CFG_UNUSED
 125:Generated_Source\PSoC5/cyfitter_cfg.c **** static void CyClockStartupError(uint8 errorCode);
 126:Generated_Source\PSoC5/cyfitter_cfg.c **** CY_CFG_UNUSED
 127:Generated_Source\PSoC5/cyfitter_cfg.c **** static void CyClockStartupError(uint8 errorCode)
 128:Generated_Source\PSoC5/cyfitter_cfg.c **** {
  27              		.loc 1 128 0
  28              		.cfi_startproc
  29              		@ Volatile: function does not return.
  30              		@ args = 0, pretend = 0, frame = 0
  31              		@ frame_needed = 0, uses_anonymous_args = 0
  32              		@ link register save eliminated.
  33              	.LVL0:
  34              	.L2:
  35 0000 FEE7     		b	.L2
  36              		.cfi_endproc
  37              	.LFE3:
  38              		.size	CyClockStartupError, .-CyClockStartupError
  39 0002 00BF     		.section	.text.cfg_write_bytes32,"ax",%progbits
  40              		.align	2
  41              		.thumb
  42              		.thumb_func
  43              		.type	cfg_write_bytes32, %function
ARM GAS  C:\Users\user\AppData\Local\Temp\cc7jhrgg.s 			page 4


  44              	cfg_write_bytes32:
  45              	.LFB4:
 129:Generated_Source\PSoC5/cyfitter_cfg.c ****     /* To remove the compiler warning if errorCode not used.                */
 130:Generated_Source\PSoC5/cyfitter_cfg.c ****     errorCode = errorCode;
 131:Generated_Source\PSoC5/cyfitter_cfg.c **** 
 132:Generated_Source\PSoC5/cyfitter_cfg.c ****     /* If we have a clock startup error (bad MHz crystal, PLL lock, etc.),  */
 133:Generated_Source\PSoC5/cyfitter_cfg.c ****     /* we will end up here to allow the customer to implement something to  */
 134:Generated_Source\PSoC5/cyfitter_cfg.c ****     /* deal with the clock condition.                                       */
 135:Generated_Source\PSoC5/cyfitter_cfg.c **** 
 136:Generated_Source\PSoC5/cyfitter_cfg.c **** #ifdef CY_CFG_CLOCK_STARTUP_ERROR_CALLBACK
 137:Generated_Source\PSoC5/cyfitter_cfg.c ****     CY_CFG_Clock_Startup_ErrorCallback();
 138:Generated_Source\PSoC5/cyfitter_cfg.c **** #else
 139:Generated_Source\PSoC5/cyfitter_cfg.c ****     /*  If not using CY_CFG_CLOCK_STARTUP_ERROR_CALLBACK, place your clock startup code here. */
 140:Generated_Source\PSoC5/cyfitter_cfg.c ****     /* `#START CyClockStartupError` */
 141:Generated_Source\PSoC5/cyfitter_cfg.c **** 
 142:Generated_Source\PSoC5/cyfitter_cfg.c **** 
 143:Generated_Source\PSoC5/cyfitter_cfg.c **** 
 144:Generated_Source\PSoC5/cyfitter_cfg.c ****     /* `#END` */
 145:Generated_Source\PSoC5/cyfitter_cfg.c **** 
 146:Generated_Source\PSoC5/cyfitter_cfg.c ****     while(1) {}
 147:Generated_Source\PSoC5/cyfitter_cfg.c **** #endif /* CY_CFG_CLOCK_STARTUP_ERROR_CALLBACK */
 148:Generated_Source\PSoC5/cyfitter_cfg.c **** }
 149:Generated_Source\PSoC5/cyfitter_cfg.c **** #endif
 150:Generated_Source\PSoC5/cyfitter_cfg.c **** 
 151:Generated_Source\PSoC5/cyfitter_cfg.c **** #define CY_CFG_BASE_ADDR_COUNT 40u
 152:Generated_Source\PSoC5/cyfitter_cfg.c **** CYPACKED typedef struct
 153:Generated_Source\PSoC5/cyfitter_cfg.c **** {
 154:Generated_Source\PSoC5/cyfitter_cfg.c **** 	uint8 offset;
 155:Generated_Source\PSoC5/cyfitter_cfg.c **** 	uint8 value;
 156:Generated_Source\PSoC5/cyfitter_cfg.c **** } CYPACKED_ATTR cy_cfg_addrvalue_t;
 157:Generated_Source\PSoC5/cyfitter_cfg.c **** 
 158:Generated_Source\PSoC5/cyfitter_cfg.c **** #define cy_cfg_addr_table ((const uint32 CYFAR *)0x48000000u)
 159:Generated_Source\PSoC5/cyfitter_cfg.c **** #define cy_cfg_data_table ((const cy_cfg_addrvalue_t CYFAR *)0x480000A0u)
 160:Generated_Source\PSoC5/cyfitter_cfg.c **** 
 161:Generated_Source\PSoC5/cyfitter_cfg.c **** /* UCFG_BCTL0 Address: CYREG_BCTL0_MDCLK_EN Size (bytes): 16 */
 162:Generated_Source\PSoC5/cyfitter_cfg.c **** #define BS_UCFG_BCTL0_VAL ((const uint8 CYFAR *)0x480009B0u)
 163:Generated_Source\PSoC5/cyfitter_cfg.c **** 
 164:Generated_Source\PSoC5/cyfitter_cfg.c **** /* IOPINS0_0 Address: CYREG_PRT0_DM0 Size (bytes): 8 */
 165:Generated_Source\PSoC5/cyfitter_cfg.c **** #define BS_IOPINS0_0_VAL ((const uint8 CYFAR *)0x480009C0u)
 166:Generated_Source\PSoC5/cyfitter_cfg.c **** 
 167:Generated_Source\PSoC5/cyfitter_cfg.c **** /* IOPINS0_7 Address: CYREG_PRT12_DM0 Size (bytes): 8 */
 168:Generated_Source\PSoC5/cyfitter_cfg.c **** #define BS_IOPINS0_7_VAL ((const uint8 CYFAR *)0x480009C8u)
 169:Generated_Source\PSoC5/cyfitter_cfg.c **** 
 170:Generated_Source\PSoC5/cyfitter_cfg.c **** /* IOPINS0_8 Address: CYREG_PRT15_DR Size (bytes): 10 */
 171:Generated_Source\PSoC5/cyfitter_cfg.c **** #define BS_IOPINS0_8_VAL ((const uint8 CYFAR *)0x480009D0u)
 172:Generated_Source\PSoC5/cyfitter_cfg.c **** 
 173:Generated_Source\PSoC5/cyfitter_cfg.c **** /* IOPINS0_1 Address: CYREG_PRT1_DM0 Size (bytes): 8 */
 174:Generated_Source\PSoC5/cyfitter_cfg.c **** #define BS_IOPINS0_1_VAL ((const uint8 CYFAR *)0x480009DCu)
 175:Generated_Source\PSoC5/cyfitter_cfg.c **** 
 176:Generated_Source\PSoC5/cyfitter_cfg.c **** /* IOPINS0_2 Address: CYREG_PRT2_DM0 Size (bytes): 8 */
 177:Generated_Source\PSoC5/cyfitter_cfg.c **** #define BS_IOPINS0_2_VAL ((const uint8 CYFAR *)0x480009E4u)
 178:Generated_Source\PSoC5/cyfitter_cfg.c **** 
 179:Generated_Source\PSoC5/cyfitter_cfg.c **** /* IOPINS0_3 Address: CYREG_PRT3_DM0 Size (bytes): 8 */
 180:Generated_Source\PSoC5/cyfitter_cfg.c **** #define BS_IOPINS0_3_VAL ((const uint8 CYFAR *)0x480009ECu)
 181:Generated_Source\PSoC5/cyfitter_cfg.c **** 
 182:Generated_Source\PSoC5/cyfitter_cfg.c **** /* CYDEV_CLKDIST_ACFG0_CFG0 Address: CYREG_CLKDIST_ACFG0_CFG0 Size (bytes): 8 */
 183:Generated_Source\PSoC5/cyfitter_cfg.c **** #define BS_CYDEV_CLKDIST_ACFG0_CFG0_VAL ((const uint8 CYFAR *)0x480009F4u)
ARM GAS  C:\Users\user\AppData\Local\Temp\cc7jhrgg.s 			page 5


 184:Generated_Source\PSoC5/cyfitter_cfg.c **** 
 185:Generated_Source\PSoC5/cyfitter_cfg.c **** 
 186:Generated_Source\PSoC5/cyfitter_cfg.c **** /*******************************************************************************
 187:Generated_Source\PSoC5/cyfitter_cfg.c **** * Function Name: cfg_write_bytes32
 188:Generated_Source\PSoC5/cyfitter_cfg.c **** ********************************************************************************
 189:Generated_Source\PSoC5/cyfitter_cfg.c **** * Summary:
 190:Generated_Source\PSoC5/cyfitter_cfg.c **** *  This function is used for setting up the chip configuration areas that
 191:Generated_Source\PSoC5/cyfitter_cfg.c **** *  contain relatively sparse data.
 192:Generated_Source\PSoC5/cyfitter_cfg.c **** *
 193:Generated_Source\PSoC5/cyfitter_cfg.c **** * Parameters:
 194:Generated_Source\PSoC5/cyfitter_cfg.c **** *   void
 195:Generated_Source\PSoC5/cyfitter_cfg.c **** *
 196:Generated_Source\PSoC5/cyfitter_cfg.c **** * Return:
 197:Generated_Source\PSoC5/cyfitter_cfg.c **** *   void
 198:Generated_Source\PSoC5/cyfitter_cfg.c **** *
 199:Generated_Source\PSoC5/cyfitter_cfg.c **** *******************************************************************************/
 200:Generated_Source\PSoC5/cyfitter_cfg.c **** static void cfg_write_bytes32(const uint32 addr_table[], const cy_cfg_addrvalue_t data_table[]);
 201:Generated_Source\PSoC5/cyfitter_cfg.c **** static void cfg_write_bytes32(const uint32 addr_table[], const cy_cfg_addrvalue_t data_table[])
 202:Generated_Source\PSoC5/cyfitter_cfg.c **** {
  46              		.loc 1 202 0
  47              		.cfi_startproc
  48              		@ args = 0, pretend = 0, frame = 0
  49              		@ frame_needed = 0, uses_anonymous_args = 0
  50              		@ link register save eliminated.
  51              	.LVL1:
  52              		.loc 1 202 0
  53 0000 F0B4     		push	{r4, r5, r6, r7}
  54              		.cfi_def_cfa_offset 16
  55              		.cfi_offset 4, -16
  56              		.cfi_offset 5, -12
  57              		.cfi_offset 6, -8
  58              		.cfi_offset 7, -4
  59              	.LVL2:
 203:Generated_Source\PSoC5/cyfitter_cfg.c **** 	/* For 32-bit little-endian architectures */
 204:Generated_Source\PSoC5/cyfitter_cfg.c **** 	uint32 i, j = 0u;
  60              		.loc 1 204 0
  61 0002 0022     		movs	r2, #0
 205:Generated_Source\PSoC5/cyfitter_cfg.c **** 	for (i = 0u; i < CY_CFG_BASE_ADDR_COUNT; i++)
  62              		.loc 1 205 0
  63 0004 1746     		mov	r7, r2
  64 0006 11E0     		b	.L4
  65              	.LVL3:
  66              	.L7:
  67              	.LBB2:
 206:Generated_Source\PSoC5/cyfitter_cfg.c **** 	{
 207:Generated_Source\PSoC5/cyfitter_cfg.c **** 		uint32 baseAddr = addr_table[i];
  68              		.loc 1 207 0
  69 0008 50F82760 		ldr	r6, [r0, r7, lsl #2]
  70              	.LVL4:
 208:Generated_Source\PSoC5/cyfitter_cfg.c **** 		uint8 count = (uint8)baseAddr;
  71              		.loc 1 208 0
  72 000c F3B2     		uxtb	r3, r6
  73              	.LVL5:
 209:Generated_Source\PSoC5/cyfitter_cfg.c **** 		baseAddr &= 0xFFFFFF00u;
  74              		.loc 1 209 0
  75 000e 26F0FF06 		bic	r6, r6, #255
  76              	.LVL6:
ARM GAS  C:\Users\user\AppData\Local\Temp\cc7jhrgg.s 			page 6


 210:Generated_Source\PSoC5/cyfitter_cfg.c **** 		while (count != 0u)
  77              		.loc 1 210 0
  78 0012 08E0     		b	.L5
  79              	.L6:
 211:Generated_Source\PSoC5/cyfitter_cfg.c **** 		{
 212:Generated_Source\PSoC5/cyfitter_cfg.c **** 			CY_SET_REG8((void *)(baseAddr + data_table[j].offset), data_table[j].value);
  80              		.loc 1 212 0
  81 0014 01EB4205 		add	r5, r1, r2, lsl #1
  82 0018 11F81240 		ldrb	r4, [r1, r2, lsl #1]	@ zero_extendqisi2
  83 001c 6D78     		ldrb	r5, [r5, #1]	@ zero_extendqisi2
  84 001e A555     		strb	r5, [r4, r6]
 213:Generated_Source\PSoC5/cyfitter_cfg.c **** 			j++;
  85              		.loc 1 213 0
  86 0020 0132     		adds	r2, r2, #1
  87              	.LVL7:
 214:Generated_Source\PSoC5/cyfitter_cfg.c **** 			count--;
  88              		.loc 1 214 0
  89 0022 013B     		subs	r3, r3, #1
  90              	.LVL8:
  91 0024 DBB2     		uxtb	r3, r3
  92              	.LVL9:
  93              	.L5:
 210:Generated_Source\PSoC5/cyfitter_cfg.c **** 		{
  94              		.loc 1 210 0
  95 0026 002B     		cmp	r3, #0
  96 0028 F4D1     		bne	.L6
  97              	.LBE2:
 205:Generated_Source\PSoC5/cyfitter_cfg.c **** 	{
  98              		.loc 1 205 0 discriminator 2
  99 002a 0137     		adds	r7, r7, #1
 100              	.LVL10:
 101              	.L4:
 205:Generated_Source\PSoC5/cyfitter_cfg.c **** 	{
 102              		.loc 1 205 0 is_stmt 0 discriminator 1
 103 002c 272F     		cmp	r7, #39
 104 002e EBD9     		bls	.L7
 215:Generated_Source\PSoC5/cyfitter_cfg.c **** 		}
 216:Generated_Source\PSoC5/cyfitter_cfg.c **** 	}
 217:Generated_Source\PSoC5/cyfitter_cfg.c **** }
 105              		.loc 1 217 0 is_stmt 1
 106 0030 F0BC     		pop	{r4, r5, r6, r7}
 107              		.cfi_restore 7
 108              		.cfi_restore 6
 109              		.cfi_restore 5
 110              		.cfi_restore 4
 111              		.cfi_def_cfa_offset 0
 112              	.LVL11:
 113 0032 7047     		bx	lr
 114              		.cfi_endproc
 115              	.LFE4:
 116              		.size	cfg_write_bytes32, .-cfg_write_bytes32
 117              		.section	.text.CYMEMZERO,"ax",%progbits
 118              		.align	2
 119              		.thumb
 120              		.thumb_func
 121              		.type	CYMEMZERO, %function
 122              	CYMEMZERO:
ARM GAS  C:\Users\user\AppData\Local\Temp\cc7jhrgg.s 			page 7


 123              	.LFB0:
  78:Generated_Source\PSoC5/cyfitter_cfg.c **** 	(void)memset(s, 0, n);
 124              		.loc 1 78 0
 125              		.cfi_startproc
 126              		@ args = 0, pretend = 0, frame = 0
 127              		@ frame_needed = 0, uses_anonymous_args = 0
 128              	.LVL12:
 129 0000 08B5     		push	{r3, lr}
 130              		.cfi_def_cfa_offset 8
 131              		.cfi_offset 3, -8
 132              		.cfi_offset 14, -4
  79:Generated_Source\PSoC5/cyfitter_cfg.c **** }
 133              		.loc 1 79 0
 134 0002 0A46     		mov	r2, r1
 135 0004 0021     		movs	r1, #0
 136              	.LVL13:
 137 0006 FFF7FEFF 		bl	memset
 138              	.LVL14:
 139 000a 08BD     		pop	{r3, pc}
 140              		.cfi_endproc
 141              	.LFE0:
 142              		.size	CYMEMZERO, .-CYMEMZERO
 143              		.section	.text.AnalogSetDefault,"ax",%progbits
 144              		.align	2
 145              		.thumb
 146              		.thumb_func
 147              		.type	AnalogSetDefault, %function
 148              	AnalogSetDefault:
 149              	.LFB6:
 218:Generated_Source\PSoC5/cyfitter_cfg.c **** 
 219:Generated_Source\PSoC5/cyfitter_cfg.c **** /*******************************************************************************
 220:Generated_Source\PSoC5/cyfitter_cfg.c **** * Function Name: ClockSetup
 221:Generated_Source\PSoC5/cyfitter_cfg.c **** ********************************************************************************
 222:Generated_Source\PSoC5/cyfitter_cfg.c **** *
 223:Generated_Source\PSoC5/cyfitter_cfg.c **** * Summary:
 224:Generated_Source\PSoC5/cyfitter_cfg.c **** *  Performs the initialization of all of the clocks in the device based on the
 225:Generated_Source\PSoC5/cyfitter_cfg.c **** *  settings in the Clock tab of the DWR.  This includes enabling the requested
 226:Generated_Source\PSoC5/cyfitter_cfg.c **** *  clocks and setting the necessary dividers to produce the desired frequency. 
 227:Generated_Source\PSoC5/cyfitter_cfg.c **** *
 228:Generated_Source\PSoC5/cyfitter_cfg.c **** * Parameters:
 229:Generated_Source\PSoC5/cyfitter_cfg.c **** *  void
 230:Generated_Source\PSoC5/cyfitter_cfg.c **** *
 231:Generated_Source\PSoC5/cyfitter_cfg.c **** * Return:
 232:Generated_Source\PSoC5/cyfitter_cfg.c **** *  void
 233:Generated_Source\PSoC5/cyfitter_cfg.c **** *
 234:Generated_Source\PSoC5/cyfitter_cfg.c **** *******************************************************************************/
 235:Generated_Source\PSoC5/cyfitter_cfg.c **** static void ClockSetup(void);
 236:Generated_Source\PSoC5/cyfitter_cfg.c **** static void ClockSetup(void)
 237:Generated_Source\PSoC5/cyfitter_cfg.c **** {
 238:Generated_Source\PSoC5/cyfitter_cfg.c **** 	uint32 timeout;
 239:Generated_Source\PSoC5/cyfitter_cfg.c **** 	uint8 pllLock;
 240:Generated_Source\PSoC5/cyfitter_cfg.c **** 
 241:Generated_Source\PSoC5/cyfitter_cfg.c **** 
 242:Generated_Source\PSoC5/cyfitter_cfg.c **** 	/* Configure Digital Clocks based on settings from Clock DWR */
 243:Generated_Source\PSoC5/cyfitter_cfg.c **** 	CY_SET_XTND_REG16((void CYFAR *)(CYREG_CLKDIST_DCFG0_CFG0), 0x0003u);
 244:Generated_Source\PSoC5/cyfitter_cfg.c **** 	CY_SET_XTND_REG8((void CYFAR *)(CYREG_CLKDIST_DCFG0_CFG0 + 0x2u), 0x18u);
 245:Generated_Source\PSoC5/cyfitter_cfg.c **** 	CY_SET_XTND_REG16((void CYFAR *)(CYREG_CLKDIST_DCFG1_CFG0), 0x0003u);
ARM GAS  C:\Users\user\AppData\Local\Temp\cc7jhrgg.s 			page 8


 246:Generated_Source\PSoC5/cyfitter_cfg.c **** 	CY_SET_XTND_REG8((void CYFAR *)(CYREG_CLKDIST_DCFG1_CFG0 + 0x2u), 0x18u);
 247:Generated_Source\PSoC5/cyfitter_cfg.c **** 	CY_SET_XTND_REG16((void CYFAR *)(CYREG_CLKDIST_DCFG2_CFG0), 0x0003u);
 248:Generated_Source\PSoC5/cyfitter_cfg.c **** 	CY_SET_XTND_REG8((void CYFAR *)(CYREG_CLKDIST_DCFG2_CFG0 + 0x2u), 0x18u);
 249:Generated_Source\PSoC5/cyfitter_cfg.c **** 	CY_SET_XTND_REG16((void CYFAR *)(CYREG_CLKDIST_DCFG3_CFG0), 0x0008u);
 250:Generated_Source\PSoC5/cyfitter_cfg.c **** 	CY_SET_XTND_REG8((void CYFAR *)(CYREG_CLKDIST_DCFG3_CFG0 + 0x2u), 0x18u);
 251:Generated_Source\PSoC5/cyfitter_cfg.c **** 	CY_SET_XTND_REG16((void CYFAR *)(CYREG_CLKDIST_DCFG4_CFG0), 0x002Fu);
 252:Generated_Source\PSoC5/cyfitter_cfg.c **** 	CY_SET_XTND_REG8((void CYFAR *)(CYREG_CLKDIST_DCFG4_CFG0 + 0x2u), 0x18u);
 253:Generated_Source\PSoC5/cyfitter_cfg.c **** 	CY_SET_XTND_REG16((void CYFAR *)(CYREG_CLKDIST_DCFG5_CFG0), 0x01DFu);
 254:Generated_Source\PSoC5/cyfitter_cfg.c **** 	CY_SET_XTND_REG8((void CYFAR *)(CYREG_CLKDIST_DCFG5_CFG0 + 0x2u), 0x18u);
 255:Generated_Source\PSoC5/cyfitter_cfg.c **** 
 256:Generated_Source\PSoC5/cyfitter_cfg.c **** 	/* Configure Analog Clocks based on settings from Clock DWR */
 257:Generated_Source\PSoC5/cyfitter_cfg.c **** 	CYCONFIGCPY((void CYFAR *)(CYREG_CLKDIST_ACFG0_CFG0), (const void CYFAR *)(BS_CYDEV_CLKDIST_ACFG0_
 258:Generated_Source\PSoC5/cyfitter_cfg.c **** 
 259:Generated_Source\PSoC5/cyfitter_cfg.c **** 	/* Configure ILO based on settings from Clock DWR */
 260:Generated_Source\PSoC5/cyfitter_cfg.c **** 	CY_SET_XTND_REG8((void CYFAR *)(CYREG_SLOWCLK_ILO_CR0), 0x06u);
 261:Generated_Source\PSoC5/cyfitter_cfg.c **** 
 262:Generated_Source\PSoC5/cyfitter_cfg.c **** 	/* Configure IMO based on settings from Clock DWR */
 263:Generated_Source\PSoC5/cyfitter_cfg.c **** 	CY_SET_XTND_REG8((void CYFAR *)(CYREG_FASTCLK_IMO_CR), 0x70u);
 264:Generated_Source\PSoC5/cyfitter_cfg.c **** 
 265:Generated_Source\PSoC5/cyfitter_cfg.c **** 	/* Configure PLL based on settings from Clock DWR */
 266:Generated_Source\PSoC5/cyfitter_cfg.c **** 	CY_SET_XTND_REG16((void CYFAR *)(CYREG_FASTCLK_PLL_P), 0x0710u);
 267:Generated_Source\PSoC5/cyfitter_cfg.c **** 	CY_SET_XTND_REG16((void CYFAR *)(CYREG_FASTCLK_PLL_CFG0), 0x1251u);
 268:Generated_Source\PSoC5/cyfitter_cfg.c **** 	/* Wait up to 250us for the PLL to lock */
 269:Generated_Source\PSoC5/cyfitter_cfg.c **** 	pllLock = 0u;
 270:Generated_Source\PSoC5/cyfitter_cfg.c **** 	for (timeout = 250u / 10u; (timeout > 0u) && (pllLock != 0x03u); timeout--)
 271:Generated_Source\PSoC5/cyfitter_cfg.c **** 	{ 
 272:Generated_Source\PSoC5/cyfitter_cfg.c **** 		pllLock = 0x03u & ((uint8)((uint8)pllLock << 1) | ((CY_GET_XTND_REG8((void CYFAR *)CYREG_FASTCLK_
 273:Generated_Source\PSoC5/cyfitter_cfg.c **** 		CyDelayCycles(10u * 48u); /* Delay 10us based on 48MHz clock */
 274:Generated_Source\PSoC5/cyfitter_cfg.c **** 	}
 275:Generated_Source\PSoC5/cyfitter_cfg.c **** 	/* If we ran out of time the PLL didn't lock so go to the error function */
 276:Generated_Source\PSoC5/cyfitter_cfg.c **** 	if (timeout == 0u)
 277:Generated_Source\PSoC5/cyfitter_cfg.c **** 	{
 278:Generated_Source\PSoC5/cyfitter_cfg.c **** 		CyClockStartupError(CYCLOCKSTART_PLL_ERROR);
 279:Generated_Source\PSoC5/cyfitter_cfg.c **** 	}
 280:Generated_Source\PSoC5/cyfitter_cfg.c **** 
 281:Generated_Source\PSoC5/cyfitter_cfg.c **** 	/* Configure Bus/Master Clock based on settings from Clock DWR */
 282:Generated_Source\PSoC5/cyfitter_cfg.c **** 	CY_SET_XTND_REG16((void CYFAR *)(CYREG_CLKDIST_MSTR0), 0x0100u);
 283:Generated_Source\PSoC5/cyfitter_cfg.c **** 	CY_SET_XTND_REG8((void CYFAR *)(CYREG_CLKDIST_MSTR0), 0x07u);
 284:Generated_Source\PSoC5/cyfitter_cfg.c **** 	CY_SET_XTND_REG8((void CYFAR *)(CYREG_CLKDIST_BCFG0), 0x00u);
 285:Generated_Source\PSoC5/cyfitter_cfg.c **** 	CY_SET_XTND_REG8((void CYFAR *)(CYREG_CLKDIST_BCFG2), 0x48u);
 286:Generated_Source\PSoC5/cyfitter_cfg.c **** 	CY_SET_XTND_REG8((void CYFAR *)(CYREG_CLKDIST_MSTR0), 0x00u);
 287:Generated_Source\PSoC5/cyfitter_cfg.c **** 
 288:Generated_Source\PSoC5/cyfitter_cfg.c **** 	/* Configure USB Clock based on settings from Clock DWR */
 289:Generated_Source\PSoC5/cyfitter_cfg.c **** 	CY_SET_XTND_REG8((void CYFAR *)(CYREG_CLKDIST_UCFG), 0x00u);
 290:Generated_Source\PSoC5/cyfitter_cfg.c **** 	CY_SET_XTND_REG8((void CYFAR *)(CYREG_CLKDIST_LD), 0x02u);
 291:Generated_Source\PSoC5/cyfitter_cfg.c **** 	CY_SET_XTND_REG8((void CYFAR *)(CYREG_CLKDIST_DLY1), 0x04u);
 292:Generated_Source\PSoC5/cyfitter_cfg.c **** 
 293:Generated_Source\PSoC5/cyfitter_cfg.c **** 	CY_SET_XTND_REG8((void CYFAR *)(CYREG_PM_ACT_CFG2), ((CY_GET_XTND_REG8((void CYFAR *)CYREG_PM_ACT_
 294:Generated_Source\PSoC5/cyfitter_cfg.c **** 	CY_SET_XTND_REG8((void CYFAR *)(CYREG_PM_ACT_CFG1), ((CY_GET_XTND_REG8((void CYFAR *)CYREG_PM_ACT_
 295:Generated_Source\PSoC5/cyfitter_cfg.c **** 	CY_SET_XTND_REG8((void CYFAR *)(CYREG_PM_ACT_CFG0), ((CY_GET_XTND_REG8((void CYFAR *)CYREG_PM_ACT_
 296:Generated_Source\PSoC5/cyfitter_cfg.c **** }
 297:Generated_Source\PSoC5/cyfitter_cfg.c **** 
 298:Generated_Source\PSoC5/cyfitter_cfg.c **** 
 299:Generated_Source\PSoC5/cyfitter_cfg.c **** /* Analog API Functions */
 300:Generated_Source\PSoC5/cyfitter_cfg.c **** 
 301:Generated_Source\PSoC5/cyfitter_cfg.c **** 
 302:Generated_Source\PSoC5/cyfitter_cfg.c **** /*******************************************************************************
ARM GAS  C:\Users\user\AppData\Local\Temp\cc7jhrgg.s 			page 9


 303:Generated_Source\PSoC5/cyfitter_cfg.c **** * Function Name: AnalogSetDefault
 304:Generated_Source\PSoC5/cyfitter_cfg.c **** ********************************************************************************
 305:Generated_Source\PSoC5/cyfitter_cfg.c **** *
 306:Generated_Source\PSoC5/cyfitter_cfg.c **** * Summary:
 307:Generated_Source\PSoC5/cyfitter_cfg.c **** *  Sets up the analog portions of the chip to default values based on chip
 308:Generated_Source\PSoC5/cyfitter_cfg.c **** *  configuration options from the project.
 309:Generated_Source\PSoC5/cyfitter_cfg.c **** *
 310:Generated_Source\PSoC5/cyfitter_cfg.c **** * Parameters:
 311:Generated_Source\PSoC5/cyfitter_cfg.c **** *  void
 312:Generated_Source\PSoC5/cyfitter_cfg.c **** *
 313:Generated_Source\PSoC5/cyfitter_cfg.c **** * Return:
 314:Generated_Source\PSoC5/cyfitter_cfg.c **** *  void
 315:Generated_Source\PSoC5/cyfitter_cfg.c **** *
 316:Generated_Source\PSoC5/cyfitter_cfg.c **** *******************************************************************************/
 317:Generated_Source\PSoC5/cyfitter_cfg.c **** static void AnalogSetDefault(void);
 318:Generated_Source\PSoC5/cyfitter_cfg.c **** static void AnalogSetDefault(void)
 319:Generated_Source\PSoC5/cyfitter_cfg.c **** {
 150              		.loc 1 319 0
 151              		.cfi_startproc
 152              		@ args = 0, pretend = 0, frame = 0
 153              		@ frame_needed = 0, uses_anonymous_args = 0
 154 0000 F8B5     		push	{r3, r4, r5, r6, r7, lr}
 155              		.cfi_def_cfa_offset 24
 156              		.cfi_offset 3, -24
 157              		.cfi_offset 4, -20
 158              		.cfi_offset 5, -16
 159              		.cfi_offset 6, -12
 160              		.cfi_offset 7, -8
 161              		.cfi_offset 14, -4
 320:Generated_Source\PSoC5/cyfitter_cfg.c **** 	uint8 bg_xover_inl_trim = CY_GET_XTND_REG8((void CYFAR *)(CYREG_FLSHID_MFG_CFG_BG_XOVER_INL_TRIM +
 162              		.loc 1 320 0
 163 0002 394B     		ldr	r3, .L13
 164 0004 1B78     		ldrb	r3, [r3]	@ zero_extendqisi2
 165 0006 DBB2     		uxtb	r3, r3
 166              	.LVL15:
 321:Generated_Source\PSoC5/cyfitter_cfg.c **** 	uint8 cr4 = CY_GET_XTND_REG8((void CYFAR *)(CYREG_RESET_CR4));
 167              		.loc 1 321 0
 168 0008 384E     		ldr	r6, .L13+4
 169 000a 3478     		ldrb	r4, [r6]	@ zero_extendqisi2
 170 000c E4B2     		uxtb	r4, r4
 171              	.LVL16:
 322:Generated_Source\PSoC5/cyfitter_cfg.c **** 	uint8 cr5 = CY_GET_XTND_REG8((void CYFAR *)(CYREG_RESET_CR5));
 172              		.loc 1 322 0
 173 000e 384F     		ldr	r7, .L13+8
 174 0010 3D78     		ldrb	r5, [r7]	@ zero_extendqisi2
 175 0012 EDB2     		uxtb	r5, r5
 176              	.LVL17:
 323:Generated_Source\PSoC5/cyfitter_cfg.c **** 	CY_SET_XTND_REG8((void CYFAR *)(CYREG_BG_DFT0), (bg_xover_inl_trim & 0x07u));
 177              		.loc 1 323 0
 178 0014 03F00701 		and	r1, r3, #7
 179 0018 364A     		ldr	r2, .L13+12
 180 001a 1170     		strb	r1, [r2]
 324:Generated_Source\PSoC5/cyfitter_cfg.c **** 	CY_SET_XTND_REG8((void CYFAR *)(CYREG_BG_DFT1), ((bg_xover_inl_trim >> 4) & 0x0Fu));
 181              		.loc 1 324 0
 182 001c 1B09     		lsrs	r3, r3, #4
 183              	.LVL18:
 184 001e 0132     		adds	r2, r2, #1
ARM GAS  C:\Users\user\AppData\Local\Temp\cc7jhrgg.s 			page 10


 185 0020 1370     		strb	r3, [r2]
 325:Generated_Source\PSoC5/cyfitter_cfg.c **** 	/* Disable PRES while setting up SAR voltage reference */
 326:Generated_Source\PSoC5/cyfitter_cfg.c **** 	CY_SET_XTND_REG8((void CYFAR *)(CYREG_RESET_CR4), (cr4 | 0x03u));
 186              		.loc 1 326 0
 187 0022 44F00303 		orr	r3, r4, #3
 188 0026 3370     		strb	r3, [r6]
 327:Generated_Source\PSoC5/cyfitter_cfg.c **** 	CY_SET_XTND_REG8((void CYFAR *)(CYREG_RESET_CR5), (cr5 | 0x03u));
 189              		.loc 1 327 0
 190 0028 45F00303 		orr	r3, r5, #3
 191 002c 3B70     		strb	r3, [r7]
 328:Generated_Source\PSoC5/cyfitter_cfg.c **** 	CY_SET_XTND_REG16((void CYFAR *)CYREG_PRT1_AMUX, 0x4430u);
 192              		.loc 1 328 0
 193 002e 44F23042 		movw	r2, #17456
 194 0032 314B     		ldr	r3, .L13+16
 195 0034 1A80     		strh	r2, [r3]	@ movhi
 329:Generated_Source\PSoC5/cyfitter_cfg.c **** 	CY_SET_XTND_REG16((void CYFAR *)CYREG_PRT2_AMUX, 0x2058u);
 196              		.loc 1 329 0
 197 0036 42F25802 		movw	r2, #8280
 198 003a 1033     		adds	r3, r3, #16
 199 003c 1A80     		strh	r2, [r3]	@ movhi
 330:Generated_Source\PSoC5/cyfitter_cfg.c **** 	CY_SET_XTND_REG16((void CYFAR *)CYREG_PRT3_AMUX, 0x0208u);
 200              		.loc 1 330 0
 201 003e 4FF40272 		mov	r2, #520
 202 0042 1033     		adds	r3, r3, #16
 203 0044 1A80     		strh	r2, [r3]	@ movhi
 331:Generated_Source\PSoC5/cyfitter_cfg.c **** 	CY_SET_XTND_REG16((void CYFAR *)CYREG_PRT6_AMUX, 0x2020u);
 204              		.loc 1 331 0
 205 0046 42F22002 		movw	r2, #8224
 206 004a 3033     		adds	r3, r3, #48
 207 004c 1A80     		strh	r2, [r3]	@ movhi
 332:Generated_Source\PSoC5/cyfitter_cfg.c **** 	CY_SET_XTND_REG8((void CYFAR *)CYREG_PRT15_AG, 0x0Fu);
 208              		.loc 1 332 0
 209 004e 0F22     		movs	r2, #15
 210 0050 9133     		adds	r3, r3, #145
 211 0052 1A70     		strb	r2, [r3]
 333:Generated_Source\PSoC5/cyfitter_cfg.c **** 	CY_SET_XTND_REG8((void CYFAR *)CYREG_BG_CR0, 0x09u);
 212              		.loc 1 333 0
 213 0054 0922     		movs	r2, #9
 214 0056 03F26F63 		addw	r3, r3, #1647
 215 005a 1A70     		strb	r2, [r3]
 334:Generated_Source\PSoC5/cyfitter_cfg.c **** 	CY_SET_XTND_REG8((void CYFAR *)CYREG_SAR1_CSR1, 0x80u);
 216              		.loc 1 334 0
 217 005c 8022     		movs	r2, #128
 218 005e 9D33     		adds	r3, r3, #157
 219 0060 1A70     		strb	r2, [r3]
 335:Generated_Source\PSoC5/cyfitter_cfg.c **** 	CY_SET_XTND_REG8((void CYFAR *)CYREG_SC0_SW3, 0x02u);
 220              		.loc 1 335 0
 221 0062 0223     		movs	r3, #2
 222 0064 2549     		ldr	r1, .L13+20
 223 0066 0B70     		strb	r3, [r1]
 336:Generated_Source\PSoC5/cyfitter_cfg.c **** 	CY_SET_XTND_REG8((void CYFAR *)CYREG_SC1_SW0, 0x04u);
 224              		.loc 1 336 0
 225 0068 0421     		movs	r1, #4
 226 006a 2548     		ldr	r0, .L13+24
 227 006c 0170     		strb	r1, [r0]
 337:Generated_Source\PSoC5/cyfitter_cfg.c **** 	CY_SET_XTND_REG8((void CYFAR *)CYREG_SC1_SW2, 0x04u);
 228              		.loc 1 337 0
ARM GAS  C:\Users\user\AppData\Local\Temp\cc7jhrgg.s 			page 11


 229 006e 0230     		adds	r0, r0, #2
 230 0070 0170     		strb	r1, [r0]
 338:Generated_Source\PSoC5/cyfitter_cfg.c **** 	CY_SET_XTND_REG8((void CYFAR *)CYREG_SC1_SW4, 0x01u);
 231              		.loc 1 338 0
 232 0072 0121     		movs	r1, #1
 233 0074 0230     		adds	r0, r0, #2
 234 0076 0170     		strb	r1, [r0]
 339:Generated_Source\PSoC5/cyfitter_cfg.c **** 	CY_SET_XTND_REG8((void CYFAR *)CYREG_SC2_SW0, 0x02u);
 235              		.loc 1 339 0
 236 0078 0C30     		adds	r0, r0, #12
 237 007a 0370     		strb	r3, [r0]
 340:Generated_Source\PSoC5/cyfitter_cfg.c **** 	CY_SET_XTND_REG8((void CYFAR *)CYREG_SC2_SW4, 0x80u);
 238              		.loc 1 340 0
 239 007c 0430     		adds	r0, r0, #4
 240 007e 0270     		strb	r2, [r0]
 341:Generated_Source\PSoC5/cyfitter_cfg.c **** 	CY_SET_XTND_REG8((void CYFAR *)CYREG_SC3_SW0, 0xF0u);
 241              		.loc 1 341 0
 242 0080 4FF0F00E 		mov	lr, #240
 243 0084 0C30     		adds	r0, r0, #12
 244 0086 80F800E0 		strb	lr, [r0]
 342:Generated_Source\PSoC5/cyfitter_cfg.c **** 	CY_SET_XTND_REG8((void CYFAR *)CYREG_SC3_SW6, 0x02u);
 245              		.loc 1 342 0
 246 008a 0630     		adds	r0, r0, #6
 247 008c 0370     		strb	r3, [r0]
 343:Generated_Source\PSoC5/cyfitter_cfg.c **** 	CY_SET_XTND_REG8((void CYFAR *)CYREG_DAC1_SW0, 0x01u);
 248              		.loc 1 343 0
 249 008e 5230     		adds	r0, r0, #82
 250 0090 0170     		strb	r1, [r0]
 344:Generated_Source\PSoC5/cyfitter_cfg.c **** 	CY_SET_XTND_REG16((void CYFAR *)CYREG_DAC1_SW2, 0x800Au);
 251              		.loc 1 344 0
 252 0092 48F20A00 		movw	r0, #32778
 253 0096 1B49     		ldr	r1, .L13+28
 254 0098 0880     		strh	r0, [r1]	@ movhi
 345:Generated_Source\PSoC5/cyfitter_cfg.c **** 	CY_SET_XTND_REG8((void CYFAR *)CYREG_DAC1_SW4, 0x02u);
 255              		.loc 1 345 0
 256 009a 0231     		adds	r1, r1, #2
 257 009c 0B70     		strb	r3, [r1]
 346:Generated_Source\PSoC5/cyfitter_cfg.c **** 	CY_SET_XTND_REG8((void CYFAR *)CYREG_CMP2_SW3, 0x40u);
 258              		.loc 1 346 0
 259 009e 4021     		movs	r1, #64
 260 00a0 1948     		ldr	r0, .L13+32
 261 00a2 0170     		strb	r1, [r0]
 347:Generated_Source\PSoC5/cyfitter_cfg.c **** 	CY_SET_XTND_REG8((void CYFAR *)CYREG_CMP2_SW4, 0x80u);
 262              		.loc 1 347 0
 263 00a4 0130     		adds	r0, r0, #1
 264 00a6 0270     		strb	r2, [r0]
 348:Generated_Source\PSoC5/cyfitter_cfg.c **** 	CY_SET_XTND_REG8((void CYFAR *)CYREG_CMP3_SW3, 0x40u);
 265              		.loc 1 348 0
 266 00a8 184A     		ldr	r2, .L13+36
 267 00aa 1170     		strb	r1, [r2]
 349:Generated_Source\PSoC5/cyfitter_cfg.c **** 	CY_SET_XTND_REG8((void CYFAR *)CYREG_CMP3_SW6, 0x08u);
 268              		.loc 1 349 0
 269 00ac 0821     		movs	r1, #8
 270 00ae 0332     		adds	r2, r2, #3
 271 00b0 1170     		strb	r1, [r2]
 350:Generated_Source\PSoC5/cyfitter_cfg.c **** 	CY_SET_XTND_REG8((void CYFAR *)CYREG_DSM0_SW4, 0x20u);
 272              		.loc 1 350 0
ARM GAS  C:\Users\user\AppData\Local\Temp\cc7jhrgg.s 			page 12


 273 00b2 2021     		movs	r1, #32
 274 00b4 2632     		adds	r2, r2, #38
 275 00b6 1170     		strb	r1, [r2]
 351:Generated_Source\PSoC5/cyfitter_cfg.c **** 	CY_SET_XTND_REG16((void CYFAR *)CYREG_SAR1_SW2, 0x2001u);
 276              		.loc 1 351 0
 277 00b8 42F20101 		movw	r1, #8193
 278 00bc 2632     		adds	r2, r2, #38
 279 00be 1180     		strh	r1, [r2]	@ movhi
 352:Generated_Source\PSoC5/cyfitter_cfg.c **** 	CY_SET_XTND_REG32((void CYFAR *)CYREG_OPAMP0_MX, 0x02080104u);
 280              		.loc 1 352 0
 281 00c0 1349     		ldr	r1, .L13+40
 282 00c2 1632     		adds	r2, r2, #22
 283 00c4 1160     		str	r1, [r2]
 353:Generated_Source\PSoC5/cyfitter_cfg.c **** 	CY_SET_XTND_REG32((void CYFAR *)CYREG_OPAMP2_MX, 0x04070104u);
 284              		.loc 1 353 0
 285 00c6 01F1FF71 		add	r1, r1, #33423360
 286 00ca 01F58031 		add	r1, r1, #65536
 287 00ce 0432     		adds	r2, r2, #4
 288 00d0 1160     		str	r1, [r2]
 354:Generated_Source\PSoC5/cyfitter_cfg.c **** 	CY_SET_XTND_REG8((void CYFAR *)CYREG_BUS_SW0, 0x02u);
 289              		.loc 1 354 0
 290 00d2 1432     		adds	r2, r2, #20
 291 00d4 1370     		strb	r3, [r2]
 355:Generated_Source\PSoC5/cyfitter_cfg.c **** 	CyDelayUs(10u); /* Allow vref to settle before re-enabling PRES */
 292              		.loc 1 355 0
 293 00d6 0A20     		movs	r0, #10
 294 00d8 FFF7FEFF 		bl	CyDelayUs
 295              	.LVL19:
 356:Generated_Source\PSoC5/cyfitter_cfg.c **** 	CY_SET_XTND_REG8((void CYFAR *)(CYREG_RESET_CR5), (cr5));
 296              		.loc 1 356 0
 297 00dc 3D70     		strb	r5, [r7]
 357:Generated_Source\PSoC5/cyfitter_cfg.c **** 	CY_SET_XTND_REG8((void CYFAR *)(CYREG_RESET_CR4), (cr4));
 298              		.loc 1 357 0
 299 00de 3470     		strb	r4, [r6]
 358:Generated_Source\PSoC5/cyfitter_cfg.c **** 	CY_SET_XTND_REG8((void CYFAR *)CYREG_PUMP_CR0, 0x44u);
 300              		.loc 1 358 0
 301 00e0 4422     		movs	r2, #68
 302 00e2 0C4B     		ldr	r3, .L13+44
 303 00e4 1A70     		strb	r2, [r3]
 304 00e6 F8BD     		pop	{r3, r4, r5, r6, r7, pc}
 305              	.LVL20:
 306              	.L14:
 307              		.align	2
 308              	.L13:
 309 00e8 CF010049 		.word	1224737231
 310 00ec F8460040 		.word	1073759992
 311 00f0 F9460040 		.word	1073759993
 312 00f4 6E580040 		.word	1073764462
 313 00f8 1C510040 		.word	1073762588
 314 00fc 035A0040 		.word	1073764867
 315 0100 105A0040 		.word	1073764880
 316 0104 8A5A0040 		.word	1073765002
 317 0108 D35A0040 		.word	1073765075
 318 010c DB5A0040 		.word	1073765083
 319 0110 04010802 		.word	34078980
 320 0114 76580040 		.word	1073764470
 321              		.cfi_endproc
ARM GAS  C:\Users\user\AppData\Local\Temp\cc7jhrgg.s 			page 13


 322              	.LFE6:
 323              		.size	AnalogSetDefault, .-AnalogSetDefault
 324              		.section	.text.CYCONFIGCPY,"ax",%progbits
 325              		.align	2
 326              		.thumb
 327              		.thumb_func
 328              		.type	CYCONFIGCPY, %function
 329              	CYCONFIGCPY:
 330              	.LFB1:
  85:Generated_Source\PSoC5/cyfitter_cfg.c **** 	(void)memcpy(dest, src, n);
 331              		.loc 1 85 0
 332              		.cfi_startproc
 333              		@ args = 0, pretend = 0, frame = 0
 334              		@ frame_needed = 0, uses_anonymous_args = 0
 335              	.LVL21:
 336 0000 08B5     		push	{r3, lr}
 337              		.cfi_def_cfa_offset 8
 338              		.cfi_offset 3, -8
 339              		.cfi_offset 14, -4
  86:Generated_Source\PSoC5/cyfitter_cfg.c **** }
 340              		.loc 1 86 0
 341 0002 FFF7FEFF 		bl	memcpy
 342              	.LVL22:
 343 0006 08BD     		pop	{r3, pc}
 344              		.cfi_endproc
 345              	.LFE1:
 346              		.size	CYCONFIGCPY, .-CYCONFIGCPY
 347              		.section	.text.ClockSetup,"ax",%progbits
 348              		.align	2
 349              		.thumb
 350              		.thumb_func
 351              		.type	ClockSetup, %function
 352              	ClockSetup:
 353              	.LFB5:
 237:Generated_Source\PSoC5/cyfitter_cfg.c **** 	uint32 timeout;
 354              		.loc 1 237 0
 355              		.cfi_startproc
 356              		@ args = 0, pretend = 0, frame = 0
 357              		@ frame_needed = 0, uses_anonymous_args = 0
 358 0000 38B5     		push	{r3, r4, r5, lr}
 359              		.cfi_def_cfa_offset 16
 360              		.cfi_offset 3, -16
 361              		.cfi_offset 4, -12
 362              		.cfi_offset 5, -8
 363              		.cfi_offset 14, -4
 243:Generated_Source\PSoC5/cyfitter_cfg.c **** 	CY_SET_XTND_REG8((void CYFAR *)(CYREG_CLKDIST_DCFG0_CFG0 + 0x2u), 0x18u);
 364              		.loc 1 243 0
 365 0002 0322     		movs	r2, #3
 366 0004 354B     		ldr	r3, .L23
 367 0006 1A80     		strh	r2, [r3]	@ movhi
 244:Generated_Source\PSoC5/cyfitter_cfg.c **** 	CY_SET_XTND_REG16((void CYFAR *)(CYREG_CLKDIST_DCFG1_CFG0), 0x0003u);
 368              		.loc 1 244 0
 369 0008 1823     		movs	r3, #24
 370 000a 3549     		ldr	r1, .L23+4
 371 000c 0B70     		strb	r3, [r1]
 245:Generated_Source\PSoC5/cyfitter_cfg.c **** 	CY_SET_XTND_REG8((void CYFAR *)(CYREG_CLKDIST_DCFG1_CFG0 + 0x2u), 0x18u);
 372              		.loc 1 245 0
ARM GAS  C:\Users\user\AppData\Local\Temp\cc7jhrgg.s 			page 14


 373 000e 0231     		adds	r1, r1, #2
 374 0010 0A80     		strh	r2, [r1]	@ movhi
 246:Generated_Source\PSoC5/cyfitter_cfg.c **** 	CY_SET_XTND_REG16((void CYFAR *)(CYREG_CLKDIST_DCFG2_CFG0), 0x0003u);
 375              		.loc 1 246 0
 376 0012 0231     		adds	r1, r1, #2
 377 0014 0B70     		strb	r3, [r1]
 247:Generated_Source\PSoC5/cyfitter_cfg.c **** 	CY_SET_XTND_REG8((void CYFAR *)(CYREG_CLKDIST_DCFG2_CFG0 + 0x2u), 0x18u);
 378              		.loc 1 247 0
 379 0016 0231     		adds	r1, r1, #2
 380 0018 0A80     		strh	r2, [r1]	@ movhi
 248:Generated_Source\PSoC5/cyfitter_cfg.c **** 	CY_SET_XTND_REG16((void CYFAR *)(CYREG_CLKDIST_DCFG3_CFG0), 0x0008u);
 381              		.loc 1 248 0
 382 001a 324A     		ldr	r2, .L23+8
 383 001c 1370     		strb	r3, [r2]
 249:Generated_Source\PSoC5/cyfitter_cfg.c **** 	CY_SET_XTND_REG8((void CYFAR *)(CYREG_CLKDIST_DCFG3_CFG0 + 0x2u), 0x18u);
 384              		.loc 1 249 0
 385 001e 0822     		movs	r2, #8
 386 0020 0431     		adds	r1, r1, #4
 387 0022 0A80     		strh	r2, [r1]	@ movhi
 250:Generated_Source\PSoC5/cyfitter_cfg.c **** 	CY_SET_XTND_REG16((void CYFAR *)(CYREG_CLKDIST_DCFG4_CFG0), 0x002Fu);
 388              		.loc 1 250 0
 389 0024 0231     		adds	r1, r1, #2
 390 0026 0B70     		strb	r3, [r1]
 251:Generated_Source\PSoC5/cyfitter_cfg.c **** 	CY_SET_XTND_REG8((void CYFAR *)(CYREG_CLKDIST_DCFG4_CFG0 + 0x2u), 0x18u);
 391              		.loc 1 251 0
 392 0028 2F20     		movs	r0, #47
 393 002a 0231     		adds	r1, r1, #2
 394 002c 0880     		strh	r0, [r1]	@ movhi
 252:Generated_Source\PSoC5/cyfitter_cfg.c **** 	CY_SET_XTND_REG16((void CYFAR *)(CYREG_CLKDIST_DCFG5_CFG0), 0x01DFu);
 395              		.loc 1 252 0
 396 002e 0231     		adds	r1, r1, #2
 397 0030 0B70     		strb	r3, [r1]
 253:Generated_Source\PSoC5/cyfitter_cfg.c **** 	CY_SET_XTND_REG8((void CYFAR *)(CYREG_CLKDIST_DCFG5_CFG0 + 0x2u), 0x18u);
 398              		.loc 1 253 0
 399 0032 40F2DF10 		movw	r0, #479
 400 0036 0231     		adds	r1, r1, #2
 401 0038 0880     		strh	r0, [r1]	@ movhi
 254:Generated_Source\PSoC5/cyfitter_cfg.c **** 
 402              		.loc 1 254 0
 403 003a 0231     		adds	r1, r1, #2
 404 003c 0B70     		strb	r3, [r1]
 257:Generated_Source\PSoC5/cyfitter_cfg.c **** 
 405              		.loc 1 257 0
 406 003e 2A49     		ldr	r1, .L23+12
 407 0040 2A48     		ldr	r0, .L23+16
 408 0042 FFF7FEFF 		bl	CYCONFIGCPY
 409              	.LVL23:
 260:Generated_Source\PSoC5/cyfitter_cfg.c **** 
 410              		.loc 1 260 0
 411 0046 0622     		movs	r2, #6
 412 0048 294B     		ldr	r3, .L23+20
 413 004a 1A70     		strb	r2, [r3]
 263:Generated_Source\PSoC5/cyfitter_cfg.c **** 
 414              		.loc 1 263 0
 415 004c 7022     		movs	r2, #112
 416 004e A3F58073 		sub	r3, r3, #256
 417 0052 1A70     		strb	r2, [r3]
ARM GAS  C:\Users\user\AppData\Local\Temp\cc7jhrgg.s 			page 15


 266:Generated_Source\PSoC5/cyfitter_cfg.c **** 	CY_SET_XTND_REG16((void CYFAR *)(CYREG_FASTCLK_PLL_CFG0), 0x1251u);
 418              		.loc 1 266 0
 419 0054 4FF4E262 		mov	r2, #1808
 420 0058 2233     		adds	r3, r3, #34
 421 005a 1A80     		strh	r2, [r3]	@ movhi
 267:Generated_Source\PSoC5/cyfitter_cfg.c **** 	/* Wait up to 250us for the PLL to lock */
 422              		.loc 1 267 0
 423 005c 41F25122 		movw	r2, #4689
 424 0060 023B     		subs	r3, r3, #2
 425 0062 1A80     		strh	r2, [r3]	@ movhi
 426              	.LVL24:
 269:Generated_Source\PSoC5/cyfitter_cfg.c **** 	for (timeout = 250u / 10u; (timeout > 0u) && (pllLock != 0x03u); timeout--)
 427              		.loc 1 269 0
 428 0064 0024     		movs	r4, #0
 270:Generated_Source\PSoC5/cyfitter_cfg.c **** 	{ 
 429              		.loc 1 270 0
 430 0066 1925     		movs	r5, #25
 431 0068 0CE0     		b	.L18
 432              	.LVL25:
 433              	.L20:
 272:Generated_Source\PSoC5/cyfitter_cfg.c **** 		CyDelayCycles(10u * 48u); /* Delay 10us based on 48MHz clock */
 434              		.loc 1 272 0 discriminator 4
 435 006a 224B     		ldr	r3, .L23+24
 436 006c 1B78     		ldrb	r3, [r3]	@ zero_extendqisi2
 437 006e 03F00103 		and	r3, r3, #1
 438 0072 43EA4404 		orr	r4, r3, r4, lsl #1
 439              	.LVL26:
 440 0076 04F00304 		and	r4, r4, #3
 441              	.LVL27:
 273:Generated_Source\PSoC5/cyfitter_cfg.c **** 	}
 442              		.loc 1 273 0 discriminator 4
 443 007a 4FF4F070 		mov	r0, #480
 444 007e FFF7FEFF 		bl	CyDelayCycles
 445              	.LVL28:
 270:Generated_Source\PSoC5/cyfitter_cfg.c **** 	{ 
 446              		.loc 1 270 0 discriminator 4
 447 0082 013D     		subs	r5, r5, #1
 448              	.LVL29:
 449              	.L18:
 270:Generated_Source\PSoC5/cyfitter_cfg.c **** 	{ 
 450              		.loc 1 270 0 is_stmt 0 discriminator 1
 451 0084 0DB1     		cbz	r5, .L19
 270:Generated_Source\PSoC5/cyfitter_cfg.c **** 	{ 
 452              		.loc 1 270 0 discriminator 3
 453 0086 032C     		cmp	r4, #3
 454 0088 EFD1     		bne	.L20
 455              	.L19:
 276:Generated_Source\PSoC5/cyfitter_cfg.c **** 	{
 456              		.loc 1 276 0 is_stmt 1
 457 008a 15B9     		cbnz	r5, .L21
 278:Generated_Source\PSoC5/cyfitter_cfg.c **** 	}
 458              		.loc 1 278 0
 459 008c 0320     		movs	r0, #3
 460 008e FFF7FEFF 		bl	CyClockStartupError
 461              	.LVL30:
 462              	.L21:
 282:Generated_Source\PSoC5/cyfitter_cfg.c **** 	CY_SET_XTND_REG8((void CYFAR *)(CYREG_CLKDIST_MSTR0), 0x07u);
ARM GAS  C:\Users\user\AppData\Local\Temp\cc7jhrgg.s 			page 16


 463              		.loc 1 282 0
 464 0092 194A     		ldr	r2, .L23+28
 465 0094 4FF48073 		mov	r3, #256
 466 0098 1380     		strh	r3, [r2]	@ movhi
 283:Generated_Source\PSoC5/cyfitter_cfg.c **** 	CY_SET_XTND_REG8((void CYFAR *)(CYREG_CLKDIST_BCFG0), 0x00u);
 467              		.loc 1 283 0
 468 009a 0723     		movs	r3, #7
 469 009c 1370     		strb	r3, [r2]
 284:Generated_Source\PSoC5/cyfitter_cfg.c **** 	CY_SET_XTND_REG8((void CYFAR *)(CYREG_CLKDIST_BCFG2), 0x48u);
 470              		.loc 1 284 0
 471 009e 0023     		movs	r3, #0
 472 00a0 1649     		ldr	r1, .L23+32
 473 00a2 0B70     		strb	r3, [r1]
 285:Generated_Source\PSoC5/cyfitter_cfg.c **** 	CY_SET_XTND_REG8((void CYFAR *)(CYREG_CLKDIST_MSTR0), 0x00u);
 474              		.loc 1 285 0
 475 00a4 4820     		movs	r0, #72
 476 00a6 0231     		adds	r1, r1, #2
 477 00a8 0870     		strb	r0, [r1]
 286:Generated_Source\PSoC5/cyfitter_cfg.c **** 
 478              		.loc 1 286 0
 479 00aa 1370     		strb	r3, [r2]
 289:Generated_Source\PSoC5/cyfitter_cfg.c **** 	CY_SET_XTND_REG8((void CYFAR *)(CYREG_CLKDIST_LD), 0x02u);
 480              		.loc 1 289 0
 481 00ac 0532     		adds	r2, r2, #5
 482 00ae 1370     		strb	r3, [r2]
 290:Generated_Source\PSoC5/cyfitter_cfg.c **** 	CY_SET_XTND_REG8((void CYFAR *)(CYREG_CLKDIST_DLY1), 0x04u);
 483              		.loc 1 290 0
 484 00b0 0222     		movs	r2, #2
 485 00b2 134B     		ldr	r3, .L23+36
 486 00b4 1A70     		strb	r2, [r3]
 291:Generated_Source\PSoC5/cyfitter_cfg.c **** 
 487              		.loc 1 291 0
 488 00b6 0422     		movs	r2, #4
 489 00b8 0A33     		adds	r3, r3, #10
 490 00ba 1A70     		strb	r2, [r3]
 293:Generated_Source\PSoC5/cyfitter_cfg.c **** 	CY_SET_XTND_REG8((void CYFAR *)(CYREG_PM_ACT_CFG1), ((CY_GET_XTND_REG8((void CYFAR *)CYREG_PM_ACT_
 491              		.loc 1 293 0
 492 00bc 114A     		ldr	r2, .L23+40
 493 00be 1378     		ldrb	r3, [r2]	@ zero_extendqisi2
 494 00c0 43F03F03 		orr	r3, r3, #63
 495 00c4 1370     		strb	r3, [r2]
 294:Generated_Source\PSoC5/cyfitter_cfg.c **** 	CY_SET_XTND_REG8((void CYFAR *)(CYREG_PM_ACT_CFG0), ((CY_GET_XTND_REG8((void CYFAR *)CYREG_PM_ACT_
 496              		.loc 1 294 0
 497 00c6 013A     		subs	r2, r2, #1
 498 00c8 1378     		ldrb	r3, [r2]	@ zero_extendqisi2
 499 00ca 43F00303 		orr	r3, r3, #3
 500 00ce 1370     		strb	r3, [r2]
 295:Generated_Source\PSoC5/cyfitter_cfg.c **** }
 501              		.loc 1 295 0
 502 00d0 013A     		subs	r2, r2, #1
 503 00d2 1378     		ldrb	r3, [r2]	@ zero_extendqisi2
 504 00d4 43F08003 		orr	r3, r3, #128
 505 00d8 1370     		strb	r3, [r2]
 506 00da 38BD     		pop	{r3, r4, r5, pc}
 507              	.LVL31:
 508              	.L24:
 509              		.align	2
ARM GAS  C:\Users\user\AppData\Local\Temp\cc7jhrgg.s 			page 17


 510              	.L23:
 511 00dc 80400040 		.word	1073758336
 512 00e0 82400040 		.word	1073758338
 513 00e4 8A400040 		.word	1073758346
 514 00e8 F4090048 		.word	1207962100
 515 00ec 00410040 		.word	1073758464
 516 00f0 00430040 		.word	1073758976
 517 00f4 25420040 		.word	1073758757
 518 00f8 04400040 		.word	1073758212
 519 00fc 06400040 		.word	1073758214
 520 0100 01400040 		.word	1073758209
 521 0104 A2430040 		.word	1073759138
 522              		.cfi_endproc
 523              	.LFE5:
 524              		.size	ClockSetup, .-ClockSetup
 525              		.section	.text.SetAnalogRoutingPumps,"ax",%progbits
 526              		.align	2
 527              		.global	SetAnalogRoutingPumps
 528              		.thumb
 529              		.thumb_func
 530              		.type	SetAnalogRoutingPumps, %function
 531              	SetAnalogRoutingPumps:
 532              	.LFB7:
 359:Generated_Source\PSoC5/cyfitter_cfg.c **** }
 360:Generated_Source\PSoC5/cyfitter_cfg.c **** 
 361:Generated_Source\PSoC5/cyfitter_cfg.c **** 
 362:Generated_Source\PSoC5/cyfitter_cfg.c **** /*******************************************************************************
 363:Generated_Source\PSoC5/cyfitter_cfg.c **** * Function Name: SetAnalogRoutingPumps
 364:Generated_Source\PSoC5/cyfitter_cfg.c **** ********************************************************************************
 365:Generated_Source\PSoC5/cyfitter_cfg.c **** *
 366:Generated_Source\PSoC5/cyfitter_cfg.c **** * Summary:
 367:Generated_Source\PSoC5/cyfitter_cfg.c **** * Enables or disables the analog pumps feeding analog routing switches.
 368:Generated_Source\PSoC5/cyfitter_cfg.c **** * Intended to be called at startup, based on the Vdda system configuration;
 369:Generated_Source\PSoC5/cyfitter_cfg.c **** * may be called during operation when the user informs us that the Vdda voltage
 370:Generated_Source\PSoC5/cyfitter_cfg.c **** * crossed the pump threshold.
 371:Generated_Source\PSoC5/cyfitter_cfg.c **** *
 372:Generated_Source\PSoC5/cyfitter_cfg.c **** * Parameters:
 373:Generated_Source\PSoC5/cyfitter_cfg.c **** *  enabled - 1 to enable the pumps, 0 to disable the pumps
 374:Generated_Source\PSoC5/cyfitter_cfg.c **** *
 375:Generated_Source\PSoC5/cyfitter_cfg.c **** * Return:
 376:Generated_Source\PSoC5/cyfitter_cfg.c **** *  void
 377:Generated_Source\PSoC5/cyfitter_cfg.c **** *
 378:Generated_Source\PSoC5/cyfitter_cfg.c **** *******************************************************************************/
 379:Generated_Source\PSoC5/cyfitter_cfg.c **** void SetAnalogRoutingPumps(uint8 enabled)
 380:Generated_Source\PSoC5/cyfitter_cfg.c **** {
 533              		.loc 1 380 0
 534              		.cfi_startproc
 535              		@ args = 0, pretend = 0, frame = 0
 536              		@ frame_needed = 0, uses_anonymous_args = 0
 537              		@ link register save eliminated.
 538              	.LVL32:
 381:Generated_Source\PSoC5/cyfitter_cfg.c **** 	uint8 regValue = CY_GET_XTND_REG8((void CYFAR *)CYREG_PUMP_CR0);
 539              		.loc 1 381 0
 540 0000 054B     		ldr	r3, .L28
 541 0002 1B78     		ldrb	r3, [r3]	@ zero_extendqisi2
 542 0004 DBB2     		uxtb	r3, r3
 543              	.LVL33:
ARM GAS  C:\Users\user\AppData\Local\Temp\cc7jhrgg.s 			page 18


 382:Generated_Source\PSoC5/cyfitter_cfg.c **** 	if (enabled != 0u)
 544              		.loc 1 382 0
 545 0006 10B1     		cbz	r0, .L26
 383:Generated_Source\PSoC5/cyfitter_cfg.c **** 	{
 384:Generated_Source\PSoC5/cyfitter_cfg.c **** 		regValue |= 0x22u;
 546              		.loc 1 384 0
 547 0008 43F02203 		orr	r3, r3, #34
 548              	.LVL34:
 549 000c 01E0     		b	.L27
 550              	.L26:
 385:Generated_Source\PSoC5/cyfitter_cfg.c **** 	}
 386:Generated_Source\PSoC5/cyfitter_cfg.c **** 	else
 387:Generated_Source\PSoC5/cyfitter_cfg.c **** 	{
 388:Generated_Source\PSoC5/cyfitter_cfg.c **** 		regValue &= (uint8)~0x22u;
 551              		.loc 1 388 0
 552 000e 03F0DD03 		and	r3, r3, #221
 553              	.LVL35:
 554              	.L27:
 389:Generated_Source\PSoC5/cyfitter_cfg.c **** 	}
 390:Generated_Source\PSoC5/cyfitter_cfg.c **** 	CY_SET_XTND_REG8((void CYFAR *)CYREG_PUMP_CR0, regValue);
 555              		.loc 1 390 0
 556 0012 014A     		ldr	r2, .L28
 557 0014 1370     		strb	r3, [r2]
 558 0016 7047     		bx	lr
 559              	.L29:
 560              		.align	2
 561              	.L28:
 562 0018 76580040 		.word	1073764470
 563              		.cfi_endproc
 564              	.LFE7:
 565              		.size	SetAnalogRoutingPumps, .-SetAnalogRoutingPumps
 566              		.section	.text.AMux_1_Set,"ax",%progbits
 567              		.align	2
 568              		.global	AMux_1_Set
 569              		.thumb
 570              		.thumb_func
 571              		.type	AMux_1_Set, %function
 572              	AMux_1_Set:
 573              	.LFB8:
 391:Generated_Source\PSoC5/cyfitter_cfg.c **** }
 392:Generated_Source\PSoC5/cyfitter_cfg.c **** 
 393:Generated_Source\PSoC5/cyfitter_cfg.c **** 
 394:Generated_Source\PSoC5/cyfitter_cfg.c **** #define CY_AMUX_UNUSED CYREG_BOOST_SR
 395:Generated_Source\PSoC5/cyfitter_cfg.c **** /* This is an implementation detail of the AMux. Code that depends on it may be
 396:Generated_Source\PSoC5/cyfitter_cfg.c ****    incompatible with other versions of PSoC Creator. */
 397:Generated_Source\PSoC5/cyfitter_cfg.c **** uint8 CYXDATA * const CYCODE AMux_1__addrTable[6] = {
 398:Generated_Source\PSoC5/cyfitter_cfg.c **** 	(uint8 CYXDATA *)CYREG_SC2_SW10, (uint8 CYXDATA *)CYREG_BUS_SW2, 
 399:Generated_Source\PSoC5/cyfitter_cfg.c **** 	(uint8 CYXDATA *)CYREG_SC3_SW10, (uint8 CYXDATA *)CY_AMUX_UNUSED, 
 400:Generated_Source\PSoC5/cyfitter_cfg.c **** 	(uint8 CYXDATA *)CYREG_SC1_SW8, (uint8 CYXDATA *)CYREG_SAR1_SW0, 
 401:Generated_Source\PSoC5/cyfitter_cfg.c **** };
 402:Generated_Source\PSoC5/cyfitter_cfg.c **** 
 403:Generated_Source\PSoC5/cyfitter_cfg.c **** /* This is an implementation detail of the AMux. Code that depends on it may be
 404:Generated_Source\PSoC5/cyfitter_cfg.c ****    incompatible with other versions of PSoC Creator. */
 405:Generated_Source\PSoC5/cyfitter_cfg.c **** const uint8 CYCODE AMux_1__maskTable[6] = {
 406:Generated_Source\PSoC5/cyfitter_cfg.c **** 	0x01u, 0x01u, 
 407:Generated_Source\PSoC5/cyfitter_cfg.c **** 	0x01u, 0x00u, 
 408:Generated_Source\PSoC5/cyfitter_cfg.c **** 	0x08u, 0x08u, 
ARM GAS  C:\Users\user\AppData\Local\Temp\cc7jhrgg.s 			page 19


 409:Generated_Source\PSoC5/cyfitter_cfg.c **** };
 410:Generated_Source\PSoC5/cyfitter_cfg.c **** 
 411:Generated_Source\PSoC5/cyfitter_cfg.c **** /*******************************************************************************
 412:Generated_Source\PSoC5/cyfitter_cfg.c **** * Function Name: AMux_1_Set
 413:Generated_Source\PSoC5/cyfitter_cfg.c **** ********************************************************************************
 414:Generated_Source\PSoC5/cyfitter_cfg.c **** * Summary:
 415:Generated_Source\PSoC5/cyfitter_cfg.c **** *  This function is used to set a particular channel as active on the AMux.
 416:Generated_Source\PSoC5/cyfitter_cfg.c **** *
 417:Generated_Source\PSoC5/cyfitter_cfg.c **** * Parameters:  
 418:Generated_Source\PSoC5/cyfitter_cfg.c **** *   channel - The mux channel input to set as active
 419:Generated_Source\PSoC5/cyfitter_cfg.c **** *
 420:Generated_Source\PSoC5/cyfitter_cfg.c **** * Return:
 421:Generated_Source\PSoC5/cyfitter_cfg.c **** *   void
 422:Generated_Source\PSoC5/cyfitter_cfg.c **** *
 423:Generated_Source\PSoC5/cyfitter_cfg.c **** *******************************************************************************/
 424:Generated_Source\PSoC5/cyfitter_cfg.c **** void AMux_1_Set(uint8 channel)
 425:Generated_Source\PSoC5/cyfitter_cfg.c **** {
 574              		.loc 1 425 0
 575              		.cfi_startproc
 576              		@ args = 0, pretend = 0, frame = 0
 577              		@ frame_needed = 0, uses_anonymous_args = 0
 578              		@ link register save eliminated.
 579              	.LVL36:
 426:Generated_Source\PSoC5/cyfitter_cfg.c **** 	if (channel < 3)
 580              		.loc 1 426 0
 581 0000 0228     		cmp	r0, #2
 582 0002 14D8     		bhi	.L34
 425:Generated_Source\PSoC5/cyfitter_cfg.c **** 	if (channel < 3)
 583              		.loc 1 425 0
 584 0004 10B4     		push	{r4}
 585              		.cfi_def_cfa_offset 4
 586              		.cfi_offset 4, -4
 427:Generated_Source\PSoC5/cyfitter_cfg.c **** 	{
 428:Generated_Source\PSoC5/cyfitter_cfg.c **** 		channel += channel;
 587              		.loc 1 428 0
 588 0006 4000     		lsls	r0, r0, #1
 589              	.LVL37:
 590 0008 C0B2     		uxtb	r0, r0
 591              	.LVL38:
 429:Generated_Source\PSoC5/cyfitter_cfg.c **** 		*AMux_1__addrTable[channel] |= AMux_1__maskTable[channel];
 592              		.loc 1 429 0
 593 000a 094B     		ldr	r3, .L35
 594 000c 53F82010 		ldr	r1, [r3, r0, lsl #2]
 595 0010 1A18     		adds	r2, r3, r0
 596 0012 147E     		ldrb	r4, [r2, #24]	@ zero_extendqisi2
 597 0014 0A78     		ldrb	r2, [r1]	@ zero_extendqisi2
 598 0016 2243     		orrs	r2, r2, r4
 599 0018 0A70     		strb	r2, [r1]
 430:Generated_Source\PSoC5/cyfitter_cfg.c **** 		channel++;
 600              		.loc 1 430 0
 601 001a 0130     		adds	r0, r0, #1
 602              	.LVL39:
 603 001c C0B2     		uxtb	r0, r0
 604              	.LVL40:
 431:Generated_Source\PSoC5/cyfitter_cfg.c **** 		*AMux_1__addrTable[channel] |= AMux_1__maskTable[channel];
 605              		.loc 1 431 0
 606 001e 53F82020 		ldr	r2, [r3, r0, lsl #2]
ARM GAS  C:\Users\user\AppData\Local\Temp\cc7jhrgg.s 			page 20


 607 0022 1844     		add	r0, r0, r3
 608              	.LVL41:
 609 0024 017E     		ldrb	r1, [r0, #24]	@ zero_extendqisi2
 610 0026 1378     		ldrb	r3, [r2]	@ zero_extendqisi2
 611 0028 0B43     		orrs	r3, r3, r1
 612 002a 1370     		strb	r3, [r2]
 432:Generated_Source\PSoC5/cyfitter_cfg.c **** 	}
 433:Generated_Source\PSoC5/cyfitter_cfg.c **** }
 613              		.loc 1 433 0
 614 002c 10BC     		pop	{r4}
 615              		.cfi_restore 4
 616              		.cfi_def_cfa_offset 0
 617              	.LVL42:
 618              	.L34:
 619 002e 7047     		bx	lr
 620              	.L36:
 621              		.align	2
 622              	.L35:
 623 0030 00000000 		.word	.LANCHOR0
 624              		.cfi_endproc
 625              	.LFE8:
 626              		.size	AMux_1_Set, .-AMux_1_Set
 627              		.section	.text.AMux_1_Unset,"ax",%progbits
 628              		.align	2
 629              		.global	AMux_1_Unset
 630              		.thumb
 631              		.thumb_func
 632              		.type	AMux_1_Unset, %function
 633              	AMux_1_Unset:
 634              	.LFB9:
 434:Generated_Source\PSoC5/cyfitter_cfg.c **** 
 435:Generated_Source\PSoC5/cyfitter_cfg.c **** /*******************************************************************************
 436:Generated_Source\PSoC5/cyfitter_cfg.c **** * Function Name: AMux_1_Unset
 437:Generated_Source\PSoC5/cyfitter_cfg.c **** ********************************************************************************
 438:Generated_Source\PSoC5/cyfitter_cfg.c **** * Summary:
 439:Generated_Source\PSoC5/cyfitter_cfg.c **** *  This function is used to clear a particular channel from being active on the
 440:Generated_Source\PSoC5/cyfitter_cfg.c **** *  AMux.
 441:Generated_Source\PSoC5/cyfitter_cfg.c **** *
 442:Generated_Source\PSoC5/cyfitter_cfg.c **** * Parameters:  
 443:Generated_Source\PSoC5/cyfitter_cfg.c **** *   channel - The mux channel input to mark inactive
 444:Generated_Source\PSoC5/cyfitter_cfg.c **** *
 445:Generated_Source\PSoC5/cyfitter_cfg.c **** * Return:
 446:Generated_Source\PSoC5/cyfitter_cfg.c **** *   void
 447:Generated_Source\PSoC5/cyfitter_cfg.c **** *
 448:Generated_Source\PSoC5/cyfitter_cfg.c **** *******************************************************************************/
 449:Generated_Source\PSoC5/cyfitter_cfg.c **** void AMux_1_Unset(uint8 channel)
 450:Generated_Source\PSoC5/cyfitter_cfg.c **** {
 635              		.loc 1 450 0
 636              		.cfi_startproc
 637              		@ args = 0, pretend = 0, frame = 0
 638              		@ frame_needed = 0, uses_anonymous_args = 0
 639              		@ link register save eliminated.
 640              	.LVL43:
 451:Generated_Source\PSoC5/cyfitter_cfg.c **** 	if (channel < 3)
 641              		.loc 1 451 0
 642 0000 0228     		cmp	r0, #2
 643 0002 16D8     		bhi	.L41
ARM GAS  C:\Users\user\AppData\Local\Temp\cc7jhrgg.s 			page 21


 450:Generated_Source\PSoC5/cyfitter_cfg.c **** 	if (channel < 3)
 644              		.loc 1 450 0
 645 0004 10B4     		push	{r4}
 646              		.cfi_def_cfa_offset 4
 647              		.cfi_offset 4, -4
 452:Generated_Source\PSoC5/cyfitter_cfg.c **** 	{
 453:Generated_Source\PSoC5/cyfitter_cfg.c **** 		channel += channel;
 648              		.loc 1 453 0
 649 0006 4000     		lsls	r0, r0, #1
 650              	.LVL44:
 651 0008 C0B2     		uxtb	r0, r0
 652              	.LVL45:
 454:Generated_Source\PSoC5/cyfitter_cfg.c **** 		*AMux_1__addrTable[channel] &= (uint8)~AMux_1__maskTable[channel];
 653              		.loc 1 454 0
 654 000a 0A4B     		ldr	r3, .L42
 655 000c 53F82010 		ldr	r1, [r3, r0, lsl #2]
 656 0010 1A18     		adds	r2, r3, r0
 657 0012 147E     		ldrb	r4, [r2, #24]	@ zero_extendqisi2
 658 0014 0A78     		ldrb	r2, [r1]	@ zero_extendqisi2
 659 0016 22EA0402 		bic	r2, r2, r4
 660 001a 0A70     		strb	r2, [r1]
 455:Generated_Source\PSoC5/cyfitter_cfg.c **** 		channel++;
 661              		.loc 1 455 0
 662 001c 0130     		adds	r0, r0, #1
 663              	.LVL46:
 664 001e C0B2     		uxtb	r0, r0
 665              	.LVL47:
 456:Generated_Source\PSoC5/cyfitter_cfg.c **** 		*AMux_1__addrTable[channel] &= (uint8)~AMux_1__maskTable[channel];
 666              		.loc 1 456 0
 667 0020 53F82020 		ldr	r2, [r3, r0, lsl #2]
 668 0024 1844     		add	r0, r0, r3
 669              	.LVL48:
 670 0026 017E     		ldrb	r1, [r0, #24]	@ zero_extendqisi2
 671 0028 1378     		ldrb	r3, [r2]	@ zero_extendqisi2
 672 002a 23EA0103 		bic	r3, r3, r1
 673 002e 1370     		strb	r3, [r2]
 457:Generated_Source\PSoC5/cyfitter_cfg.c **** 	}
 458:Generated_Source\PSoC5/cyfitter_cfg.c **** }
 674              		.loc 1 458 0
 675 0030 10BC     		pop	{r4}
 676              		.cfi_restore 4
 677              		.cfi_def_cfa_offset 0
 678              	.LVL49:
 679              	.L41:
 680 0032 7047     		bx	lr
 681              	.L43:
 682              		.align	2
 683              	.L42:
 684 0034 00000000 		.word	.LANCHOR0
 685              		.cfi_endproc
 686              	.LFE9:
 687              		.size	AMux_1_Unset, .-AMux_1_Unset
 688              		.section	.text.PowerMonitor_1_PM_AMux_Current_Set,"ax",%progbits
 689              		.align	2
 690              		.global	PowerMonitor_1_PM_AMux_Current_Set
 691              		.thumb
 692              		.thumb_func
ARM GAS  C:\Users\user\AppData\Local\Temp\cc7jhrgg.s 			page 22


 693              		.type	PowerMonitor_1_PM_AMux_Current_Set, %function
 694              	PowerMonitor_1_PM_AMux_Current_Set:
 695              	.LFB10:
 459:Generated_Source\PSoC5/cyfitter_cfg.c **** 
 460:Generated_Source\PSoC5/cyfitter_cfg.c **** /* This is an implementation detail of the AMux. Code that depends on it may be
 461:Generated_Source\PSoC5/cyfitter_cfg.c ****    incompatible with other versions of PSoC Creator. */
 462:Generated_Source\PSoC5/cyfitter_cfg.c **** uint8 CYXDATA * const CYCODE PowerMonitor_1_PM_AMux_Current__addrTable[76] = {
 463:Generated_Source\PSoC5/cyfitter_cfg.c **** 	(uint8 CYXDATA *)CYREG_PRT0_AG, (uint8 CYXDATA *)CY_AMUX_UNUSED, 
 464:Generated_Source\PSoC5/cyfitter_cfg.c **** 	(uint8 CYXDATA *)CYREG_DAC2_SW3, (uint8 CYXDATA *)CYREG_DAC2_SW4, 
 465:Generated_Source\PSoC5/cyfitter_cfg.c **** 	(uint8 CYXDATA *)CYREG_DSM0_SW3, (uint8 CYXDATA *)CY_AMUX_UNUSED, 
 466:Generated_Source\PSoC5/cyfitter_cfg.c **** 	(uint8 CYXDATA *)CYREG_DSM0_SW3, (uint8 CYXDATA *)CY_AMUX_UNUSED, 
 467:Generated_Source\PSoC5/cyfitter_cfg.c **** 	(uint8 CYXDATA *)CYREG_DSM0_SW3, (uint8 CYXDATA *)CY_AMUX_UNUSED, 
 468:Generated_Source\PSoC5/cyfitter_cfg.c **** 	(uint8 CYXDATA *)CYREG_DSM0_SW3, (uint8 CYXDATA *)CY_AMUX_UNUSED, 
 469:Generated_Source\PSoC5/cyfitter_cfg.c **** 	(uint8 CYXDATA *)CYREG_DSM0_SW3, (uint8 CYXDATA *)CY_AMUX_UNUSED, 
 470:Generated_Source\PSoC5/cyfitter_cfg.c **** 	(uint8 CYXDATA *)CYREG_DSM0_SW3, (uint8 CYXDATA *)CY_AMUX_UNUSED, 
 471:Generated_Source\PSoC5/cyfitter_cfg.c **** 	(uint8 CYXDATA *)CYREG_DSM0_SW3, (uint8 CYXDATA *)CY_AMUX_UNUSED, 
 472:Generated_Source\PSoC5/cyfitter_cfg.c **** 	(uint8 CYXDATA *)CYREG_DSM0_SW3, (uint8 CYXDATA *)CY_AMUX_UNUSED, 
 473:Generated_Source\PSoC5/cyfitter_cfg.c **** 	(uint8 CYXDATA *)CYREG_DSM0_SW3, (uint8 CYXDATA *)CY_AMUX_UNUSED, 
 474:Generated_Source\PSoC5/cyfitter_cfg.c **** 	(uint8 CYXDATA *)CYREG_DSM0_SW3, (uint8 CYXDATA *)CY_AMUX_UNUSED, 
 475:Generated_Source\PSoC5/cyfitter_cfg.c **** 	(uint8 CYXDATA *)CYREG_DSM0_SW3, (uint8 CYXDATA *)CY_AMUX_UNUSED, 
 476:Generated_Source\PSoC5/cyfitter_cfg.c **** 	(uint8 CYXDATA *)CYREG_DSM0_SW3, (uint8 CYXDATA *)CY_AMUX_UNUSED, 
 477:Generated_Source\PSoC5/cyfitter_cfg.c **** 	(uint8 CYXDATA *)CYREG_DSM0_SW3, (uint8 CYXDATA *)CY_AMUX_UNUSED, 
 478:Generated_Source\PSoC5/cyfitter_cfg.c **** 	(uint8 CYXDATA *)CYREG_DSM0_SW3, (uint8 CYXDATA *)CY_AMUX_UNUSED, 
 479:Generated_Source\PSoC5/cyfitter_cfg.c **** 	(uint8 CYXDATA *)CYREG_DSM0_SW3, (uint8 CYXDATA *)CY_AMUX_UNUSED, 
 480:Generated_Source\PSoC5/cyfitter_cfg.c **** 	(uint8 CYXDATA *)CYREG_DSM0_SW3, (uint8 CYXDATA *)CY_AMUX_UNUSED, 
 481:Generated_Source\PSoC5/cyfitter_cfg.c **** 	(uint8 CYXDATA *)CYREG_DSM0_SW3, (uint8 CYXDATA *)CY_AMUX_UNUSED, 
 482:Generated_Source\PSoC5/cyfitter_cfg.c **** 	(uint8 CYXDATA *)CYREG_DSM0_SW3, (uint8 CYXDATA *)CY_AMUX_UNUSED, 
 483:Generated_Source\PSoC5/cyfitter_cfg.c **** 	(uint8 CYXDATA *)CYREG_DSM0_SW3, (uint8 CYXDATA *)CY_AMUX_UNUSED, 
 484:Generated_Source\PSoC5/cyfitter_cfg.c **** 	(uint8 CYXDATA *)CYREG_DSM0_SW3, (uint8 CYXDATA *)CY_AMUX_UNUSED, 
 485:Generated_Source\PSoC5/cyfitter_cfg.c **** 	(uint8 CYXDATA *)CYREG_DSM0_SW3, (uint8 CYXDATA *)CY_AMUX_UNUSED, 
 486:Generated_Source\PSoC5/cyfitter_cfg.c **** 	(uint8 CYXDATA *)CYREG_DSM0_SW3, (uint8 CYXDATA *)CY_AMUX_UNUSED, 
 487:Generated_Source\PSoC5/cyfitter_cfg.c **** 	(uint8 CYXDATA *)CYREG_DSM0_SW3, (uint8 CYXDATA *)CY_AMUX_UNUSED, 
 488:Generated_Source\PSoC5/cyfitter_cfg.c **** 	(uint8 CYXDATA *)CYREG_DSM0_SW3, (uint8 CYXDATA *)CY_AMUX_UNUSED, 
 489:Generated_Source\PSoC5/cyfitter_cfg.c **** 	(uint8 CYXDATA *)CYREG_DSM0_SW3, (uint8 CYXDATA *)CY_AMUX_UNUSED, 
 490:Generated_Source\PSoC5/cyfitter_cfg.c **** 	(uint8 CYXDATA *)CYREG_DSM0_SW3, (uint8 CYXDATA *)CY_AMUX_UNUSED, 
 491:Generated_Source\PSoC5/cyfitter_cfg.c **** 	(uint8 CYXDATA *)CYREG_DSM0_SW3, (uint8 CYXDATA *)CY_AMUX_UNUSED, 
 492:Generated_Source\PSoC5/cyfitter_cfg.c **** 	(uint8 CYXDATA *)CYREG_DSM0_SW3, (uint8 CYXDATA *)CY_AMUX_UNUSED, 
 493:Generated_Source\PSoC5/cyfitter_cfg.c **** 	(uint8 CYXDATA *)CYREG_DSM0_SW3, (uint8 CYXDATA *)CY_AMUX_UNUSED, 
 494:Generated_Source\PSoC5/cyfitter_cfg.c **** 	(uint8 CYXDATA *)CYREG_DSM0_SW3, (uint8 CYXDATA *)CY_AMUX_UNUSED, 
 495:Generated_Source\PSoC5/cyfitter_cfg.c **** 	(uint8 CYXDATA *)CYREG_DSM0_SW3, (uint8 CYXDATA *)CY_AMUX_UNUSED, 
 496:Generated_Source\PSoC5/cyfitter_cfg.c **** 	(uint8 CYXDATA *)CYREG_DSM0_SW3, (uint8 CYXDATA *)CY_AMUX_UNUSED, 
 497:Generated_Source\PSoC5/cyfitter_cfg.c **** 	(uint8 CYXDATA *)CYREG_DSM0_SW3, (uint8 CYXDATA *)CY_AMUX_UNUSED, 
 498:Generated_Source\PSoC5/cyfitter_cfg.c **** 	(uint8 CYXDATA *)CYREG_DSM0_SW3, (uint8 CYXDATA *)CY_AMUX_UNUSED, 
 499:Generated_Source\PSoC5/cyfitter_cfg.c **** 	(uint8 CYXDATA *)CYREG_DSM0_SW3, (uint8 CYXDATA *)CY_AMUX_UNUSED, 
 500:Generated_Source\PSoC5/cyfitter_cfg.c **** 	(uint8 CYXDATA *)CYREG_SC0_SW10, (uint8 CYXDATA *)CYREG_DSM0_SW6, 
 501:Generated_Source\PSoC5/cyfitter_cfg.c **** };
 502:Generated_Source\PSoC5/cyfitter_cfg.c **** 
 503:Generated_Source\PSoC5/cyfitter_cfg.c **** /* This is an implementation detail of the AMux. Code that depends on it may be
 504:Generated_Source\PSoC5/cyfitter_cfg.c ****    incompatible with other versions of PSoC Creator. */
 505:Generated_Source\PSoC5/cyfitter_cfg.c **** const uint8 CYCODE PowerMonitor_1_PM_AMux_Current__maskTable[76] = {
 506:Generated_Source\PSoC5/cyfitter_cfg.c **** 	0x20u, 0x00u, 
 507:Generated_Source\PSoC5/cyfitter_cfg.c **** 	0x80u, 0x20u, 
 508:Generated_Source\PSoC5/cyfitter_cfg.c **** 	0x40u, 0x00u, 
 509:Generated_Source\PSoC5/cyfitter_cfg.c **** 	0x40u, 0x00u, 
 510:Generated_Source\PSoC5/cyfitter_cfg.c **** 	0x40u, 0x00u, 
 511:Generated_Source\PSoC5/cyfitter_cfg.c **** 	0x40u, 0x00u, 
 512:Generated_Source\PSoC5/cyfitter_cfg.c **** 	0x40u, 0x00u, 
ARM GAS  C:\Users\user\AppData\Local\Temp\cc7jhrgg.s 			page 23


 513:Generated_Source\PSoC5/cyfitter_cfg.c **** 	0x40u, 0x00u, 
 514:Generated_Source\PSoC5/cyfitter_cfg.c **** 	0x40u, 0x00u, 
 515:Generated_Source\PSoC5/cyfitter_cfg.c **** 	0x40u, 0x00u, 
 516:Generated_Source\PSoC5/cyfitter_cfg.c **** 	0x40u, 0x00u, 
 517:Generated_Source\PSoC5/cyfitter_cfg.c **** 	0x40u, 0x00u, 
 518:Generated_Source\PSoC5/cyfitter_cfg.c **** 	0x40u, 0x00u, 
 519:Generated_Source\PSoC5/cyfitter_cfg.c **** 	0x40u, 0x00u, 
 520:Generated_Source\PSoC5/cyfitter_cfg.c **** 	0x40u, 0x00u, 
 521:Generated_Source\PSoC5/cyfitter_cfg.c **** 	0x40u, 0x00u, 
 522:Generated_Source\PSoC5/cyfitter_cfg.c **** 	0x40u, 0x00u, 
 523:Generated_Source\PSoC5/cyfitter_cfg.c **** 	0x40u, 0x00u, 
 524:Generated_Source\PSoC5/cyfitter_cfg.c **** 	0x40u, 0x00u, 
 525:Generated_Source\PSoC5/cyfitter_cfg.c **** 	0x40u, 0x00u, 
 526:Generated_Source\PSoC5/cyfitter_cfg.c **** 	0x40u, 0x00u, 
 527:Generated_Source\PSoC5/cyfitter_cfg.c **** 	0x40u, 0x00u, 
 528:Generated_Source\PSoC5/cyfitter_cfg.c **** 	0x40u, 0x00u, 
 529:Generated_Source\PSoC5/cyfitter_cfg.c **** 	0x40u, 0x00u, 
 530:Generated_Source\PSoC5/cyfitter_cfg.c **** 	0x40u, 0x00u, 
 531:Generated_Source\PSoC5/cyfitter_cfg.c **** 	0x40u, 0x00u, 
 532:Generated_Source\PSoC5/cyfitter_cfg.c **** 	0x40u, 0x00u, 
 533:Generated_Source\PSoC5/cyfitter_cfg.c **** 	0x40u, 0x00u, 
 534:Generated_Source\PSoC5/cyfitter_cfg.c **** 	0x40u, 0x00u, 
 535:Generated_Source\PSoC5/cyfitter_cfg.c **** 	0x40u, 0x00u, 
 536:Generated_Source\PSoC5/cyfitter_cfg.c **** 	0x40u, 0x00u, 
 537:Generated_Source\PSoC5/cyfitter_cfg.c **** 	0x40u, 0x00u, 
 538:Generated_Source\PSoC5/cyfitter_cfg.c **** 	0x40u, 0x00u, 
 539:Generated_Source\PSoC5/cyfitter_cfg.c **** 	0x40u, 0x00u, 
 540:Generated_Source\PSoC5/cyfitter_cfg.c **** 	0x40u, 0x00u, 
 541:Generated_Source\PSoC5/cyfitter_cfg.c **** 	0x40u, 0x00u, 
 542:Generated_Source\PSoC5/cyfitter_cfg.c **** 	0x40u, 0x00u, 
 543:Generated_Source\PSoC5/cyfitter_cfg.c **** 	0x02u, 0x02u, 
 544:Generated_Source\PSoC5/cyfitter_cfg.c **** };
 545:Generated_Source\PSoC5/cyfitter_cfg.c **** 
 546:Generated_Source\PSoC5/cyfitter_cfg.c **** /*******************************************************************************
 547:Generated_Source\PSoC5/cyfitter_cfg.c **** * Function Name: PowerMonitor_1_PM_AMux_Current_Set
 548:Generated_Source\PSoC5/cyfitter_cfg.c **** ********************************************************************************
 549:Generated_Source\PSoC5/cyfitter_cfg.c **** * Summary:
 550:Generated_Source\PSoC5/cyfitter_cfg.c **** *  This function is used to set a particular channel as active on the AMux.
 551:Generated_Source\PSoC5/cyfitter_cfg.c **** *
 552:Generated_Source\PSoC5/cyfitter_cfg.c **** * Parameters:  
 553:Generated_Source\PSoC5/cyfitter_cfg.c **** *   channel - The mux channel input to set as active
 554:Generated_Source\PSoC5/cyfitter_cfg.c **** *
 555:Generated_Source\PSoC5/cyfitter_cfg.c **** * Return:
 556:Generated_Source\PSoC5/cyfitter_cfg.c **** *   void
 557:Generated_Source\PSoC5/cyfitter_cfg.c **** *
 558:Generated_Source\PSoC5/cyfitter_cfg.c **** *******************************************************************************/
 559:Generated_Source\PSoC5/cyfitter_cfg.c **** void PowerMonitor_1_PM_AMux_Current_Set(uint8 channel)
 560:Generated_Source\PSoC5/cyfitter_cfg.c **** {
 696              		.loc 1 560 0
 697              		.cfi_startproc
 698              		@ args = 0, pretend = 0, frame = 0
 699              		@ frame_needed = 0, uses_anonymous_args = 0
 700              		@ link register save eliminated.
 701              	.LVL50:
 561:Generated_Source\PSoC5/cyfitter_cfg.c **** 	if (channel < 38)
 702              		.loc 1 561 0
 703 0000 2528     		cmp	r0, #37
ARM GAS  C:\Users\user\AppData\Local\Temp\cc7jhrgg.s 			page 24


 704 0002 18D8     		bhi	.L48
 560:Generated_Source\PSoC5/cyfitter_cfg.c **** 	if (channel < 38)
 705              		.loc 1 560 0
 706 0004 10B4     		push	{r4}
 707              		.cfi_def_cfa_offset 4
 708              		.cfi_offset 4, -4
 562:Generated_Source\PSoC5/cyfitter_cfg.c **** 	{
 563:Generated_Source\PSoC5/cyfitter_cfg.c **** 		channel += channel;
 709              		.loc 1 563 0
 710 0006 4000     		lsls	r0, r0, #1
 711              	.LVL51:
 712 0008 C0B2     		uxtb	r0, r0
 713              	.LVL52:
 564:Generated_Source\PSoC5/cyfitter_cfg.c **** 		*PowerMonitor_1_PM_AMux_Current__addrTable[channel] |= PowerMonitor_1_PM_AMux_Current__maskTable[
 714              		.loc 1 564 0
 715 000a 0B4B     		ldr	r3, .L49
 716 000c 03EB8002 		add	r2, r3, r0, lsl #2
 717 0010 116A     		ldr	r1, [r2, #32]
 718 0012 1A18     		adds	r2, r3, r0
 719 0014 92F85041 		ldrb	r4, [r2, #336]	@ zero_extendqisi2
 720 0018 0A78     		ldrb	r2, [r1]	@ zero_extendqisi2
 721 001a 2243     		orrs	r2, r2, r4
 722 001c 0A70     		strb	r2, [r1]
 565:Generated_Source\PSoC5/cyfitter_cfg.c **** 		channel++;
 723              		.loc 1 565 0
 724 001e 0130     		adds	r0, r0, #1
 725              	.LVL53:
 726 0020 C0B2     		uxtb	r0, r0
 727              	.LVL54:
 566:Generated_Source\PSoC5/cyfitter_cfg.c **** 		*PowerMonitor_1_PM_AMux_Current__addrTable[channel] |= PowerMonitor_1_PM_AMux_Current__maskTable[
 728              		.loc 1 566 0
 729 0022 03EB8002 		add	r2, r3, r0, lsl #2
 730 0026 126A     		ldr	r2, [r2, #32]
 731 0028 1844     		add	r0, r0, r3
 732              	.LVL55:
 733 002a 90F85011 		ldrb	r1, [r0, #336]	@ zero_extendqisi2
 734 002e 1378     		ldrb	r3, [r2]	@ zero_extendqisi2
 735 0030 0B43     		orrs	r3, r3, r1
 736 0032 1370     		strb	r3, [r2]
 567:Generated_Source\PSoC5/cyfitter_cfg.c **** 	}
 568:Generated_Source\PSoC5/cyfitter_cfg.c **** }
 737              		.loc 1 568 0
 738 0034 10BC     		pop	{r4}
 739              		.cfi_restore 4
 740              		.cfi_def_cfa_offset 0
 741              	.LVL56:
 742              	.L48:
 743 0036 7047     		bx	lr
 744              	.L50:
 745              		.align	2
 746              	.L49:
 747 0038 00000000 		.word	.LANCHOR0
 748              		.cfi_endproc
 749              	.LFE10:
 750              		.size	PowerMonitor_1_PM_AMux_Current_Set, .-PowerMonitor_1_PM_AMux_Current_Set
 751              		.section	.text.PowerMonitor_1_PM_AMux_Current_Unset,"ax",%progbits
 752              		.align	2
ARM GAS  C:\Users\user\AppData\Local\Temp\cc7jhrgg.s 			page 25


 753              		.global	PowerMonitor_1_PM_AMux_Current_Unset
 754              		.thumb
 755              		.thumb_func
 756              		.type	PowerMonitor_1_PM_AMux_Current_Unset, %function
 757              	PowerMonitor_1_PM_AMux_Current_Unset:
 758              	.LFB11:
 569:Generated_Source\PSoC5/cyfitter_cfg.c **** 
 570:Generated_Source\PSoC5/cyfitter_cfg.c **** /*******************************************************************************
 571:Generated_Source\PSoC5/cyfitter_cfg.c **** * Function Name: PowerMonitor_1_PM_AMux_Current_Unset
 572:Generated_Source\PSoC5/cyfitter_cfg.c **** ********************************************************************************
 573:Generated_Source\PSoC5/cyfitter_cfg.c **** * Summary:
 574:Generated_Source\PSoC5/cyfitter_cfg.c **** *  This function is used to clear a particular channel from being active on the
 575:Generated_Source\PSoC5/cyfitter_cfg.c **** *  AMux.
 576:Generated_Source\PSoC5/cyfitter_cfg.c **** *
 577:Generated_Source\PSoC5/cyfitter_cfg.c **** * Parameters:  
 578:Generated_Source\PSoC5/cyfitter_cfg.c **** *   channel - The mux channel input to mark inactive
 579:Generated_Source\PSoC5/cyfitter_cfg.c **** *
 580:Generated_Source\PSoC5/cyfitter_cfg.c **** * Return:
 581:Generated_Source\PSoC5/cyfitter_cfg.c **** *   void
 582:Generated_Source\PSoC5/cyfitter_cfg.c **** *
 583:Generated_Source\PSoC5/cyfitter_cfg.c **** *******************************************************************************/
 584:Generated_Source\PSoC5/cyfitter_cfg.c **** void PowerMonitor_1_PM_AMux_Current_Unset(uint8 channel)
 585:Generated_Source\PSoC5/cyfitter_cfg.c **** {
 759              		.loc 1 585 0
 760              		.cfi_startproc
 761              		@ args = 0, pretend = 0, frame = 0
 762              		@ frame_needed = 0, uses_anonymous_args = 0
 763              		@ link register save eliminated.
 764              	.LVL57:
 586:Generated_Source\PSoC5/cyfitter_cfg.c **** 	if (channel < 38)
 765              		.loc 1 586 0
 766 0000 2528     		cmp	r0, #37
 767 0002 1AD8     		bhi	.L55
 585:Generated_Source\PSoC5/cyfitter_cfg.c **** 	if (channel < 38)
 768              		.loc 1 585 0
 769 0004 10B4     		push	{r4}
 770              		.cfi_def_cfa_offset 4
 771              		.cfi_offset 4, -4
 587:Generated_Source\PSoC5/cyfitter_cfg.c **** 	{
 588:Generated_Source\PSoC5/cyfitter_cfg.c **** 		channel += channel;
 772              		.loc 1 588 0
 773 0006 4000     		lsls	r0, r0, #1
 774              	.LVL58:
 775 0008 C0B2     		uxtb	r0, r0
 776              	.LVL59:
 589:Generated_Source\PSoC5/cyfitter_cfg.c **** 		*PowerMonitor_1_PM_AMux_Current__addrTable[channel] &= (uint8)~PowerMonitor_1_PM_AMux_Current__ma
 777              		.loc 1 589 0
 778 000a 0C4B     		ldr	r3, .L56
 779 000c 03EB8002 		add	r2, r3, r0, lsl #2
 780 0010 116A     		ldr	r1, [r2, #32]
 781 0012 1A18     		adds	r2, r3, r0
 782 0014 92F85041 		ldrb	r4, [r2, #336]	@ zero_extendqisi2
 783 0018 0A78     		ldrb	r2, [r1]	@ zero_extendqisi2
 784 001a 22EA0402 		bic	r2, r2, r4
 785 001e 0A70     		strb	r2, [r1]
 590:Generated_Source\PSoC5/cyfitter_cfg.c **** 		channel++;
 786              		.loc 1 590 0
ARM GAS  C:\Users\user\AppData\Local\Temp\cc7jhrgg.s 			page 26


 787 0020 0130     		adds	r0, r0, #1
 788              	.LVL60:
 789 0022 C0B2     		uxtb	r0, r0
 790              	.LVL61:
 591:Generated_Source\PSoC5/cyfitter_cfg.c **** 		*PowerMonitor_1_PM_AMux_Current__addrTable[channel] &= (uint8)~PowerMonitor_1_PM_AMux_Current__ma
 791              		.loc 1 591 0
 792 0024 03EB8002 		add	r2, r3, r0, lsl #2
 793 0028 126A     		ldr	r2, [r2, #32]
 794 002a 1844     		add	r0, r0, r3
 795              	.LVL62:
 796 002c 90F85011 		ldrb	r1, [r0, #336]	@ zero_extendqisi2
 797 0030 1378     		ldrb	r3, [r2]	@ zero_extendqisi2
 798 0032 23EA0103 		bic	r3, r3, r1
 799 0036 1370     		strb	r3, [r2]
 592:Generated_Source\PSoC5/cyfitter_cfg.c **** 	}
 593:Generated_Source\PSoC5/cyfitter_cfg.c **** }
 800              		.loc 1 593 0
 801 0038 10BC     		pop	{r4}
 802              		.cfi_restore 4
 803              		.cfi_def_cfa_offset 0
 804              	.LVL63:
 805              	.L55:
 806 003a 7047     		bx	lr
 807              	.L57:
 808              		.align	2
 809              	.L56:
 810 003c 00000000 		.word	.LANCHOR0
 811              		.cfi_endproc
 812              	.LFE11:
 813              		.size	PowerMonitor_1_PM_AMux_Current_Unset, .-PowerMonitor_1_PM_AMux_Current_Unset
 814              		.section	.text.PowerMonitor_1_PM_AMux_Voltage_Set,"ax",%progbits
 815              		.align	2
 816              		.global	PowerMonitor_1_PM_AMux_Voltage_Set
 817              		.thumb
 818              		.thumb_func
 819              		.type	PowerMonitor_1_PM_AMux_Voltage_Set, %function
 820              	PowerMonitor_1_PM_AMux_Voltage_Set:
 821              	.LFB12:
 594:Generated_Source\PSoC5/cyfitter_cfg.c **** 
 595:Generated_Source\PSoC5/cyfitter_cfg.c **** /* This is an implementation detail of the AMux. Code that depends on it may be
 596:Generated_Source\PSoC5/cyfitter_cfg.c ****    incompatible with other versions of PSoC Creator. */
 597:Generated_Source\PSoC5/cyfitter_cfg.c **** uint8 CYXDATA * const CYCODE PowerMonitor_1_PM_AMux_Voltage__addrTable[138] = {
 598:Generated_Source\PSoC5/cyfitter_cfg.c **** 	(uint8 CYXDATA *)CYREG_PRT0_AG, (uint8 CYXDATA *)CYREG_DSM0_SW0, 
 599:Generated_Source\PSoC5/cyfitter_cfg.c **** 	(uint8 CYXDATA *)CYREG_PRT2_AG, (uint8 CYXDATA *)CYREG_DSM0_SW0, 
 600:Generated_Source\PSoC5/cyfitter_cfg.c **** 	(uint8 CYXDATA *)CYREG_DSM0_SW3, (uint8 CYXDATA *)CY_AMUX_UNUSED, 
 601:Generated_Source\PSoC5/cyfitter_cfg.c **** 	(uint8 CYXDATA *)CYREG_DSM0_SW3, (uint8 CYXDATA *)CY_AMUX_UNUSED, 
 602:Generated_Source\PSoC5/cyfitter_cfg.c **** 	(uint8 CYXDATA *)CYREG_DSM0_SW3, (uint8 CYXDATA *)CY_AMUX_UNUSED, 
 603:Generated_Source\PSoC5/cyfitter_cfg.c **** 	(uint8 CYXDATA *)CYREG_DSM0_SW3, (uint8 CYXDATA *)CY_AMUX_UNUSED, 
 604:Generated_Source\PSoC5/cyfitter_cfg.c **** 	(uint8 CYXDATA *)CYREG_DSM0_SW3, (uint8 CYXDATA *)CY_AMUX_UNUSED, 
 605:Generated_Source\PSoC5/cyfitter_cfg.c **** 	(uint8 CYXDATA *)CYREG_DSM0_SW3, (uint8 CYXDATA *)CY_AMUX_UNUSED, 
 606:Generated_Source\PSoC5/cyfitter_cfg.c **** 	(uint8 CYXDATA *)CYREG_DSM0_SW3, (uint8 CYXDATA *)CY_AMUX_UNUSED, 
 607:Generated_Source\PSoC5/cyfitter_cfg.c **** 	(uint8 CYXDATA *)CYREG_DSM0_SW3, (uint8 CYXDATA *)CY_AMUX_UNUSED, 
 608:Generated_Source\PSoC5/cyfitter_cfg.c **** 	(uint8 CYXDATA *)CYREG_DSM0_SW3, (uint8 CYXDATA *)CY_AMUX_UNUSED, 
 609:Generated_Source\PSoC5/cyfitter_cfg.c **** 	(uint8 CYXDATA *)CYREG_DSM0_SW3, (uint8 CYXDATA *)CY_AMUX_UNUSED, 
 610:Generated_Source\PSoC5/cyfitter_cfg.c **** 	(uint8 CYXDATA *)CYREG_DSM0_SW3, (uint8 CYXDATA *)CY_AMUX_UNUSED, 
 611:Generated_Source\PSoC5/cyfitter_cfg.c **** 	(uint8 CYXDATA *)CYREG_DSM0_SW3, (uint8 CYXDATA *)CY_AMUX_UNUSED, 
 612:Generated_Source\PSoC5/cyfitter_cfg.c **** 	(uint8 CYXDATA *)CYREG_DSM0_SW3, (uint8 CYXDATA *)CY_AMUX_UNUSED, 
ARM GAS  C:\Users\user\AppData\Local\Temp\cc7jhrgg.s 			page 27


 613:Generated_Source\PSoC5/cyfitter_cfg.c **** 	(uint8 CYXDATA *)CYREG_DSM0_SW3, (uint8 CYXDATA *)CY_AMUX_UNUSED, 
 614:Generated_Source\PSoC5/cyfitter_cfg.c **** 	(uint8 CYXDATA *)CYREG_DSM0_SW3, (uint8 CYXDATA *)CY_AMUX_UNUSED, 
 615:Generated_Source\PSoC5/cyfitter_cfg.c **** 	(uint8 CYXDATA *)CYREG_DSM0_SW3, (uint8 CYXDATA *)CY_AMUX_UNUSED, 
 616:Generated_Source\PSoC5/cyfitter_cfg.c **** 	(uint8 CYXDATA *)CYREG_DSM0_SW3, (uint8 CYXDATA *)CY_AMUX_UNUSED, 
 617:Generated_Source\PSoC5/cyfitter_cfg.c **** 	(uint8 CYXDATA *)CYREG_DSM0_SW3, (uint8 CYXDATA *)CY_AMUX_UNUSED, 
 618:Generated_Source\PSoC5/cyfitter_cfg.c **** 	(uint8 CYXDATA *)CYREG_DSM0_SW3, (uint8 CYXDATA *)CY_AMUX_UNUSED, 
 619:Generated_Source\PSoC5/cyfitter_cfg.c **** 	(uint8 CYXDATA *)CYREG_DSM0_SW3, (uint8 CYXDATA *)CY_AMUX_UNUSED, 
 620:Generated_Source\PSoC5/cyfitter_cfg.c **** 	(uint8 CYXDATA *)CYREG_DSM0_SW3, (uint8 CYXDATA *)CY_AMUX_UNUSED, 
 621:Generated_Source\PSoC5/cyfitter_cfg.c **** 	(uint8 CYXDATA *)CYREG_DSM0_SW3, (uint8 CYXDATA *)CY_AMUX_UNUSED, 
 622:Generated_Source\PSoC5/cyfitter_cfg.c **** 	(uint8 CYXDATA *)CYREG_DSM0_SW3, (uint8 CYXDATA *)CY_AMUX_UNUSED, 
 623:Generated_Source\PSoC5/cyfitter_cfg.c **** 	(uint8 CYXDATA *)CYREG_DSM0_SW3, (uint8 CYXDATA *)CY_AMUX_UNUSED, 
 624:Generated_Source\PSoC5/cyfitter_cfg.c **** 	(uint8 CYXDATA *)CYREG_DSM0_SW3, (uint8 CYXDATA *)CY_AMUX_UNUSED, 
 625:Generated_Source\PSoC5/cyfitter_cfg.c **** 	(uint8 CYXDATA *)CYREG_DSM0_SW3, (uint8 CYXDATA *)CY_AMUX_UNUSED, 
 626:Generated_Source\PSoC5/cyfitter_cfg.c **** 	(uint8 CYXDATA *)CYREG_DSM0_SW3, (uint8 CYXDATA *)CY_AMUX_UNUSED, 
 627:Generated_Source\PSoC5/cyfitter_cfg.c **** 	(uint8 CYXDATA *)CYREG_DSM0_SW3, (uint8 CYXDATA *)CY_AMUX_UNUSED, 
 628:Generated_Source\PSoC5/cyfitter_cfg.c **** 	(uint8 CYXDATA *)CYREG_DSM0_SW3, (uint8 CYXDATA *)CY_AMUX_UNUSED, 
 629:Generated_Source\PSoC5/cyfitter_cfg.c **** 	(uint8 CYXDATA *)CYREG_DSM0_SW3, (uint8 CYXDATA *)CY_AMUX_UNUSED, 
 630:Generated_Source\PSoC5/cyfitter_cfg.c **** 	(uint8 CYXDATA *)CYREG_DSM0_SW3, (uint8 CYXDATA *)CY_AMUX_UNUSED, 
 631:Generated_Source\PSoC5/cyfitter_cfg.c **** 	(uint8 CYXDATA *)CYREG_DSM0_SW3, (uint8 CYXDATA *)CY_AMUX_UNUSED, 
 632:Generated_Source\PSoC5/cyfitter_cfg.c **** 	(uint8 CYXDATA *)CYREG_DSM0_SW3, (uint8 CYXDATA *)CY_AMUX_UNUSED, 
 633:Generated_Source\PSoC5/cyfitter_cfg.c **** 	(uint8 CYXDATA *)CYREG_DSM0_SW3, (uint8 CYXDATA *)CY_AMUX_UNUSED, 
 634:Generated_Source\PSoC5/cyfitter_cfg.c **** 	(uint8 CYXDATA *)CYREG_DSM0_SW3, (uint8 CYXDATA *)CY_AMUX_UNUSED, 
 635:Generated_Source\PSoC5/cyfitter_cfg.c **** 	(uint8 CYXDATA *)CYREG_DSM0_SW3, (uint8 CYXDATA *)CY_AMUX_UNUSED, 
 636:Generated_Source\PSoC5/cyfitter_cfg.c **** 	(uint8 CYXDATA *)CYREG_DSM0_SW3, (uint8 CYXDATA *)CY_AMUX_UNUSED, 
 637:Generated_Source\PSoC5/cyfitter_cfg.c **** 	(uint8 CYXDATA *)CYREG_DSM0_SW3, (uint8 CYXDATA *)CY_AMUX_UNUSED, 
 638:Generated_Source\PSoC5/cyfitter_cfg.c **** 	(uint8 CYXDATA *)CYREG_DSM0_SW3, (uint8 CYXDATA *)CY_AMUX_UNUSED, 
 639:Generated_Source\PSoC5/cyfitter_cfg.c **** 	(uint8 CYXDATA *)CYREG_DSM0_SW3, (uint8 CYXDATA *)CY_AMUX_UNUSED, 
 640:Generated_Source\PSoC5/cyfitter_cfg.c **** 	(uint8 CYXDATA *)CYREG_DSM0_SW3, (uint8 CYXDATA *)CY_AMUX_UNUSED, 
 641:Generated_Source\PSoC5/cyfitter_cfg.c **** 	(uint8 CYXDATA *)CYREG_DSM0_SW3, (uint8 CYXDATA *)CY_AMUX_UNUSED, 
 642:Generated_Source\PSoC5/cyfitter_cfg.c **** 	(uint8 CYXDATA *)CYREG_DSM0_SW3, (uint8 CYXDATA *)CY_AMUX_UNUSED, 
 643:Generated_Source\PSoC5/cyfitter_cfg.c **** 	(uint8 CYXDATA *)CYREG_DSM0_SW3, (uint8 CYXDATA *)CY_AMUX_UNUSED, 
 644:Generated_Source\PSoC5/cyfitter_cfg.c **** 	(uint8 CYXDATA *)CYREG_DSM0_SW3, (uint8 CYXDATA *)CY_AMUX_UNUSED, 
 645:Generated_Source\PSoC5/cyfitter_cfg.c **** 	(uint8 CYXDATA *)CYREG_DSM0_SW3, (uint8 CYXDATA *)CY_AMUX_UNUSED, 
 646:Generated_Source\PSoC5/cyfitter_cfg.c **** 	(uint8 CYXDATA *)CYREG_DSM0_SW3, (uint8 CYXDATA *)CY_AMUX_UNUSED, 
 647:Generated_Source\PSoC5/cyfitter_cfg.c **** 	(uint8 CYXDATA *)CYREG_DSM0_SW3, (uint8 CYXDATA *)CY_AMUX_UNUSED, 
 648:Generated_Source\PSoC5/cyfitter_cfg.c **** 	(uint8 CYXDATA *)CYREG_DSM0_SW3, (uint8 CYXDATA *)CY_AMUX_UNUSED, 
 649:Generated_Source\PSoC5/cyfitter_cfg.c **** 	(uint8 CYXDATA *)CYREG_DSM0_SW3, (uint8 CYXDATA *)CY_AMUX_UNUSED, 
 650:Generated_Source\PSoC5/cyfitter_cfg.c **** 	(uint8 CYXDATA *)CYREG_DSM0_SW3, (uint8 CYXDATA *)CY_AMUX_UNUSED, 
 651:Generated_Source\PSoC5/cyfitter_cfg.c **** 	(uint8 CYXDATA *)CYREG_DSM0_SW3, (uint8 CYXDATA *)CY_AMUX_UNUSED, 
 652:Generated_Source\PSoC5/cyfitter_cfg.c **** 	(uint8 CYXDATA *)CYREG_DSM0_SW3, (uint8 CYXDATA *)CY_AMUX_UNUSED, 
 653:Generated_Source\PSoC5/cyfitter_cfg.c **** 	(uint8 CYXDATA *)CYREG_DSM0_SW3, (uint8 CYXDATA *)CY_AMUX_UNUSED, 
 654:Generated_Source\PSoC5/cyfitter_cfg.c **** 	(uint8 CYXDATA *)CYREG_DSM0_SW3, (uint8 CYXDATA *)CY_AMUX_UNUSED, 
 655:Generated_Source\PSoC5/cyfitter_cfg.c **** 	(uint8 CYXDATA *)CYREG_DSM0_SW3, (uint8 CYXDATA *)CY_AMUX_UNUSED, 
 656:Generated_Source\PSoC5/cyfitter_cfg.c **** 	(uint8 CYXDATA *)CYREG_DSM0_SW3, (uint8 CYXDATA *)CY_AMUX_UNUSED, 
 657:Generated_Source\PSoC5/cyfitter_cfg.c **** 	(uint8 CYXDATA *)CYREG_DSM0_SW3, (uint8 CYXDATA *)CY_AMUX_UNUSED, 
 658:Generated_Source\PSoC5/cyfitter_cfg.c **** 	(uint8 CYXDATA *)CYREG_DSM0_SW3, (uint8 CYXDATA *)CY_AMUX_UNUSED, 
 659:Generated_Source\PSoC5/cyfitter_cfg.c **** 	(uint8 CYXDATA *)CYREG_DSM0_SW3, (uint8 CYXDATA *)CY_AMUX_UNUSED, 
 660:Generated_Source\PSoC5/cyfitter_cfg.c **** 	(uint8 CYXDATA *)CYREG_DSM0_SW3, (uint8 CYXDATA *)CY_AMUX_UNUSED, 
 661:Generated_Source\PSoC5/cyfitter_cfg.c **** 	(uint8 CYXDATA *)CYREG_DSM0_SW3, (uint8 CYXDATA *)CY_AMUX_UNUSED, 
 662:Generated_Source\PSoC5/cyfitter_cfg.c **** 	(uint8 CYXDATA *)CYREG_DSM0_SW3, (uint8 CYXDATA *)CY_AMUX_UNUSED, 
 663:Generated_Source\PSoC5/cyfitter_cfg.c **** 	(uint8 CYXDATA *)CYREG_DSM0_SW3, (uint8 CYXDATA *)CY_AMUX_UNUSED, 
 664:Generated_Source\PSoC5/cyfitter_cfg.c **** 	(uint8 CYXDATA *)CYREG_DSM0_SW3, (uint8 CYXDATA *)CY_AMUX_UNUSED, 
 665:Generated_Source\PSoC5/cyfitter_cfg.c **** 	(uint8 CYXDATA *)CYREG_DSM0_SW3, (uint8 CYXDATA *)CY_AMUX_UNUSED, 
 666:Generated_Source\PSoC5/cyfitter_cfg.c **** 	(uint8 CYXDATA *)CYREG_DSM0_SW3, (uint8 CYXDATA *)CY_AMUX_UNUSED, 
 667:Generated_Source\PSoC5/cyfitter_cfg.c **** };
 668:Generated_Source\PSoC5/cyfitter_cfg.c **** 
 669:Generated_Source\PSoC5/cyfitter_cfg.c **** /* This is an implementation detail of the AMux. Code that depends on it may be
ARM GAS  C:\Users\user\AppData\Local\Temp\cc7jhrgg.s 			page 28


 670:Generated_Source\PSoC5/cyfitter_cfg.c ****    incompatible with other versions of PSoC Creator. */
 671:Generated_Source\PSoC5/cyfitter_cfg.c **** const uint8 CYCODE PowerMonitor_1_PM_AMux_Voltage__maskTable[138] = {
 672:Generated_Source\PSoC5/cyfitter_cfg.c **** 	0x40u, 0x40u, 
 673:Generated_Source\PSoC5/cyfitter_cfg.c **** 	0x01u, 0x01u, 
 674:Generated_Source\PSoC5/cyfitter_cfg.c **** 	0x04u, 0x00u, 
 675:Generated_Source\PSoC5/cyfitter_cfg.c **** 	0x04u, 0x00u, 
 676:Generated_Source\PSoC5/cyfitter_cfg.c **** 	0x04u, 0x00u, 
 677:Generated_Source\PSoC5/cyfitter_cfg.c **** 	0x04u, 0x00u, 
 678:Generated_Source\PSoC5/cyfitter_cfg.c **** 	0x04u, 0x00u, 
 679:Generated_Source\PSoC5/cyfitter_cfg.c **** 	0x04u, 0x00u, 
 680:Generated_Source\PSoC5/cyfitter_cfg.c **** 	0x04u, 0x00u, 
 681:Generated_Source\PSoC5/cyfitter_cfg.c **** 	0x04u, 0x00u, 
 682:Generated_Source\PSoC5/cyfitter_cfg.c **** 	0x04u, 0x00u, 
 683:Generated_Source\PSoC5/cyfitter_cfg.c **** 	0x04u, 0x00u, 
 684:Generated_Source\PSoC5/cyfitter_cfg.c **** 	0x04u, 0x00u, 
 685:Generated_Source\PSoC5/cyfitter_cfg.c **** 	0x04u, 0x00u, 
 686:Generated_Source\PSoC5/cyfitter_cfg.c **** 	0x04u, 0x00u, 
 687:Generated_Source\PSoC5/cyfitter_cfg.c **** 	0x04u, 0x00u, 
 688:Generated_Source\PSoC5/cyfitter_cfg.c **** 	0x04u, 0x00u, 
 689:Generated_Source\PSoC5/cyfitter_cfg.c **** 	0x04u, 0x00u, 
 690:Generated_Source\PSoC5/cyfitter_cfg.c **** 	0x04u, 0x00u, 
 691:Generated_Source\PSoC5/cyfitter_cfg.c **** 	0x04u, 0x00u, 
 692:Generated_Source\PSoC5/cyfitter_cfg.c **** 	0x04u, 0x00u, 
 693:Generated_Source\PSoC5/cyfitter_cfg.c **** 	0x04u, 0x00u, 
 694:Generated_Source\PSoC5/cyfitter_cfg.c **** 	0x04u, 0x00u, 
 695:Generated_Source\PSoC5/cyfitter_cfg.c **** 	0x04u, 0x00u, 
 696:Generated_Source\PSoC5/cyfitter_cfg.c **** 	0x04u, 0x00u, 
 697:Generated_Source\PSoC5/cyfitter_cfg.c **** 	0x04u, 0x00u, 
 698:Generated_Source\PSoC5/cyfitter_cfg.c **** 	0x04u, 0x00u, 
 699:Generated_Source\PSoC5/cyfitter_cfg.c **** 	0x04u, 0x00u, 
 700:Generated_Source\PSoC5/cyfitter_cfg.c **** 	0x04u, 0x00u, 
 701:Generated_Source\PSoC5/cyfitter_cfg.c **** 	0x04u, 0x00u, 
 702:Generated_Source\PSoC5/cyfitter_cfg.c **** 	0x04u, 0x00u, 
 703:Generated_Source\PSoC5/cyfitter_cfg.c **** 	0x04u, 0x00u, 
 704:Generated_Source\PSoC5/cyfitter_cfg.c **** 	0x04u, 0x00u, 
 705:Generated_Source\PSoC5/cyfitter_cfg.c **** 	0x04u, 0x00u, 
 706:Generated_Source\PSoC5/cyfitter_cfg.c **** 	0x04u, 0x00u, 
 707:Generated_Source\PSoC5/cyfitter_cfg.c **** 	0x04u, 0x00u, 
 708:Generated_Source\PSoC5/cyfitter_cfg.c **** 	0x04u, 0x00u, 
 709:Generated_Source\PSoC5/cyfitter_cfg.c **** 	0x04u, 0x00u, 
 710:Generated_Source\PSoC5/cyfitter_cfg.c **** 	0x04u, 0x00u, 
 711:Generated_Source\PSoC5/cyfitter_cfg.c **** 	0x04u, 0x00u, 
 712:Generated_Source\PSoC5/cyfitter_cfg.c **** 	0x04u, 0x00u, 
 713:Generated_Source\PSoC5/cyfitter_cfg.c **** 	0x04u, 0x00u, 
 714:Generated_Source\PSoC5/cyfitter_cfg.c **** 	0x04u, 0x00u, 
 715:Generated_Source\PSoC5/cyfitter_cfg.c **** 	0x04u, 0x00u, 
 716:Generated_Source\PSoC5/cyfitter_cfg.c **** 	0x04u, 0x00u, 
 717:Generated_Source\PSoC5/cyfitter_cfg.c **** 	0x04u, 0x00u, 
 718:Generated_Source\PSoC5/cyfitter_cfg.c **** 	0x04u, 0x00u, 
 719:Generated_Source\PSoC5/cyfitter_cfg.c **** 	0x04u, 0x00u, 
 720:Generated_Source\PSoC5/cyfitter_cfg.c **** 	0x04u, 0x00u, 
 721:Generated_Source\PSoC5/cyfitter_cfg.c **** 	0x04u, 0x00u, 
 722:Generated_Source\PSoC5/cyfitter_cfg.c **** 	0x04u, 0x00u, 
 723:Generated_Source\PSoC5/cyfitter_cfg.c **** 	0x04u, 0x00u, 
 724:Generated_Source\PSoC5/cyfitter_cfg.c **** 	0x04u, 0x00u, 
 725:Generated_Source\PSoC5/cyfitter_cfg.c **** 	0x04u, 0x00u, 
 726:Generated_Source\PSoC5/cyfitter_cfg.c **** 	0x04u, 0x00u, 
ARM GAS  C:\Users\user\AppData\Local\Temp\cc7jhrgg.s 			page 29


 727:Generated_Source\PSoC5/cyfitter_cfg.c **** 	0x04u, 0x00u, 
 728:Generated_Source\PSoC5/cyfitter_cfg.c **** 	0x04u, 0x00u, 
 729:Generated_Source\PSoC5/cyfitter_cfg.c **** 	0x04u, 0x00u, 
 730:Generated_Source\PSoC5/cyfitter_cfg.c **** 	0x04u, 0x00u, 
 731:Generated_Source\PSoC5/cyfitter_cfg.c **** 	0x04u, 0x00u, 
 732:Generated_Source\PSoC5/cyfitter_cfg.c **** 	0x04u, 0x00u, 
 733:Generated_Source\PSoC5/cyfitter_cfg.c **** 	0x04u, 0x00u, 
 734:Generated_Source\PSoC5/cyfitter_cfg.c **** 	0x04u, 0x00u, 
 735:Generated_Source\PSoC5/cyfitter_cfg.c **** 	0x04u, 0x00u, 
 736:Generated_Source\PSoC5/cyfitter_cfg.c **** 	0x04u, 0x00u, 
 737:Generated_Source\PSoC5/cyfitter_cfg.c **** 	0x04u, 0x00u, 
 738:Generated_Source\PSoC5/cyfitter_cfg.c **** 	0x04u, 0x00u, 
 739:Generated_Source\PSoC5/cyfitter_cfg.c **** 	0x04u, 0x00u, 
 740:Generated_Source\PSoC5/cyfitter_cfg.c **** 	0x04u, 0x00u, 
 741:Generated_Source\PSoC5/cyfitter_cfg.c **** };
 742:Generated_Source\PSoC5/cyfitter_cfg.c **** 
 743:Generated_Source\PSoC5/cyfitter_cfg.c **** /*******************************************************************************
 744:Generated_Source\PSoC5/cyfitter_cfg.c **** * Function Name: PowerMonitor_1_PM_AMux_Voltage_Set
 745:Generated_Source\PSoC5/cyfitter_cfg.c **** ********************************************************************************
 746:Generated_Source\PSoC5/cyfitter_cfg.c **** * Summary:
 747:Generated_Source\PSoC5/cyfitter_cfg.c **** *  This function is used to set a particular channel as active on the AMux.
 748:Generated_Source\PSoC5/cyfitter_cfg.c **** *
 749:Generated_Source\PSoC5/cyfitter_cfg.c **** * Parameters:  
 750:Generated_Source\PSoC5/cyfitter_cfg.c **** *   channel - The mux channel input to set as active
 751:Generated_Source\PSoC5/cyfitter_cfg.c **** *
 752:Generated_Source\PSoC5/cyfitter_cfg.c **** * Return:
 753:Generated_Source\PSoC5/cyfitter_cfg.c **** *   void
 754:Generated_Source\PSoC5/cyfitter_cfg.c **** *
 755:Generated_Source\PSoC5/cyfitter_cfg.c **** *******************************************************************************/
 756:Generated_Source\PSoC5/cyfitter_cfg.c **** void PowerMonitor_1_PM_AMux_Voltage_Set(uint8 channel)
 757:Generated_Source\PSoC5/cyfitter_cfg.c **** {
 822              		.loc 1 757 0
 823              		.cfi_startproc
 824              		@ args = 0, pretend = 0, frame = 0
 825              		@ frame_needed = 0, uses_anonymous_args = 0
 826              		@ link register save eliminated.
 827              	.LVL64:
 758:Generated_Source\PSoC5/cyfitter_cfg.c **** 	if (channel < 69)
 828              		.loc 1 758 0
 829 0000 4428     		cmp	r0, #68
 830 0002 1AD8     		bhi	.L62
 757:Generated_Source\PSoC5/cyfitter_cfg.c **** 	if (channel < 69)
 831              		.loc 1 757 0
 832 0004 10B4     		push	{r4}
 833              		.cfi_def_cfa_offset 4
 834              		.cfi_offset 4, -4
 759:Generated_Source\PSoC5/cyfitter_cfg.c **** 	{
 760:Generated_Source\PSoC5/cyfitter_cfg.c **** 		channel += channel;
 835              		.loc 1 760 0
 836 0006 4000     		lsls	r0, r0, #1
 837              	.LVL65:
 838 0008 C0B2     		uxtb	r0, r0
 839              	.LVL66:
 761:Generated_Source\PSoC5/cyfitter_cfg.c **** 		*PowerMonitor_1_PM_AMux_Voltage__addrTable[channel] |= PowerMonitor_1_PM_AMux_Voltage__maskTable[
 840              		.loc 1 761 0
 841 000a 0C4B     		ldr	r3, .L63
 842 000c 03EB8002 		add	r2, r3, r0, lsl #2
ARM GAS  C:\Users\user\AppData\Local\Temp\cc7jhrgg.s 			page 30


 843 0010 D2F89C11 		ldr	r1, [r2, #412]
 844 0014 1A18     		adds	r2, r3, r0
 845 0016 92F8C443 		ldrb	r4, [r2, #964]	@ zero_extendqisi2
 846 001a 0A78     		ldrb	r2, [r1]	@ zero_extendqisi2
 847 001c 2243     		orrs	r2, r2, r4
 848 001e 0A70     		strb	r2, [r1]
 762:Generated_Source\PSoC5/cyfitter_cfg.c **** 		channel++;
 849              		.loc 1 762 0
 850 0020 0130     		adds	r0, r0, #1
 851              	.LVL67:
 852 0022 C0B2     		uxtb	r0, r0
 853              	.LVL68:
 763:Generated_Source\PSoC5/cyfitter_cfg.c **** 		*PowerMonitor_1_PM_AMux_Voltage__addrTable[channel] |= PowerMonitor_1_PM_AMux_Voltage__maskTable[
 854              		.loc 1 763 0
 855 0024 03EB8002 		add	r2, r3, r0, lsl #2
 856 0028 D2F89C21 		ldr	r2, [r2, #412]
 857 002c 1844     		add	r0, r0, r3
 858              	.LVL69:
 859 002e 90F8C413 		ldrb	r1, [r0, #964]	@ zero_extendqisi2
 860 0032 1378     		ldrb	r3, [r2]	@ zero_extendqisi2
 861 0034 0B43     		orrs	r3, r3, r1
 862 0036 1370     		strb	r3, [r2]
 764:Generated_Source\PSoC5/cyfitter_cfg.c **** 	}
 765:Generated_Source\PSoC5/cyfitter_cfg.c **** }
 863              		.loc 1 765 0
 864 0038 10BC     		pop	{r4}
 865              		.cfi_restore 4
 866              		.cfi_def_cfa_offset 0
 867              	.LVL70:
 868              	.L62:
 869 003a 7047     		bx	lr
 870              	.L64:
 871              		.align	2
 872              	.L63:
 873 003c 00000000 		.word	.LANCHOR0
 874              		.cfi_endproc
 875              	.LFE12:
 876              		.size	PowerMonitor_1_PM_AMux_Voltage_Set, .-PowerMonitor_1_PM_AMux_Voltage_Set
 877              		.section	.text.PowerMonitor_1_PM_AMux_Voltage_Unset,"ax",%progbits
 878              		.align	2
 879              		.global	PowerMonitor_1_PM_AMux_Voltage_Unset
 880              		.thumb
 881              		.thumb_func
 882              		.type	PowerMonitor_1_PM_AMux_Voltage_Unset, %function
 883              	PowerMonitor_1_PM_AMux_Voltage_Unset:
 884              	.LFB13:
 766:Generated_Source\PSoC5/cyfitter_cfg.c **** 
 767:Generated_Source\PSoC5/cyfitter_cfg.c **** /*******************************************************************************
 768:Generated_Source\PSoC5/cyfitter_cfg.c **** * Function Name: PowerMonitor_1_PM_AMux_Voltage_Unset
 769:Generated_Source\PSoC5/cyfitter_cfg.c **** ********************************************************************************
 770:Generated_Source\PSoC5/cyfitter_cfg.c **** * Summary:
 771:Generated_Source\PSoC5/cyfitter_cfg.c **** *  This function is used to clear a particular channel from being active on the
 772:Generated_Source\PSoC5/cyfitter_cfg.c **** *  AMux.
 773:Generated_Source\PSoC5/cyfitter_cfg.c **** *
 774:Generated_Source\PSoC5/cyfitter_cfg.c **** * Parameters:  
 775:Generated_Source\PSoC5/cyfitter_cfg.c **** *   channel - The mux channel input to mark inactive
 776:Generated_Source\PSoC5/cyfitter_cfg.c **** *
ARM GAS  C:\Users\user\AppData\Local\Temp\cc7jhrgg.s 			page 31


 777:Generated_Source\PSoC5/cyfitter_cfg.c **** * Return:
 778:Generated_Source\PSoC5/cyfitter_cfg.c **** *   void
 779:Generated_Source\PSoC5/cyfitter_cfg.c **** *
 780:Generated_Source\PSoC5/cyfitter_cfg.c **** *******************************************************************************/
 781:Generated_Source\PSoC5/cyfitter_cfg.c **** void PowerMonitor_1_PM_AMux_Voltage_Unset(uint8 channel)
 782:Generated_Source\PSoC5/cyfitter_cfg.c **** {
 885              		.loc 1 782 0
 886              		.cfi_startproc
 887              		@ args = 0, pretend = 0, frame = 0
 888              		@ frame_needed = 0, uses_anonymous_args = 0
 889              		@ link register save eliminated.
 890              	.LVL71:
 783:Generated_Source\PSoC5/cyfitter_cfg.c **** 	if (channel < 69)
 891              		.loc 1 783 0
 892 0000 4428     		cmp	r0, #68
 893 0002 1CD8     		bhi	.L69
 782:Generated_Source\PSoC5/cyfitter_cfg.c **** 	if (channel < 69)
 894              		.loc 1 782 0
 895 0004 10B4     		push	{r4}
 896              		.cfi_def_cfa_offset 4
 897              		.cfi_offset 4, -4
 784:Generated_Source\PSoC5/cyfitter_cfg.c **** 	{
 785:Generated_Source\PSoC5/cyfitter_cfg.c **** 		channel += channel;
 898              		.loc 1 785 0
 899 0006 4000     		lsls	r0, r0, #1
 900              	.LVL72:
 901 0008 C0B2     		uxtb	r0, r0
 902              	.LVL73:
 786:Generated_Source\PSoC5/cyfitter_cfg.c **** 		*PowerMonitor_1_PM_AMux_Voltage__addrTable[channel] &= (uint8)~PowerMonitor_1_PM_AMux_Voltage__ma
 903              		.loc 1 786 0
 904 000a 0D4B     		ldr	r3, .L70
 905 000c 03EB8002 		add	r2, r3, r0, lsl #2
 906 0010 D2F89C11 		ldr	r1, [r2, #412]
 907 0014 1A18     		adds	r2, r3, r0
 908 0016 92F8C443 		ldrb	r4, [r2, #964]	@ zero_extendqisi2
 909 001a 0A78     		ldrb	r2, [r1]	@ zero_extendqisi2
 910 001c 22EA0402 		bic	r2, r2, r4
 911 0020 0A70     		strb	r2, [r1]
 787:Generated_Source\PSoC5/cyfitter_cfg.c **** 		channel++;
 912              		.loc 1 787 0
 913 0022 0130     		adds	r0, r0, #1
 914              	.LVL74:
 915 0024 C0B2     		uxtb	r0, r0
 916              	.LVL75:
 788:Generated_Source\PSoC5/cyfitter_cfg.c **** 		*PowerMonitor_1_PM_AMux_Voltage__addrTable[channel] &= (uint8)~PowerMonitor_1_PM_AMux_Voltage__ma
 917              		.loc 1 788 0
 918 0026 03EB8002 		add	r2, r3, r0, lsl #2
 919 002a D2F89C21 		ldr	r2, [r2, #412]
 920 002e 1844     		add	r0, r0, r3
 921              	.LVL76:
 922 0030 90F8C413 		ldrb	r1, [r0, #964]	@ zero_extendqisi2
 923 0034 1378     		ldrb	r3, [r2]	@ zero_extendqisi2
 924 0036 23EA0103 		bic	r3, r3, r1
 925 003a 1370     		strb	r3, [r2]
 789:Generated_Source\PSoC5/cyfitter_cfg.c **** 	}
 790:Generated_Source\PSoC5/cyfitter_cfg.c **** }
 926              		.loc 1 790 0
ARM GAS  C:\Users\user\AppData\Local\Temp\cc7jhrgg.s 			page 32


 927 003c 10BC     		pop	{r4}
 928              		.cfi_restore 4
 929              		.cfi_def_cfa_offset 0
 930              	.LVL77:
 931              	.L69:
 932 003e 7047     		bx	lr
 933              	.L71:
 934              		.align	2
 935              	.L70:
 936 0040 00000000 		.word	.LANCHOR0
 937              		.cfi_endproc
 938              	.LFE13:
 939              		.size	PowerMonitor_1_PM_AMux_Voltage_Unset, .-PowerMonitor_1_PM_AMux_Voltage_Unset
 940              		.section	.text.cyfitter_cfg,"ax",%progbits
 941              		.align	2
 942              		.global	cyfitter_cfg
 943              		.thumb
 944              		.thumb_func
 945              		.type	cyfitter_cfg, %function
 946              	cyfitter_cfg:
 947              	.LFB14:
 791:Generated_Source\PSoC5/cyfitter_cfg.c **** 
 792:Generated_Source\PSoC5/cyfitter_cfg.c **** 
 793:Generated_Source\PSoC5/cyfitter_cfg.c **** 
 794:Generated_Source\PSoC5/cyfitter_cfg.c **** /*******************************************************************************
 795:Generated_Source\PSoC5/cyfitter_cfg.c **** * Function Name: cyfitter_cfg
 796:Generated_Source\PSoC5/cyfitter_cfg.c **** ********************************************************************************
 797:Generated_Source\PSoC5/cyfitter_cfg.c **** * Summary:
 798:Generated_Source\PSoC5/cyfitter_cfg.c **** *  This function is called by the start-up code for the selected device. It
 799:Generated_Source\PSoC5/cyfitter_cfg.c **** *  performs all of the necessary device configuration based on the design
 800:Generated_Source\PSoC5/cyfitter_cfg.c **** *  settings.  This includes settings from the Design Wide Resources (DWR) such
 801:Generated_Source\PSoC5/cyfitter_cfg.c **** *  as Clocks and Pins as well as any component configuration that is necessary.
 802:Generated_Source\PSoC5/cyfitter_cfg.c **** *
 803:Generated_Source\PSoC5/cyfitter_cfg.c **** * Parameters:
 804:Generated_Source\PSoC5/cyfitter_cfg.c **** *   void
 805:Generated_Source\PSoC5/cyfitter_cfg.c **** *
 806:Generated_Source\PSoC5/cyfitter_cfg.c **** * Return:
 807:Generated_Source\PSoC5/cyfitter_cfg.c **** *   void
 808:Generated_Source\PSoC5/cyfitter_cfg.c **** *
 809:Generated_Source\PSoC5/cyfitter_cfg.c **** *******************************************************************************/
 810:Generated_Source\PSoC5/cyfitter_cfg.c **** 
 811:Generated_Source\PSoC5/cyfitter_cfg.c **** void cyfitter_cfg(void)
 812:Generated_Source\PSoC5/cyfitter_cfg.c **** {
 948              		.loc 1 812 0
 949              		.cfi_startproc
 950              		@ args = 0, pretend = 0, frame = 0
 951              		@ frame_needed = 0, uses_anonymous_args = 0
 952 0000 38B5     		push	{r3, r4, r5, lr}
 953              		.cfi_def_cfa_offset 16
 954              		.cfi_offset 3, -16
 955              		.cfi_offset 4, -12
 956              		.cfi_offset 5, -8
 957              		.cfi_offset 14, -4
 813:Generated_Source\PSoC5/cyfitter_cfg.c **** #ifdef CYGlobalIntDisable
 814:Generated_Source\PSoC5/cyfitter_cfg.c **** 	/* Disable interrupts by default. Let user enable if/when they want. */
 815:Generated_Source\PSoC5/cyfitter_cfg.c **** 	CYGlobalIntDisable
 958              		.loc 1 815 0
ARM GAS  C:\Users\user\AppData\Local\Temp\cc7jhrgg.s 			page 33


 959              		.syntax unified
 960              	@ 815 "Generated_Source\PSoC5\cyfitter_cfg.c" 1
 961 0002 72B6     		CPSID   i
 962              	@ 0 "" 2
 816:Generated_Source\PSoC5/cyfitter_cfg.c **** #endif
 817:Generated_Source\PSoC5/cyfitter_cfg.c **** 
 818:Generated_Source\PSoC5/cyfitter_cfg.c **** 	/* Enable/Disable Debug functionality based on settings from System DWR */
 819:Generated_Source\PSoC5/cyfitter_cfg.c **** 	CY_SET_XTND_REG8((void CYFAR *)CYREG_MLOGIC_DEBUG, (CY_GET_XTND_REG8((void CYFAR *)CYREG_MLOGIC_DE
 963              		.loc 1 819 0
 964              		.thumb
 965              		.syntax unified
 966 0004 3E4A     		ldr	r2, .L78
 967 0006 1378     		ldrb	r3, [r2]	@ zero_extendqisi2
 968 0008 43F00403 		orr	r3, r3, #4
 969 000c 1370     		strb	r3, [r2]
 970              	.LVL78:
 971              	.LBB3:
 820:Generated_Source\PSoC5/cyfitter_cfg.c **** 
 821:Generated_Source\PSoC5/cyfitter_cfg.c **** 	{
 822:Generated_Source\PSoC5/cyfitter_cfg.c **** 
 823:Generated_Source\PSoC5/cyfitter_cfg.c **** 		CYPACKED typedef struct {
 824:Generated_Source\PSoC5/cyfitter_cfg.c **** 			void CYFAR *address;
 825:Generated_Source\PSoC5/cyfitter_cfg.c **** 			uint16 size;
 826:Generated_Source\PSoC5/cyfitter_cfg.c **** 		} CYPACKED_ATTR cfg_memset_t;
 827:Generated_Source\PSoC5/cyfitter_cfg.c **** 
 828:Generated_Source\PSoC5/cyfitter_cfg.c **** 
 829:Generated_Source\PSoC5/cyfitter_cfg.c **** 		CYPACKED typedef struct {
 830:Generated_Source\PSoC5/cyfitter_cfg.c **** 			void CYFAR *dest;
 831:Generated_Source\PSoC5/cyfitter_cfg.c **** 			const void CYFAR *src;
 832:Generated_Source\PSoC5/cyfitter_cfg.c **** 			uint16 size;
 833:Generated_Source\PSoC5/cyfitter_cfg.c **** 		} CYPACKED_ATTR cfg_memcpy_t;
 834:Generated_Source\PSoC5/cyfitter_cfg.c **** 
 835:Generated_Source\PSoC5/cyfitter_cfg.c **** 		static const cfg_memset_t CYCODE cfg_memset_list[] = {
 836:Generated_Source\PSoC5/cyfitter_cfg.c **** 			/* address, size */
 837:Generated_Source\PSoC5/cyfitter_cfg.c **** 			{(void CYFAR *)(CYREG_PRT4_DR), 48u},
 838:Generated_Source\PSoC5/cyfitter_cfg.c **** 			{(void CYFAR *)(CYDEV_UCFG_B0_P0_U0_BASE), 4096u},
 839:Generated_Source\PSoC5/cyfitter_cfg.c **** 			{(void CYFAR *)(CYDEV_UCFG_B1_P2_U0_BASE), 2048u},
 840:Generated_Source\PSoC5/cyfitter_cfg.c **** 			{(void CYFAR *)(CYDEV_UCFG_DSI0_BASE), 2560u},
 841:Generated_Source\PSoC5/cyfitter_cfg.c **** 			{(void CYFAR *)(CYDEV_UCFG_DSI12_BASE), 512u},
 842:Generated_Source\PSoC5/cyfitter_cfg.c **** 			{(void CYFAR *)(CYREG_BCTL1_MDCLK_EN), 16u},
 843:Generated_Source\PSoC5/cyfitter_cfg.c **** 		};
 844:Generated_Source\PSoC5/cyfitter_cfg.c **** 
 845:Generated_Source\PSoC5/cyfitter_cfg.c **** 		static const cfg_memcpy_t CYCODE cfg_memcpy_list [] = {
 846:Generated_Source\PSoC5/cyfitter_cfg.c **** 			/* dest, src, size */
 847:Generated_Source\PSoC5/cyfitter_cfg.c **** 			{(void CYFAR *)(CYREG_BCTL0_MDCLK_EN), BS_UCFG_BCTL0_VAL, 16u},
 848:Generated_Source\PSoC5/cyfitter_cfg.c **** 		};
 849:Generated_Source\PSoC5/cyfitter_cfg.c **** 
 850:Generated_Source\PSoC5/cyfitter_cfg.c **** 		uint8 CYDATA i;
 851:Generated_Source\PSoC5/cyfitter_cfg.c **** 
 852:Generated_Source\PSoC5/cyfitter_cfg.c **** 		/* Zero out critical memory blocks before beginning configuration */
 853:Generated_Source\PSoC5/cyfitter_cfg.c **** 		for (i = 0u; i < (sizeof(cfg_memset_list)/sizeof(cfg_memset_list[0])); i++)
 972              		.loc 1 853 0
 973 000e 0024     		movs	r4, #0
 974 0010 0DE0     		b	.L73
 975              	.LVL79:
 976              	.L74:
 977              	.LBB4:
ARM GAS  C:\Users\user\AppData\Local\Temp\cc7jhrgg.s 			page 34


 854:Generated_Source\PSoC5/cyfitter_cfg.c **** 		{
 855:Generated_Source\PSoC5/cyfitter_cfg.c **** 			const cfg_memset_t CYCODE * CYDATA ms = &cfg_memset_list[i];
 856:Generated_Source\PSoC5/cyfitter_cfg.c **** 			CYMEMZERO(ms->address, (size_t)(uint32)(ms->size));
 978              		.loc 1 856 0 discriminator 3
 979 0012 3C48     		ldr	r0, .L78+4
 980 0014 6300     		lsls	r3, r4, #1
 981 0016 1A19     		adds	r2, r3, r4
 982 0018 5100     		lsls	r1, r2, #1
 983 001a 0144     		add	r1, r1, r0
 984 001c 0A46     		mov	r2, r1
 985 001e B1F85414 		ldrh	r1, [r1, #1108]
 986 0022 D2F85004 		ldr	r0, [r2, #1104]	@ unaligned
 987 0026 FFF7FEFF 		bl	CYMEMZERO
 988              	.LVL80:
 989              	.LBE4:
 853:Generated_Source\PSoC5/cyfitter_cfg.c **** 		{
 990              		.loc 1 853 0 discriminator 3
 991 002a 0134     		adds	r4, r4, #1
 992              	.LVL81:
 993 002c E4B2     		uxtb	r4, r4
 994              	.LVL82:
 995              	.L73:
 853:Generated_Source\PSoC5/cyfitter_cfg.c **** 		{
 996              		.loc 1 853 0 is_stmt 0 discriminator 1
 997 002e 052C     		cmp	r4, #5
 998 0030 EFD9     		bls	.L74
 999 0032 0024     		movs	r4, #0
 1000              	.LVL83:
 1001 0034 0DE0     		b	.L75
 1002              	.LVL84:
 1003              	.L76:
 1004              	.LBB5:
 857:Generated_Source\PSoC5/cyfitter_cfg.c **** 		}
 858:Generated_Source\PSoC5/cyfitter_cfg.c **** 
 859:Generated_Source\PSoC5/cyfitter_cfg.c **** 		/* Copy device configuration data into registers */
 860:Generated_Source\PSoC5/cyfitter_cfg.c **** 		for (i = 0u; i < (sizeof(cfg_memcpy_list)/sizeof(cfg_memcpy_list[0])); i++)
 861:Generated_Source\PSoC5/cyfitter_cfg.c **** 		{
 862:Generated_Source\PSoC5/cyfitter_cfg.c **** 			const cfg_memcpy_t CYCODE * CYDATA mc = &cfg_memcpy_list[i];
 863:Generated_Source\PSoC5/cyfitter_cfg.c **** 			void * CYDATA destPtr = mc->dest;
 1005              		.loc 1 863 0 is_stmt 1 discriminator 3
 1006 0036 3349     		ldr	r1, .L78+4
 1007 0038 A300     		lsls	r3, r4, #2
 1008 003a 1819     		adds	r0, r3, r4
 1009 003c 4200     		lsls	r2, r0, #1
 1010 003e 8818     		adds	r0, r1, r2
 1011              	.LVL85:
 864:Generated_Source\PSoC5/cyfitter_cfg.c **** 			const void * CYDATA srcPtr = mc->src;
 865:Generated_Source\PSoC5/cyfitter_cfg.c **** 			uint16 CYDATA numBytes = mc->size;
 866:Generated_Source\PSoC5/cyfitter_cfg.c **** 			CYCONFIGCPY(destPtr, srcPtr, numBytes);
 1012              		.loc 1 866 0 discriminator 3
 1013 0040 1022     		movs	r2, #16
 1014 0042 D0F87814 		ldr	r1, [r0, #1144]	@ unaligned
 1015              	.LVL86:
 1016 0046 D0F87404 		ldr	r0, [r0, #1140]	@ unaligned
 1017              	.LVL87:
 1018 004a FFF7FEFF 		bl	CYCONFIGCPY
 1019              	.LVL88:
ARM GAS  C:\Users\user\AppData\Local\Temp\cc7jhrgg.s 			page 35


 1020              	.LBE5:
 860:Generated_Source\PSoC5/cyfitter_cfg.c **** 		{
 1021              		.loc 1 860 0 discriminator 3
 1022 004e 0134     		adds	r4, r4, #1
 1023              	.LVL89:
 1024 0050 E4B2     		uxtb	r4, r4
 1025              	.LVL90:
 1026              	.L75:
 860:Generated_Source\PSoC5/cyfitter_cfg.c **** 		{
 1027              		.loc 1 860 0 is_stmt 0 discriminator 1
 1028 0052 002C     		cmp	r4, #0
 1029 0054 EFD0     		beq	.L76
 867:Generated_Source\PSoC5/cyfitter_cfg.c **** 		}
 868:Generated_Source\PSoC5/cyfitter_cfg.c **** 
 869:Generated_Source\PSoC5/cyfitter_cfg.c **** 		cfg_write_bytes32(cy_cfg_addr_table, cy_cfg_data_table);
 1030              		.loc 1 869 0 is_stmt 1
 1031 0056 2C49     		ldr	r1, .L78+8
 1032 0058 4FF09040 		mov	r0, #1207959552
 1033 005c FFF7FEFF 		bl	cfg_write_bytes32
 1034              	.LVL91:
 870:Generated_Source\PSoC5/cyfitter_cfg.c **** 
 871:Generated_Source\PSoC5/cyfitter_cfg.c **** 		/* Perform normal device configuration. Order is not critical for these items. */
 872:Generated_Source\PSoC5/cyfitter_cfg.c **** 		CY_SET_XTND_REG8((void CYFAR *)(CYREG_DSM0_CR3), 0x0Au);
 1035              		.loc 1 872 0
 1036 0060 0A25     		movs	r5, #10
 1037 0062 2A4B     		ldr	r3, .L78+12
 1038 0064 1D70     		strb	r5, [r3]
 873:Generated_Source\PSoC5/cyfitter_cfg.c **** 		CY_SET_XTND_REG8((void CYFAR *)(CYREG_DSM0_CLK), 0x01u);
 1039              		.loc 1 873 0
 1040 0066 0122     		movs	r2, #1
 1041 0068 03F52173 		add	r3, r3, #644
 1042 006c 1A70     		strb	r2, [r3]
 874:Generated_Source\PSoC5/cyfitter_cfg.c **** 
 875:Generated_Source\PSoC5/cyfitter_cfg.c **** 		/* Enable digital routing */
 876:Generated_Source\PSoC5/cyfitter_cfg.c **** 		CY_SET_XTND_REG8((void CYFAR *)CYREG_BCTL0_BANK_CTL, CY_GET_XTND_REG8((void CYFAR *)CYREG_BCTL0_B
 1043              		.loc 1 876 0
 1044 006e 284A     		ldr	r2, .L78+16
 1045 0070 1378     		ldrb	r3, [r2]	@ zero_extendqisi2
 1046 0072 43F00203 		orr	r3, r3, #2
 1047 0076 1370     		strb	r3, [r2]
 877:Generated_Source\PSoC5/cyfitter_cfg.c **** 		CY_SET_XTND_REG8((void CYFAR *)CYREG_BCTL1_BANK_CTL, CY_GET_XTND_REG8((void CYFAR *)CYREG_BCTL1_B
 1048              		.loc 1 877 0
 1049 0078 1032     		adds	r2, r2, #16
 1050 007a 1378     		ldrb	r3, [r2]	@ zero_extendqisi2
 1051 007c 43F00203 		orr	r3, r3, #2
 1052 0080 1370     		strb	r3, [r2]
 878:Generated_Source\PSoC5/cyfitter_cfg.c **** 
 879:Generated_Source\PSoC5/cyfitter_cfg.c **** 		/* Enable UDB array */
 880:Generated_Source\PSoC5/cyfitter_cfg.c **** 		CY_SET_XTND_REG8((void CYFAR *)CYREG_PM_ACT_CFG0, CY_GET_XTND_REG8((void CYFAR *)CYREG_PM_ACT_CFG
 1053              		.loc 1 880 0
 1054 0082 244C     		ldr	r4, .L78+20
 1055              	.LVL92:
 1056 0084 2378     		ldrb	r3, [r4]	@ zero_extendqisi2
 1057 0086 43F04003 		orr	r3, r3, #64
 1058 008a 2370     		strb	r3, [r4]
 881:Generated_Source\PSoC5/cyfitter_cfg.c **** 		CY_SET_XTND_REG8((void CYFAR *)CYREG_PM_AVAIL_CR2, CY_GET_XTND_REG8((void CYFAR *)CYREG_PM_AVAIL_
 1059              		.loc 1 881 0
ARM GAS  C:\Users\user\AppData\Local\Temp\cc7jhrgg.s 			page 36


 1060 008c A2F58632 		sub	r2, r2, #68608
 1061 0090 513A     		subs	r2, r2, #81
 1062 0092 1378     		ldrb	r3, [r2]	@ zero_extendqisi2
 1063 0094 43F01003 		orr	r3, r3, #16
 1064 0098 1370     		strb	r3, [r2]
 1065              	.LBE3:
 882:Generated_Source\PSoC5/cyfitter_cfg.c **** 	}
 883:Generated_Source\PSoC5/cyfitter_cfg.c **** 
 884:Generated_Source\PSoC5/cyfitter_cfg.c **** 
 885:Generated_Source\PSoC5/cyfitter_cfg.c **** 	/* Perform second pass device configuration. These items must be configured in specific order afte
 886:Generated_Source\PSoC5/cyfitter_cfg.c **** 	CYCONFIGCPY((void CYFAR *)(CYREG_PRT0_DM0), (const void CYFAR *)(BS_IOPINS0_0_VAL), 8u);
 1066              		.loc 1 886 0
 1067 009a 0822     		movs	r2, #8
 1068 009c 1E49     		ldr	r1, .L78+24
 1069 009e 1F48     		ldr	r0, .L78+28
 1070 00a0 FFF7FEFF 		bl	CYCONFIGCPY
 1071              	.LVL93:
 887:Generated_Source\PSoC5/cyfitter_cfg.c **** 	CYCONFIGCPY((void CYFAR *)(CYREG_PRT12_DM0), (const void CYFAR *)(BS_IOPINS0_7_VAL), 8u);
 1072              		.loc 1 887 0
 1073 00a4 0822     		movs	r2, #8
 1074 00a6 1E49     		ldr	r1, .L78+32
 1075 00a8 1E48     		ldr	r0, .L78+36
 1076 00aa FFF7FEFF 		bl	CYCONFIGCPY
 1077              	.LVL94:
 888:Generated_Source\PSoC5/cyfitter_cfg.c **** 	CYCONFIGCPY((void CYFAR *)(CYREG_PRT15_DR), (const void CYFAR *)(BS_IOPINS0_8_VAL), 10u);
 1078              		.loc 1 888 0
 1079 00ae 2A46     		mov	r2, r5
 1080 00b0 1D49     		ldr	r1, .L78+40
 1081 00b2 1E48     		ldr	r0, .L78+44
 1082 00b4 FFF7FEFF 		bl	CYCONFIGCPY
 1083              	.LVL95:
 889:Generated_Source\PSoC5/cyfitter_cfg.c **** 	CYCONFIGCPY((void CYFAR *)(CYREG_PRT1_DM0), (const void CYFAR *)(BS_IOPINS0_1_VAL), 8u);
 1084              		.loc 1 889 0
 1085 00b8 0822     		movs	r2, #8
 1086 00ba 1D49     		ldr	r1, .L78+48
 1087 00bc 1D48     		ldr	r0, .L78+52
 1088 00be FFF7FEFF 		bl	CYCONFIGCPY
 1089              	.LVL96:
 890:Generated_Source\PSoC5/cyfitter_cfg.c **** 	CYCONFIGCPY((void CYFAR *)(CYREG_PRT2_DM0), (const void CYFAR *)(BS_IOPINS0_2_VAL), 8u);
 1090              		.loc 1 890 0
 1091 00c2 0822     		movs	r2, #8
 1092 00c4 1C49     		ldr	r1, .L78+56
 1093 00c6 1D48     		ldr	r0, .L78+60
 1094 00c8 FFF7FEFF 		bl	CYCONFIGCPY
 1095              	.LVL97:
 891:Generated_Source\PSoC5/cyfitter_cfg.c **** 	CYCONFIGCPY((void CYFAR *)(CYREG_PRT3_DM0), (const void CYFAR *)(BS_IOPINS0_3_VAL), 8u);
 1096              		.loc 1 891 0
 1097 00cc 0822     		movs	r2, #8
 1098 00ce 1C49     		ldr	r1, .L78+64
 1099 00d0 1C48     		ldr	r0, .L78+68
 1100 00d2 FFF7FEFF 		bl	CYCONFIGCPY
 1101              	.LVL98:
 892:Generated_Source\PSoC5/cyfitter_cfg.c **** 	/* Switch Boost to the precision bandgap reference from its internal reference */
 893:Generated_Source\PSoC5/cyfitter_cfg.c **** 	CY_SET_REG8((void CYXDATA *)CYREG_BOOST_CR2, (CY_GET_REG8((void CYXDATA *)CYREG_BOOST_CR2) | 0x08u
 1102              		.loc 1 893 0
 1103 00d6 1C4A     		ldr	r2, .L78+72
 1104 00d8 1378     		ldrb	r3, [r2]	@ zero_extendqisi2
ARM GAS  C:\Users\user\AppData\Local\Temp\cc7jhrgg.s 			page 37


 1105 00da 43F00803 		orr	r3, r3, #8
 1106 00de 1370     		strb	r3, [r2]
 894:Generated_Source\PSoC5/cyfitter_cfg.c **** 
 895:Generated_Source\PSoC5/cyfitter_cfg.c **** 	/* Set Flash Cycles based on max possible frequency in case a glitch occurs during ClockSetup(). *
 896:Generated_Source\PSoC5/cyfitter_cfg.c **** 	CY_SET_XTND_REG8((void CYFAR *)(CYREG_CACHE_CC_CTL), (((CYDEV_INSTRUCT_CACHE_ENABLED) != 0) ? 0x61
 1107              		.loc 1 896 0
 1108 00e0 1A4D     		ldr	r5, .L78+76
 1109 00e2 6123     		movs	r3, #97
 1110 00e4 2B70     		strb	r3, [r5]
 897:Generated_Source\PSoC5/cyfitter_cfg.c **** 	/* Setup clocks based on selections from Clock DWR */
 898:Generated_Source\PSoC5/cyfitter_cfg.c **** 	ClockSetup();
 1111              		.loc 1 898 0
 1112 00e6 FFF7FEFF 		bl	ClockSetup
 1113              	.LVL99:
 899:Generated_Source\PSoC5/cyfitter_cfg.c **** 	/* Set Flash Cycles based on newly configured 48.00MHz Bus Clock. */
 900:Generated_Source\PSoC5/cyfitter_cfg.c **** 	CY_SET_XTND_REG8((void CYFAR *)(CYREG_CACHE_CC_CTL), (((CYDEV_INSTRUCT_CACHE_ENABLED) != 0) ? 0xC1
 1114              		.loc 1 900 0
 1115 00ea C123     		movs	r3, #193
 1116 00ec 2B70     		strb	r3, [r5]
 901:Generated_Source\PSoC5/cyfitter_cfg.c **** 
 902:Generated_Source\PSoC5/cyfitter_cfg.c **** 	/* Perform basic analog initialization to defaults */
 903:Generated_Source\PSoC5/cyfitter_cfg.c **** 	AnalogSetDefault();
 1117              		.loc 1 903 0
 1118 00ee FFF7FEFF 		bl	AnalogSetDefault
 1119              	.LVL100:
 904:Generated_Source\PSoC5/cyfitter_cfg.c **** 
 905:Generated_Source\PSoC5/cyfitter_cfg.c **** 	/* Configure alternate active mode */
 906:Generated_Source\PSoC5/cyfitter_cfg.c **** 	CYCONFIGCPY((void CYFAR *)CYDEV_PM_STBY_BASE, (const void CYFAR *)CYDEV_PM_ACT_BASE, 14u);
 1120              		.loc 1 906 0
 1121 00f2 0E22     		movs	r2, #14
 1122 00f4 2146     		mov	r1, r4
 1123 00f6 1648     		ldr	r0, .L78+80
 1124 00f8 FFF7FEFF 		bl	CYCONFIGCPY
 1125              	.LVL101:
 1126 00fc 38BD     		pop	{r3, r4, r5, pc}
 1127              	.L79:
 1128 00fe 00BF     		.align	2
 1129              	.L78:
 1130 0100 E8460040 		.word	1073759976
 1131 0104 00000000 		.word	.LANCHOR0
 1132 0108 A0000048 		.word	1207959712
 1133 010c 83580040 		.word	1073764483
 1134 0110 03500140 		.word	1073827843
 1135 0114 A0430040 		.word	1073759136
 1136 0118 C0090048 		.word	1207962048
 1137 011c 02510040 		.word	1073762562
 1138 0120 C8090048 		.word	1207962056
 1139 0124 C2510040 		.word	1073762754
 1140 0128 D0090048 		.word	1207962064
 1141 012c F0510040 		.word	1073762800
 1142 0130 DC090048 		.word	1207962076
 1143 0134 12510040 		.word	1073762578
 1144 0138 E4090048 		.word	1207962084
 1145 013c 22510040 		.word	1073762594
 1146 0140 EC090048 		.word	1207962092
 1147 0144 32510040 		.word	1073762610
 1148 0148 22430040 		.word	1073759010
ARM GAS  C:\Users\user\AppData\Local\Temp\cc7jhrgg.s 			page 38


 1149 014c 00480040 		.word	1073760256
 1150 0150 B0430040 		.word	1073759152
 1151              		.cfi_endproc
 1152              	.LFE14:
 1153              		.size	cyfitter_cfg, .-cyfitter_cfg
 1154              		.global	PowerMonitor_1_PM_AMux_Voltage__maskTable
 1155              		.global	PowerMonitor_1_PM_AMux_Voltage__addrTable
 1156              		.global	PowerMonitor_1_PM_AMux_Current__maskTable
 1157              		.global	PowerMonitor_1_PM_AMux_Current__addrTable
 1158              		.global	AMux_1__maskTable
 1159              		.global	AMux_1__addrTable
 1160              		.section	.rodata
 1161              		.align	2
 1162              		.set	.LANCHOR0,. + 0
 1163              		.type	AMux_1__addrTable, %object
 1164              		.size	AMux_1__addrTable, 24
 1165              	AMux_1__addrTable:
 1166 0000 2A5A0040 		.word	1073764906
 1167 0004 5A5B0040 		.word	1073765210
 1168 0008 3A5A0040 		.word	1073764922
 1169 000c 24430040 		.word	1073759012
 1170 0010 185A0040 		.word	1073764888
 1171 0014 285B0040 		.word	1073765160
 1172              		.type	AMux_1__maskTable, %object
 1173              		.size	AMux_1__maskTable, 6
 1174              	AMux_1__maskTable:
 1175 0018 01       		.byte	1
 1176 0019 01       		.byte	1
 1177 001a 01       		.byte	1
 1178 001b 00       		.byte	0
 1179 001c 08       		.byte	8
 1180 001d 08       		.byte	8
 1181 001e 0000     		.space	2
 1182              		.type	PowerMonitor_1_PM_AMux_Current__addrTable, %object
 1183              		.size	PowerMonitor_1_PM_AMux_Current__addrTable, 304
 1184              	PowerMonitor_1_PM_AMux_Current__addrTable:
 1185 0020 0D510040 		.word	1073762573
 1186 0024 24430040 		.word	1073759012
 1187 0028 935A0040 		.word	1073765011
 1188 002c 945A0040 		.word	1073765012
 1189 0030 035B0040 		.word	1073765123
 1190 0034 24430040 		.word	1073759012
 1191 0038 035B0040 		.word	1073765123
 1192 003c 24430040 		.word	1073759012
 1193 0040 035B0040 		.word	1073765123
 1194 0044 24430040 		.word	1073759012
 1195 0048 035B0040 		.word	1073765123
 1196 004c 24430040 		.word	1073759012
 1197 0050 035B0040 		.word	1073765123
 1198 0054 24430040 		.word	1073759012
 1199 0058 035B0040 		.word	1073765123
 1200 005c 24430040 		.word	1073759012
 1201 0060 035B0040 		.word	1073765123
 1202 0064 24430040 		.word	1073759012
 1203 0068 035B0040 		.word	1073765123
 1204 006c 24430040 		.word	1073759012
 1205 0070 035B0040 		.word	1073765123
ARM GAS  C:\Users\user\AppData\Local\Temp\cc7jhrgg.s 			page 39


 1206 0074 24430040 		.word	1073759012
 1207 0078 035B0040 		.word	1073765123
 1208 007c 24430040 		.word	1073759012
 1209 0080 035B0040 		.word	1073765123
 1210 0084 24430040 		.word	1073759012
 1211 0088 035B0040 		.word	1073765123
 1212 008c 24430040 		.word	1073759012
 1213 0090 035B0040 		.word	1073765123
 1214 0094 24430040 		.word	1073759012
 1215 0098 035B0040 		.word	1073765123
 1216 009c 24430040 		.word	1073759012
 1217 00a0 035B0040 		.word	1073765123
 1218 00a4 24430040 		.word	1073759012
 1219 00a8 035B0040 		.word	1073765123
 1220 00ac 24430040 		.word	1073759012
 1221 00b0 035B0040 		.word	1073765123
 1222 00b4 24430040 		.word	1073759012
 1223 00b8 035B0040 		.word	1073765123
 1224 00bc 24430040 		.word	1073759012
 1225 00c0 035B0040 		.word	1073765123
 1226 00c4 24430040 		.word	1073759012
 1227 00c8 035B0040 		.word	1073765123
 1228 00cc 24430040 		.word	1073759012
 1229 00d0 035B0040 		.word	1073765123
 1230 00d4 24430040 		.word	1073759012
 1231 00d8 035B0040 		.word	1073765123
 1232 00dc 24430040 		.word	1073759012
 1233 00e0 035B0040 		.word	1073765123
 1234 00e4 24430040 		.word	1073759012
 1235 00e8 035B0040 		.word	1073765123
 1236 00ec 24430040 		.word	1073759012
 1237 00f0 035B0040 		.word	1073765123
 1238 00f4 24430040 		.word	1073759012
 1239 00f8 035B0040 		.word	1073765123
 1240 00fc 24430040 		.word	1073759012
 1241 0100 035B0040 		.word	1073765123
 1242 0104 24430040 		.word	1073759012
 1243 0108 035B0040 		.word	1073765123
 1244 010c 24430040 		.word	1073759012
 1245 0110 035B0040 		.word	1073765123
 1246 0114 24430040 		.word	1073759012
 1247 0118 035B0040 		.word	1073765123
 1248 011c 24430040 		.word	1073759012
 1249 0120 035B0040 		.word	1073765123
 1250 0124 24430040 		.word	1073759012
 1251 0128 035B0040 		.word	1073765123
 1252 012c 24430040 		.word	1073759012
 1253 0130 035B0040 		.word	1073765123
 1254 0134 24430040 		.word	1073759012
 1255 0138 035B0040 		.word	1073765123
 1256 013c 24430040 		.word	1073759012
 1257 0140 035B0040 		.word	1073765123
 1258 0144 24430040 		.word	1073759012
 1259 0148 0A5A0040 		.word	1073764874
 1260 014c 065B0040 		.word	1073765126
 1261              		.type	PowerMonitor_1_PM_AMux_Current__maskTable, %object
 1262              		.size	PowerMonitor_1_PM_AMux_Current__maskTable, 76
ARM GAS  C:\Users\user\AppData\Local\Temp\cc7jhrgg.s 			page 40


 1263              	PowerMonitor_1_PM_AMux_Current__maskTable:
 1264 0150 20       		.byte	32
 1265 0151 00       		.byte	0
 1266 0152 80       		.byte	-128
 1267 0153 20       		.byte	32
 1268 0154 40       		.byte	64
 1269 0155 00       		.byte	0
 1270 0156 40       		.byte	64
 1271 0157 00       		.byte	0
 1272 0158 40       		.byte	64
 1273 0159 00       		.byte	0
 1274 015a 40       		.byte	64
 1275 015b 00       		.byte	0
 1276 015c 40       		.byte	64
 1277 015d 00       		.byte	0
 1278 015e 40       		.byte	64
 1279 015f 00       		.byte	0
 1280 0160 40       		.byte	64
 1281 0161 00       		.byte	0
 1282 0162 40       		.byte	64
 1283 0163 00       		.byte	0
 1284 0164 40       		.byte	64
 1285 0165 00       		.byte	0
 1286 0166 40       		.byte	64
 1287 0167 00       		.byte	0
 1288 0168 40       		.byte	64
 1289 0169 00       		.byte	0
 1290 016a 40       		.byte	64
 1291 016b 00       		.byte	0
 1292 016c 40       		.byte	64
 1293 016d 00       		.byte	0
 1294 016e 40       		.byte	64
 1295 016f 00       		.byte	0
 1296 0170 40       		.byte	64
 1297 0171 00       		.byte	0
 1298 0172 40       		.byte	64
 1299 0173 00       		.byte	0
 1300 0174 40       		.byte	64
 1301 0175 00       		.byte	0
 1302 0176 40       		.byte	64
 1303 0177 00       		.byte	0
 1304 0178 40       		.byte	64
 1305 0179 00       		.byte	0
 1306 017a 40       		.byte	64
 1307 017b 00       		.byte	0
 1308 017c 40       		.byte	64
 1309 017d 00       		.byte	0
 1310 017e 40       		.byte	64
 1311 017f 00       		.byte	0
 1312 0180 40       		.byte	64
 1313 0181 00       		.byte	0
 1314 0182 40       		.byte	64
 1315 0183 00       		.byte	0
 1316 0184 40       		.byte	64
 1317 0185 00       		.byte	0
 1318 0186 40       		.byte	64
 1319 0187 00       		.byte	0
ARM GAS  C:\Users\user\AppData\Local\Temp\cc7jhrgg.s 			page 41


 1320 0188 40       		.byte	64
 1321 0189 00       		.byte	0
 1322 018a 40       		.byte	64
 1323 018b 00       		.byte	0
 1324 018c 40       		.byte	64
 1325 018d 00       		.byte	0
 1326 018e 40       		.byte	64
 1327 018f 00       		.byte	0
 1328 0190 40       		.byte	64
 1329 0191 00       		.byte	0
 1330 0192 40       		.byte	64
 1331 0193 00       		.byte	0
 1332 0194 40       		.byte	64
 1333 0195 00       		.byte	0
 1334 0196 40       		.byte	64
 1335 0197 00       		.byte	0
 1336 0198 40       		.byte	64
 1337 0199 00       		.byte	0
 1338 019a 02       		.byte	2
 1339 019b 02       		.byte	2
 1340              		.type	PowerMonitor_1_PM_AMux_Voltage__addrTable, %object
 1341              		.size	PowerMonitor_1_PM_AMux_Voltage__addrTable, 552
 1342              	PowerMonitor_1_PM_AMux_Voltage__addrTable:
 1343 019c 0D510040 		.word	1073762573
 1344 01a0 005B0040 		.word	1073765120
 1345 01a4 2D510040 		.word	1073762605
 1346 01a8 005B0040 		.word	1073765120
 1347 01ac 035B0040 		.word	1073765123
 1348 01b0 24430040 		.word	1073759012
 1349 01b4 035B0040 		.word	1073765123
 1350 01b8 24430040 		.word	1073759012
 1351 01bc 035B0040 		.word	1073765123
 1352 01c0 24430040 		.word	1073759012
 1353 01c4 035B0040 		.word	1073765123
 1354 01c8 24430040 		.word	1073759012
 1355 01cc 035B0040 		.word	1073765123
 1356 01d0 24430040 		.word	1073759012
 1357 01d4 035B0040 		.word	1073765123
 1358 01d8 24430040 		.word	1073759012
 1359 01dc 035B0040 		.word	1073765123
 1360 01e0 24430040 		.word	1073759012
 1361 01e4 035B0040 		.word	1073765123
 1362 01e8 24430040 		.word	1073759012
 1363 01ec 035B0040 		.word	1073765123
 1364 01f0 24430040 		.word	1073759012
 1365 01f4 035B0040 		.word	1073765123
 1366 01f8 24430040 		.word	1073759012
 1367 01fc 035B0040 		.word	1073765123
 1368 0200 24430040 		.word	1073759012
 1369 0204 035B0040 		.word	1073765123
 1370 0208 24430040 		.word	1073759012
 1371 020c 035B0040 		.word	1073765123
 1372 0210 24430040 		.word	1073759012
 1373 0214 035B0040 		.word	1073765123
 1374 0218 24430040 		.word	1073759012
 1375 021c 035B0040 		.word	1073765123
 1376 0220 24430040 		.word	1073759012
ARM GAS  C:\Users\user\AppData\Local\Temp\cc7jhrgg.s 			page 42


 1377 0224 035B0040 		.word	1073765123
 1378 0228 24430040 		.word	1073759012
 1379 022c 035B0040 		.word	1073765123
 1380 0230 24430040 		.word	1073759012
 1381 0234 035B0040 		.word	1073765123
 1382 0238 24430040 		.word	1073759012
 1383 023c 035B0040 		.word	1073765123
 1384 0240 24430040 		.word	1073759012
 1385 0244 035B0040 		.word	1073765123
 1386 0248 24430040 		.word	1073759012
 1387 024c 035B0040 		.word	1073765123
 1388 0250 24430040 		.word	1073759012
 1389 0254 035B0040 		.word	1073765123
 1390 0258 24430040 		.word	1073759012
 1391 025c 035B0040 		.word	1073765123
 1392 0260 24430040 		.word	1073759012
 1393 0264 035B0040 		.word	1073765123
 1394 0268 24430040 		.word	1073759012
 1395 026c 035B0040 		.word	1073765123
 1396 0270 24430040 		.word	1073759012
 1397 0274 035B0040 		.word	1073765123
 1398 0278 24430040 		.word	1073759012
 1399 027c 035B0040 		.word	1073765123
 1400 0280 24430040 		.word	1073759012
 1401 0284 035B0040 		.word	1073765123
 1402 0288 24430040 		.word	1073759012
 1403 028c 035B0040 		.word	1073765123
 1404 0290 24430040 		.word	1073759012
 1405 0294 035B0040 		.word	1073765123
 1406 0298 24430040 		.word	1073759012
 1407 029c 035B0040 		.word	1073765123
 1408 02a0 24430040 		.word	1073759012
 1409 02a4 035B0040 		.word	1073765123
 1410 02a8 24430040 		.word	1073759012
 1411 02ac 035B0040 		.word	1073765123
 1412 02b0 24430040 		.word	1073759012
 1413 02b4 035B0040 		.word	1073765123
 1414 02b8 24430040 		.word	1073759012
 1415 02bc 035B0040 		.word	1073765123
 1416 02c0 24430040 		.word	1073759012
 1417 02c4 035B0040 		.word	1073765123
 1418 02c8 24430040 		.word	1073759012
 1419 02cc 035B0040 		.word	1073765123
 1420 02d0 24430040 		.word	1073759012
 1421 02d4 035B0040 		.word	1073765123
 1422 02d8 24430040 		.word	1073759012
 1423 02dc 035B0040 		.word	1073765123
 1424 02e0 24430040 		.word	1073759012
 1425 02e4 035B0040 		.word	1073765123
 1426 02e8 24430040 		.word	1073759012
 1427 02ec 035B0040 		.word	1073765123
 1428 02f0 24430040 		.word	1073759012
 1429 02f4 035B0040 		.word	1073765123
 1430 02f8 24430040 		.word	1073759012
 1431 02fc 035B0040 		.word	1073765123
 1432 0300 24430040 		.word	1073759012
 1433 0304 035B0040 		.word	1073765123
ARM GAS  C:\Users\user\AppData\Local\Temp\cc7jhrgg.s 			page 43


 1434 0308 24430040 		.word	1073759012
 1435 030c 035B0040 		.word	1073765123
 1436 0310 24430040 		.word	1073759012
 1437 0314 035B0040 		.word	1073765123
 1438 0318 24430040 		.word	1073759012
 1439 031c 035B0040 		.word	1073765123
 1440 0320 24430040 		.word	1073759012
 1441 0324 035B0040 		.word	1073765123
 1442 0328 24430040 		.word	1073759012
 1443 032c 035B0040 		.word	1073765123
 1444 0330 24430040 		.word	1073759012
 1445 0334 035B0040 		.word	1073765123
 1446 0338 24430040 		.word	1073759012
 1447 033c 035B0040 		.word	1073765123
 1448 0340 24430040 		.word	1073759012
 1449 0344 035B0040 		.word	1073765123
 1450 0348 24430040 		.word	1073759012
 1451 034c 035B0040 		.word	1073765123
 1452 0350 24430040 		.word	1073759012
 1453 0354 035B0040 		.word	1073765123
 1454 0358 24430040 		.word	1073759012
 1455 035c 035B0040 		.word	1073765123
 1456 0360 24430040 		.word	1073759012
 1457 0364 035B0040 		.word	1073765123
 1458 0368 24430040 		.word	1073759012
 1459 036c 035B0040 		.word	1073765123
 1460 0370 24430040 		.word	1073759012
 1461 0374 035B0040 		.word	1073765123
 1462 0378 24430040 		.word	1073759012
 1463 037c 035B0040 		.word	1073765123
 1464 0380 24430040 		.word	1073759012
 1465 0384 035B0040 		.word	1073765123
 1466 0388 24430040 		.word	1073759012
 1467 038c 035B0040 		.word	1073765123
 1468 0390 24430040 		.word	1073759012
 1469 0394 035B0040 		.word	1073765123
 1470 0398 24430040 		.word	1073759012
 1471 039c 035B0040 		.word	1073765123
 1472 03a0 24430040 		.word	1073759012
 1473 03a4 035B0040 		.word	1073765123
 1474 03a8 24430040 		.word	1073759012
 1475 03ac 035B0040 		.word	1073765123
 1476 03b0 24430040 		.word	1073759012
 1477 03b4 035B0040 		.word	1073765123
 1478 03b8 24430040 		.word	1073759012
 1479 03bc 035B0040 		.word	1073765123
 1480 03c0 24430040 		.word	1073759012
 1481              		.type	PowerMonitor_1_PM_AMux_Voltage__maskTable, %object
 1482              		.size	PowerMonitor_1_PM_AMux_Voltage__maskTable, 138
 1483              	PowerMonitor_1_PM_AMux_Voltage__maskTable:
 1484 03c4 40       		.byte	64
 1485 03c5 40       		.byte	64
 1486 03c6 01       		.byte	1
 1487 03c7 01       		.byte	1
 1488 03c8 04       		.byte	4
 1489 03c9 00       		.byte	0
 1490 03ca 04       		.byte	4
ARM GAS  C:\Users\user\AppData\Local\Temp\cc7jhrgg.s 			page 44


 1491 03cb 00       		.byte	0
 1492 03cc 04       		.byte	4
 1493 03cd 00       		.byte	0
 1494 03ce 04       		.byte	4
 1495 03cf 00       		.byte	0
 1496 03d0 04       		.byte	4
 1497 03d1 00       		.byte	0
 1498 03d2 04       		.byte	4
 1499 03d3 00       		.byte	0
 1500 03d4 04       		.byte	4
 1501 03d5 00       		.byte	0
 1502 03d6 04       		.byte	4
 1503 03d7 00       		.byte	0
 1504 03d8 04       		.byte	4
 1505 03d9 00       		.byte	0
 1506 03da 04       		.byte	4
 1507 03db 00       		.byte	0
 1508 03dc 04       		.byte	4
 1509 03dd 00       		.byte	0
 1510 03de 04       		.byte	4
 1511 03df 00       		.byte	0
 1512 03e0 04       		.byte	4
 1513 03e1 00       		.byte	0
 1514 03e2 04       		.byte	4
 1515 03e3 00       		.byte	0
 1516 03e4 04       		.byte	4
 1517 03e5 00       		.byte	0
 1518 03e6 04       		.byte	4
 1519 03e7 00       		.byte	0
 1520 03e8 04       		.byte	4
 1521 03e9 00       		.byte	0
 1522 03ea 04       		.byte	4
 1523 03eb 00       		.byte	0
 1524 03ec 04       		.byte	4
 1525 03ed 00       		.byte	0
 1526 03ee 04       		.byte	4
 1527 03ef 00       		.byte	0
 1528 03f0 04       		.byte	4
 1529 03f1 00       		.byte	0
 1530 03f2 04       		.byte	4
 1531 03f3 00       		.byte	0
 1532 03f4 04       		.byte	4
 1533 03f5 00       		.byte	0
 1534 03f6 04       		.byte	4
 1535 03f7 00       		.byte	0
 1536 03f8 04       		.byte	4
 1537 03f9 00       		.byte	0
 1538 03fa 04       		.byte	4
 1539 03fb 00       		.byte	0
 1540 03fc 04       		.byte	4
 1541 03fd 00       		.byte	0
 1542 03fe 04       		.byte	4
 1543 03ff 00       		.byte	0
 1544 0400 04       		.byte	4
 1545 0401 00       		.byte	0
 1546 0402 04       		.byte	4
 1547 0403 00       		.byte	0
ARM GAS  C:\Users\user\AppData\Local\Temp\cc7jhrgg.s 			page 45


 1548 0404 04       		.byte	4
 1549 0405 00       		.byte	0
 1550 0406 04       		.byte	4
 1551 0407 00       		.byte	0
 1552 0408 04       		.byte	4
 1553 0409 00       		.byte	0
 1554 040a 04       		.byte	4
 1555 040b 00       		.byte	0
 1556 040c 04       		.byte	4
 1557 040d 00       		.byte	0
 1558 040e 04       		.byte	4
 1559 040f 00       		.byte	0
 1560 0410 04       		.byte	4
 1561 0411 00       		.byte	0
 1562 0412 04       		.byte	4
 1563 0413 00       		.byte	0
 1564 0414 04       		.byte	4
 1565 0415 00       		.byte	0
 1566 0416 04       		.byte	4
 1567 0417 00       		.byte	0
 1568 0418 04       		.byte	4
 1569 0419 00       		.byte	0
 1570 041a 04       		.byte	4
 1571 041b 00       		.byte	0
 1572 041c 04       		.byte	4
 1573 041d 00       		.byte	0
 1574 041e 04       		.byte	4
 1575 041f 00       		.byte	0
 1576 0420 04       		.byte	4
 1577 0421 00       		.byte	0
 1578 0422 04       		.byte	4
 1579 0423 00       		.byte	0
 1580 0424 04       		.byte	4
 1581 0425 00       		.byte	0
 1582 0426 04       		.byte	4
 1583 0427 00       		.byte	0
 1584 0428 04       		.byte	4
 1585 0429 00       		.byte	0
 1586 042a 04       		.byte	4
 1587 042b 00       		.byte	0
 1588 042c 04       		.byte	4
 1589 042d 00       		.byte	0
 1590 042e 04       		.byte	4
 1591 042f 00       		.byte	0
 1592 0430 04       		.byte	4
 1593 0431 00       		.byte	0
 1594 0432 04       		.byte	4
 1595 0433 00       		.byte	0
 1596 0434 04       		.byte	4
 1597 0435 00       		.byte	0
 1598 0436 04       		.byte	4
 1599 0437 00       		.byte	0
 1600 0438 04       		.byte	4
 1601 0439 00       		.byte	0
 1602 043a 04       		.byte	4
 1603 043b 00       		.byte	0
 1604 043c 04       		.byte	4
ARM GAS  C:\Users\user\AppData\Local\Temp\cc7jhrgg.s 			page 46


 1605 043d 00       		.byte	0
 1606 043e 04       		.byte	4
 1607 043f 00       		.byte	0
 1608 0440 04       		.byte	4
 1609 0441 00       		.byte	0
 1610 0442 04       		.byte	4
 1611 0443 00       		.byte	0
 1612 0444 04       		.byte	4
 1613 0445 00       		.byte	0
 1614 0446 04       		.byte	4
 1615 0447 00       		.byte	0
 1616 0448 04       		.byte	4
 1617 0449 00       		.byte	0
 1618 044a 04       		.byte	4
 1619 044b 00       		.byte	0
 1620 044c 04       		.byte	4
 1621 044d 00       		.byte	0
 1622 044e 0000     		.space	2
 1623              		.type	cfg_memset_list.5052, %object
 1624              		.size	cfg_memset_list.5052, 36
 1625              	cfg_memset_list.5052:
 1626 0450 40510040 		.word	1073762624
 1627 0454 3000     		.short	48
 1628 0456 00000140 		.4byte	1073807360
 1629 045a 0010     		.short	4096
 1630 045c 00140140 		.word	1073812480
 1631 0460 0008     		.short	2048
 1632 0462 00400140 		.4byte	1073823744
 1633 0466 000A     		.short	2560
 1634 0468 004C0140 		.word	1073826816
 1635 046c 0002     		.short	512
 1636 046e 10500140 		.4byte	1073827856
 1637 0472 1000     		.short	16
 1638              		.type	cfg_memcpy_list.5053, %object
 1639              		.size	cfg_memcpy_list.5053, 10
 1640              	cfg_memcpy_list.5053:
 1641 0474 00500140 		.word	1073827840
 1642 0478 B0090048 		.word	1207962032
 1643 047c 1000     		.short	16
 1644              		.text
 1645              	.Letext0:
 1646              		.file 2 "c:\\program files (x86)\\cypress\\psoc creator\\4.2\\psoc creator\\import\\gnu\\arm\\5.4.
 1647              		.file 3 "Generated_Source\\PSoC5\\cytypes.h"
 1648              		.file 4 "Generated_Source\\PSoC5\\CyLib.h"