ARM GAS  C:\Users\user\AppData\Local\Temp\ccz43Mr1.s 			page 1


   1              		.syntax unified
   2              		.cpu cortex-m3
   3              		.fpu softvfp
   4              		.eabi_attribute 20, 1
   5              		.eabi_attribute 21, 1
   6              		.eabi_attribute 23, 3
   7              		.eabi_attribute 24, 1
   8              		.eabi_attribute 25, 1
   9              		.eabi_attribute 26, 1
  10              		.eabi_attribute 30, 1
  11              		.eabi_attribute 34, 1
  12              		.eabi_attribute 18, 4
  13              		.thumb
  14              		.syntax unified
  15              		.file	"main.c"
  16              		.text
  17              	.Ltext0:
  18              		.cfi_sections	.debug_frame
  19              		.section	.text.USB_NeWk,"ax",%progbits
  20              		.align	2
  21              		.global	USB_NeWk
  22              		.thumb
  23              		.thumb_func
  24              		.type	USB_NeWk, %function
  25              	USB_NeWk:
  26              	.LFB65:
  27              		.file 1 "main.c"
   1:main.c        **** /* ========================================
   2:main.c        ****  *
   3:main.c        ****  * Copyright YOUR COMPANY, THE YEAR
   4:main.c        ****  * All Rights Reserved
   5:main.c        ****  * UNPUBLISHED, LICENSED SOFTWARE.
   6:main.c        ****  *
   7:main.c        ****  * CONFIDENTIAL AND PROPRIETARY INFORMATION
   8:main.c        ****  * WHICH IS THE PROPERTY OF your company.
   9:main.c        ****  *
  10:main.c        ****  * ========================================
  11:main.c        **** */
  12:main.c        **** #include "project.h"
  13:main.c        **** //#include <unistd.h> 
  14:main.c        **** #include "DSP.h"
  15:main.c        **** /*#include <stdlib.h>
  16:main.c        **** #include "res.h"
  17:main.c        **** 
  18:main.c        **** #include <math.h>  
  19:main.c        ****  uint16 Dacc;
  20:main.c        **** */
  21:main.c        **** void init_usb_my();
  22:main.c        **** void init_Gen();
  23:main.c        **** void USB_NeWk();
  24:main.c        **** 
  25:main.c        **** uint8 count;
  26:main.c        **** uint8 buffer[128];
  27:main.c        **** 
  28:main.c        **** uint8 buffer_out1[1280];
  29:main.c        **** uint8 SZ[1000];
  30:main.c        **** 
ARM GAS  C:\Users\user\AppData\Local\Temp\ccz43Mr1.s 			page 2


  31:main.c        **** 
  32:main.c        **** int main(void)
  33:main.c        **** {
  34:main.c        ****     CyGlobalIntEnable; 
  35:main.c        ****     init_usb_my();
  36:main.c        ****    // init_Gen();
  37:main.c        ****     
  38:main.c        ****     ///инициализация элиментов
  39:main.c        **** Control_Reg_1_Write(0x0)   ;
  40:main.c        **** Count7_1_Init();
  41:main.c        **** Count7_1_Start();
  42:main.c        **** ShiftReg_5_Init();
  43:main.c        **** ShiftReg_6_Init();
  44:main.c        **** ShiftReg_7_Init();
  45:main.c        **** ShiftReg_8_Init();
  46:main.c        **** ShiftReg_5_Start();
  47:main.c        **** ShiftReg_6_Start();
  48:main.c        **** ShiftReg_7_Start();
  49:main.c        **** ShiftReg_8_Start();
  50:main.c        **** 
  51:main.c        **** 
  52:main.c        **** Opamp_Channel1_Init();
  53:main.c        **** Opamp_Channel1_Start();
  54:main.c        **** PGA_Channel1_Init();
  55:main.c        **** PGA_Channel1_Start();
  56:main.c        **** Opamp_Channel1_1_Init();
  57:main.c        **** Opamp_Channel1_1_Start();
  58:main.c        **** 
  59:main.c        **** 
  60:main.c        ****  USB_isr_Start();
  61:main.c        ****  USB_isr_SetVector (USB_NeWk) ;
  62:main.c        **** 
  63:main.c        **** ShiftReg_5_WriteData(0x003A2);
  64:main.c        **** ShiftReg_6_WriteData(0x9ba5e3);
  65:main.c        ****                Control_Reg_1_Write(0xFF)   ;
  66:main.c        ****     for(;;)
  67:main.c        ****     {
  68:main.c        ****       //USB_NeWk();
  69:main.c        ****        
  70:main.c        ****     }
  71:main.c        **** }
  72:main.c        **** static int8 Mouse_Data[3] = {0, 0, 0}; /* [0] = Buttons, [1] = X-Axis, [2] = Y-Axis */
  73:main.c        **** static uint16 Delay = 0;
  74:main.c        **** void init_usb_my()
  75:main.c        **** {
  76:main.c        ****     USBUART_1_Start(0, USBUART_1_3V_OPERATION);//!!NOTE!! Make sure this matches your board voltage
  77:main.c        ****   
  78:main.c        ****     
  79:main.c        ****     while(!USBUART_1_GetConfiguration());
  80:main.c        ****     USBUART_1_CDC_Init();
  81:main.c        ****    USBUART_1_LoadInEP(1, (uint8 *)Mouse_Data, 3); 
  82:main.c        **** 
  83:main.c        **** }
  84:main.c        **** 
  85:main.c        **** //CY_ISR (Tim_ISR1)
  86:main.c        **** //{
  87:main.c        ****  //   
ARM GAS  C:\Users\user\AppData\Local\Temp\ccz43Mr1.s 			page 3


  88:main.c        ****  //VDAC8_1_SetValue(0);
  89:main.c        **** //USAR_();
  90:main.c        ****     
  91:main.c        ****  //Stop_ADC_Write(0xff);
  92:main.c        **** //}
  93:main.c        **** 
  94:main.c        **** CY_ISR (USB_NeWk)
  95:main.c        **** {
  28              		.loc 1 95 0
  29              		.cfi_startproc
  30              		@ args = 0, pretend = 0, frame = 0
  31              		@ frame_needed = 0, uses_anonymous_args = 0
  32 0000 08B5     		push	{r3, lr}
  33              		.cfi_def_cfa_offset 8
  34              		.cfi_offset 3, -8
  35              		.cfi_offset 14, -4
  96:main.c        ****    
  97:main.c        ****     
  98:main.c        ****   if(USBUART_1_DataIsReady() != 0u)               
  36              		.loc 1 98 0
  37 0002 FFF7FEFF 		bl	USBUART_1_DataIsReady
  38              	.LVL0:
  39 0006 98B1     		cbz	r0, .L1
  99:main.c        ****         {   
 100:main.c        ****             count = USBUART_1_GetAll(buffer);           
  40              		.loc 1 100 0
  41 0008 0A48     		ldr	r0, .L5
  42 000a FFF7FEFF 		bl	USBUART_1_GetAll
  43              	.LVL1:
  44 000e 0A4B     		ldr	r3, .L5+4
  45 0010 1870     		strb	r0, [r3]
  46              	.L3:
 101:main.c        ****             if(count >= 0)
 102:main.c        ****             {
 103:main.c        ****                 while(USBUART_1_CDCIsReady() == 0u);   
  47              		.loc 1 103 0 discriminator 1
  48 0012 FFF7FEFF 		bl	USBUART_1_CDCIsReady
  49              	.LVL2:
  50 0016 0028     		cmp	r0, #0
  51 0018 FBD0     		beq	.L3
 104:main.c        ****                if (Server_Function(buffer ,count)<0)
  52              		.loc 1 104 0
  53 001a 074B     		ldr	r3, .L5+4
  54 001c 1978     		ldrb	r1, [r3]	@ zero_extendqisi2
  55 001e 0548     		ldr	r0, .L5
  56 0020 FFF7FEFF 		bl	Server_Function
  57              	.LVL3:
  58 0024 0028     		cmp	r0, #0
  59 0026 03DA     		bge	.L1
 105:main.c        ****                    USBUART_1_PutData("ERROR", 5);  
  60              		.loc 1 105 0
  61 0028 0521     		movs	r1, #5
  62 002a 0448     		ldr	r0, .L5+8
  63 002c FFF7FEFF 		bl	USBUART_1_PutData
  64              	.LVL4:
  65              	.L1:
  66 0030 08BD     		pop	{r3, pc}
ARM GAS  C:\Users\user\AppData\Local\Temp\ccz43Mr1.s 			page 4


  67              	.L6:
  68 0032 00BF     		.align	2
  69              	.L5:
  70 0034 00000000 		.word	buffer
  71 0038 00000000 		.word	count
  72 003c 00000000 		.word	.LC0
  73              		.cfi_endproc
  74              	.LFE65:
  75              		.size	USB_NeWk, .-USB_NeWk
  76              		.section	.text.init_usb_my,"ax",%progbits
  77              		.align	2
  78              		.global	init_usb_my
  79              		.thumb
  80              		.thumb_func
  81              		.type	init_usb_my, %function
  82              	init_usb_my:
  83              	.LFB64:
  75:main.c        ****     USBUART_1_Start(0, USBUART_1_3V_OPERATION);//!!NOTE!! Make sure this matches your board voltage
  84              		.loc 1 75 0
  85              		.cfi_startproc
  86              		@ args = 0, pretend = 0, frame = 0
  87              		@ frame_needed = 0, uses_anonymous_args = 0
  88 0000 08B5     		push	{r3, lr}
  89              		.cfi_def_cfa_offset 8
  90              		.cfi_offset 3, -8
  91              		.cfi_offset 14, -4
  76:main.c        ****   
  92              		.loc 1 76 0
  93 0002 0021     		movs	r1, #0
  94 0004 0846     		mov	r0, r1
  95 0006 FFF7FEFF 		bl	USBUART_1_Start
  96              	.LVL5:
  97              	.L8:
  79:main.c        ****     USBUART_1_CDC_Init();
  98              		.loc 1 79 0 discriminator 1
  99 000a FFF7FEFF 		bl	USBUART_1_GetConfiguration
 100              	.LVL6:
 101 000e 0028     		cmp	r0, #0
 102 0010 FBD0     		beq	.L8
  80:main.c        ****    USBUART_1_LoadInEP(1, (uint8 *)Mouse_Data, 3); 
 103              		.loc 1 80 0
 104 0012 FFF7FEFF 		bl	USBUART_1_CDC_Init
 105              	.LVL7:
  81:main.c        **** 
 106              		.loc 1 81 0
 107 0016 0322     		movs	r2, #3
 108 0018 0249     		ldr	r1, .L10
 109 001a 0120     		movs	r0, #1
 110 001c FFF7FEFF 		bl	USBUART_1_LoadInEP
 111              	.LVL8:
 112 0020 08BD     		pop	{r3, pc}
 113              	.L11:
 114 0022 00BF     		.align	2
 115              	.L10:
 116 0024 00000000 		.word	.LANCHOR0
 117              		.cfi_endproc
 118              	.LFE64:
ARM GAS  C:\Users\user\AppData\Local\Temp\ccz43Mr1.s 			page 5


 119              		.size	init_usb_my, .-init_usb_my
 120              		.section	.text.main,"ax",%progbits
 121              		.align	2
 122              		.global	main
 123              		.thumb
 124              		.thumb_func
 125              		.type	main, %function
 126              	main:
 127              	.LFB63:
  33:main.c        ****     CyGlobalIntEnable; 
 128              		.loc 1 33 0
 129              		.cfi_startproc
 130              		@ Volatile: function does not return.
 131              		@ args = 0, pretend = 0, frame = 0
 132              		@ frame_needed = 0, uses_anonymous_args = 0
 133 0000 08B5     		push	{r3, lr}
 134              		.cfi_def_cfa_offset 8
 135              		.cfi_offset 3, -8
 136              		.cfi_offset 14, -4
  34:main.c        ****     init_usb_my();
 137              		.loc 1 34 0
 138              		.syntax unified
 139              	@ 34 "main.c" 1
 140 0002 62B6     		CPSIE   i
 141              	@ 0 "" 2
  35:main.c        ****    // init_Gen();
 142              		.loc 1 35 0
 143              		.thumb
 144              		.syntax unified
 145 0004 FFF7FEFF 		bl	init_usb_my
 146              	.LVL9:
  39:main.c        **** Count7_1_Init();
 147              		.loc 1 39 0
 148 0008 0020     		movs	r0, #0
 149 000a FFF7FEFF 		bl	Control_Reg_1_Write
 150              	.LVL10:
  40:main.c        **** Count7_1_Start();
 151              		.loc 1 40 0
 152 000e FFF7FEFF 		bl	Count7_1_Init
 153              	.LVL11:
  41:main.c        **** ShiftReg_5_Init();
 154              		.loc 1 41 0
 155 0012 FFF7FEFF 		bl	Count7_1_Start
 156              	.LVL12:
  42:main.c        **** ShiftReg_6_Init();
 157              		.loc 1 42 0
 158 0016 FFF7FEFF 		bl	ShiftReg_5_Init
 159              	.LVL13:
  43:main.c        **** ShiftReg_7_Init();
 160              		.loc 1 43 0
 161 001a FFF7FEFF 		bl	ShiftReg_6_Init
 162              	.LVL14:
  44:main.c        **** ShiftReg_8_Init();
 163              		.loc 1 44 0
 164 001e FFF7FEFF 		bl	ShiftReg_7_Init
 165              	.LVL15:
  45:main.c        **** ShiftReg_5_Start();
ARM GAS  C:\Users\user\AppData\Local\Temp\ccz43Mr1.s 			page 6


 166              		.loc 1 45 0
 167 0022 FFF7FEFF 		bl	ShiftReg_8_Init
 168              	.LVL16:
  46:main.c        **** ShiftReg_6_Start();
 169              		.loc 1 46 0
 170 0026 FFF7FEFF 		bl	ShiftReg_5_Start
 171              	.LVL17:
  47:main.c        **** ShiftReg_7_Start();
 172              		.loc 1 47 0
 173 002a FFF7FEFF 		bl	ShiftReg_6_Start
 174              	.LVL18:
  48:main.c        **** ShiftReg_8_Start();
 175              		.loc 1 48 0
 176 002e FFF7FEFF 		bl	ShiftReg_7_Start
 177              	.LVL19:
  49:main.c        **** 
 178              		.loc 1 49 0
 179 0032 FFF7FEFF 		bl	ShiftReg_8_Start
 180              	.LVL20:
  52:main.c        **** Opamp_Channel1_Start();
 181              		.loc 1 52 0
 182 0036 FFF7FEFF 		bl	Opamp_Channel1_Init
 183              	.LVL21:
  53:main.c        **** PGA_Channel1_Init();
 184              		.loc 1 53 0
 185 003a FFF7FEFF 		bl	Opamp_Channel1_Start
 186              	.LVL22:
  54:main.c        **** PGA_Channel1_Start();
 187              		.loc 1 54 0
 188 003e FFF7FEFF 		bl	PGA_Channel1_Init
 189              	.LVL23:
  55:main.c        **** Opamp_Channel1_1_Init();
 190              		.loc 1 55 0
 191 0042 FFF7FEFF 		bl	PGA_Channel1_Start
 192              	.LVL24:
  56:main.c        **** Opamp_Channel1_1_Start();
 193              		.loc 1 56 0
 194 0046 FFF7FEFF 		bl	Opamp_Channel1_1_Init
 195              	.LVL25:
  57:main.c        **** 
 196              		.loc 1 57 0
 197 004a FFF7FEFF 		bl	Opamp_Channel1_1_Start
 198              	.LVL26:
  60:main.c        ****  USB_isr_SetVector (USB_NeWk) ;
 199              		.loc 1 60 0
 200 004e FFF7FEFF 		bl	USB_isr_Start
 201              	.LVL27:
  61:main.c        **** 
 202              		.loc 1 61 0
 203 0052 0748     		ldr	r0, .L15
 204 0054 FFF7FEFF 		bl	USB_isr_SetVector
 205              	.LVL28:
  63:main.c        **** ShiftReg_6_WriteData(0x9ba5e3);
 206              		.loc 1 63 0
 207 0058 40F2A230 		movw	r0, #930
 208 005c FFF7FEFF 		bl	ShiftReg_5_WriteData
 209              	.LVL29:
ARM GAS  C:\Users\user\AppData\Local\Temp\ccz43Mr1.s 			page 7


  64:main.c        ****                Control_Reg_1_Write(0xFF)   ;
 210              		.loc 1 64 0
 211 0060 0448     		ldr	r0, .L15+4
 212 0062 FFF7FEFF 		bl	ShiftReg_6_WriteData
 213              	.LVL30:
  65:main.c        ****     for(;;)
 214              		.loc 1 65 0
 215 0066 FF20     		movs	r0, #255
 216 0068 FFF7FEFF 		bl	Control_Reg_1_Write
 217              	.LVL31:
 218              	.L13:
 219 006c FEE7     		b	.L13
 220              	.L16:
 221 006e 00BF     		.align	2
 222              	.L15:
 223 0070 00000000 		.word	USB_NeWk
 224 0074 E3A59B00 		.word	10200547
 225              		.cfi_endproc
 226              	.LFE63:
 227              		.size	main, .-main
 228              		.comm	SZ,1000,4
 229              		.comm	buffer_out1,1280,4
 230              		.comm	buffer,128,4
 231              		.comm	count,1,1
 232              		.comm	BIX_Y,32,4
 233              		.comm	BIX_X,32,4
 234              		.comm	NeWk,16,4
 235              		.comm	Nk,16,4
 236              		.comm	buffer_out,128,4
 237              		.section	.rodata.str1.4,"aMS",%progbits,1
 238              		.align	2
 239              	.LC0:
 240 0000 4552524F 		.ascii	"ERROR\000"
 240      5200
 241              		.bss
 242              		.align	2
 243              		.set	.LANCHOR0,. + 0
 244              		.type	Mouse_Data, %object
 245              		.size	Mouse_Data, 3
 246              	Mouse_Data:
 247 0000 000000   		.space	3
 248              		.text
 249              	.Letext0:
 250              		.file 2 "c:\\program files (x86)\\cypress\\psoc creator\\4.2\\psoc creator\\import\\gnu\\arm\\5.4.
 251              		.file 3 "c:\\program files (x86)\\cypress\\psoc creator\\4.2\\psoc creator\\import\\gnu\\arm\\5.4.
 252              		.file 4 "Generated_Source\\PSoC5/cytypes.h"
 253              		.file 5 "DSP.h"
 254              		.file 6 "Generated_Source\\PSoC5/core_cm3.h"
 255              		.file 7 "Generated_Source\\PSoC5/USBUART_1_cdc.h"
 256              		.file 8 "Generated_Source\\PSoC5/USBUART_1.h"
 257              		.file 9 "Generated_Source\\PSoC5/Control_Reg_1.h"
 258              		.file 10 "Generated_Source\\PSoC5/Count7_1.h"
 259              		.file 11 "Generated_Source\\PSoC5/ShiftReg_5.h"
 260              		.file 12 "Generated_Source\\PSoC5/ShiftReg_6.h"
 261              		.file 13 "Generated_Source\\PSoC5/ShiftReg_7.h"
 262              		.file 14 "Generated_Source\\PSoC5/ShiftReg_8.h"
 263              		.file 15 "Generated_Source\\PSoC5/Opamp_Channel1.h"
ARM GAS  C:\Users\user\AppData\Local\Temp\ccz43Mr1.s 			page 8


 264              		.file 16 "Generated_Source\\PSoC5/PGA_Channel1.h"
 265              		.file 17 "Generated_Source\\PSoC5/Opamp_Channel1_1.h"
 266              		.file 18 "Generated_Source\\PSoC5/USB_isr.h"