ARM GAS  C:\Users\user\AppData\Local\Temp\ccpxa6kC.s 			page 1


   1              		.syntax unified
   2              		.cpu cortex-m3
   3              		.fpu softvfp
   4              		.eabi_attribute 20, 1
   5              		.eabi_attribute 21, 1
   6              		.eabi_attribute 23, 3
   7              		.eabi_attribute 24, 1
   8              		.eabi_attribute 25, 1
   9              		.eabi_attribute 26, 1
  10              		.eabi_attribute 30, 1
  11              		.eabi_attribute 34, 1
  12              		.eabi_attribute 18, 4
  13              		.thumb
  14              		.syntax unified
  15              		.file	"PowerMonitor_1_INT.c"
  16              		.text
  17              	.Ltext0:
  18              		.cfi_sections	.debug_frame
  19              		.section	.text.PowerMonitor_1_SaveDsmRegsAndIsolate,"ax",%progbits
  20              		.align	2
  21              		.thumb
  22              		.thumb_func
  23              		.type	PowerMonitor_1_SaveDsmRegsAndIsolate, %function
  24              	PowerMonitor_1_SaveDsmRegsAndIsolate:
  25              	.LFB4:
  26              		.file 1 "Generated_Source\\PSoC5\\PowerMonitor_1_INT.c"
   1:Generated_Source\PSoC5/PowerMonitor_1_INT.c **** /*******************************************************************************
   2:Generated_Source\PSoC5/PowerMonitor_1_INT.c **** * File Name: PowerMonitor_1_INT.c
   3:Generated_Source\PSoC5/PowerMonitor_1_INT.c **** * Version 1.60
   4:Generated_Source\PSoC5/PowerMonitor_1_INT.c **** *
   5:Generated_Source\PSoC5/PowerMonitor_1_INT.c **** * Description:
   6:Generated_Source\PSoC5/PowerMonitor_1_INT.c **** *  This file contains the code that operates during the PowerMonitor interrupt
   7:Generated_Source\PSoC5/PowerMonitor_1_INT.c **** *  service routine.
   8:Generated_Source\PSoC5/PowerMonitor_1_INT.c **** *
   9:Generated_Source\PSoC5/PowerMonitor_1_INT.c **** * Note:
  10:Generated_Source\PSoC5/PowerMonitor_1_INT.c **** *
  11:Generated_Source\PSoC5/PowerMonitor_1_INT.c **** *******************************************************************************
  12:Generated_Source\PSoC5/PowerMonitor_1_INT.c **** * Copyright 2012-2013, Cypress Semiconductor Corporation.  All rights reserved.
  13:Generated_Source\PSoC5/PowerMonitor_1_INT.c **** * You may use this file only in accordance with the license, terms, conditions,
  14:Generated_Source\PSoC5/PowerMonitor_1_INT.c **** * disclaimers, and limitations in the end user license agreement accompanying
  15:Generated_Source\PSoC5/PowerMonitor_1_INT.c **** * the software package with which this file was provided.
  16:Generated_Source\PSoC5/PowerMonitor_1_INT.c **** ********************************************************************************/
  17:Generated_Source\PSoC5/PowerMonitor_1_INT.c **** 
  18:Generated_Source\PSoC5/PowerMonitor_1_INT.c **** #include "PowerMonitor_1.h"
  19:Generated_Source\PSoC5/PowerMonitor_1_INT.c **** #include "PowerMonitor_1_PM_AMux_Voltage.h"
  20:Generated_Source\PSoC5/PowerMonitor_1_INT.c **** #include "PowerMonitor_1_PM_AMux_Current.h"
  21:Generated_Source\PSoC5/PowerMonitor_1_INT.c **** #include "PowerMonitor_1_ADC.h"
  22:Generated_Source\PSoC5/PowerMonitor_1_INT.c **** #include "cyapicallbacks.h"
  23:Generated_Source\PSoC5/PowerMonitor_1_INT.c **** 
  24:Generated_Source\PSoC5/PowerMonitor_1_INT.c **** 
  25:Generated_Source\PSoC5/PowerMonitor_1_INT.c **** /******************************************************************************
  26:Generated_Source\PSoC5/PowerMonitor_1_INT.c **** * Custom Declarations and Variables
  27:Generated_Source\PSoC5/PowerMonitor_1_INT.c **** * - add user inlcude files, prototypes and variables between the following
  28:Generated_Source\PSoC5/PowerMonitor_1_INT.c **** *   #START and #END tags
  29:Generated_Source\PSoC5/PowerMonitor_1_INT.c **** ******************************************************************************/
  30:Generated_Source\PSoC5/PowerMonitor_1_INT.c **** /* `#START POWER_MONITOR_VAR`  */
  31:Generated_Source\PSoC5/PowerMonitor_1_INT.c **** 
ARM GAS  C:\Users\user\AppData\Local\Temp\ccpxa6kC.s 			page 2


  32:Generated_Source\PSoC5/PowerMonitor_1_INT.c **** /* `#END`  */
  33:Generated_Source\PSoC5/PowerMonitor_1_INT.c **** 
  34:Generated_Source\PSoC5/PowerMonitor_1_INT.c **** 
  35:Generated_Source\PSoC5/PowerMonitor_1_INT.c **** /*******************************************************************************
  36:Generated_Source\PSoC5/PowerMonitor_1_INT.c **** * Global variables
  37:Generated_Source\PSoC5/PowerMonitor_1_INT.c **** *******************************************************************************/
  38:Generated_Source\PSoC5/PowerMonitor_1_INT.c **** 
  39:Generated_Source\PSoC5/PowerMonitor_1_INT.c **** /*******************************************************************************
  40:Generated_Source\PSoC5/PowerMonitor_1_INT.c **** *   PowerMonitor_1_adcStartFalseCnt  - False adc count during filter init
  41:Generated_Source\PSoC5/PowerMonitor_1_INT.c **** *   PowerMonitor_1_PMoutEn           - Output signals enable
  42:Generated_Source\PSoC5/PowerMonitor_1_INT.c **** *   PowerMonitor_1_adcConvNow        - Conversion in progress
  43:Generated_Source\PSoC5/PowerMonitor_1_INT.c **** *   PowerMonitor_1_adcConvNext       - Next conversion
  44:Generated_Source\PSoC5/PowerMonitor_1_INT.c **** *   PowerMonitor_1_adcConvNextPreCal - Holds old Next before switching to
  45:Generated_Source\PSoC5/PowerMonitor_1_INT.c ****                                          calibration state
  46:Generated_Source\PSoC5/PowerMonitor_1_INT.c **** *   PowerMonitor_1_adcConvCalType    - Calibration type is in grogress
  47:Generated_Source\PSoC5/PowerMonitor_1_INT.c **** *   PowerMonitor_1_adcMaxChannels    - Calibration type is in grogress
  48:Generated_Source\PSoC5/PowerMonitor_1_INT.c **** *******************************************************************************/
  49:Generated_Source\PSoC5/PowerMonitor_1_INT.c **** volatile uint8 CYDATA PowerMonitor_1_adcStartFalseCnt;
  50:Generated_Source\PSoC5/PowerMonitor_1_INT.c **** volatile CYBIT PowerMonitor_1_PMoutEn;
  51:Generated_Source\PSoC5/PowerMonitor_1_INT.c **** volatile uint8 CYDATA PowerMonitor_1_adcConvNow;
  52:Generated_Source\PSoC5/PowerMonitor_1_INT.c **** volatile uint8 CYDATA PowerMonitor_1_adcConvNext;
  53:Generated_Source\PSoC5/PowerMonitor_1_INT.c **** volatile uint8 CYDATA PowerMonitor_1_adcConvNextPreCal;
  54:Generated_Source\PSoC5/PowerMonitor_1_INT.c **** volatile uint8 CYDATA PowerMonitor_1_adcConvCalType;
  55:Generated_Source\PSoC5/PowerMonitor_1_INT.c **** volatile uint8 CYDATA PowerMonitor_1_maxChannels;
  56:Generated_Source\PSoC5/PowerMonitor_1_INT.c **** 
  57:Generated_Source\PSoC5/PowerMonitor_1_INT.c **** 
  58:Generated_Source\PSoC5/PowerMonitor_1_INT.c **** /*******************************************************************************
  59:Generated_Source\PSoC5/PowerMonitor_1_INT.c **** *  Variables to hold the raw calibration values. The raw readings need to be
  60:Generated_Source\PSoC5/PowerMonitor_1_INT.c **** *  subsequently processed to yield the proper calibration adjustments.
  61:Generated_Source\PSoC5/PowerMonitor_1_INT.c **** *******************************************************************************/
  62:Generated_Source\PSoC5/PowerMonitor_1_INT.c **** /*                                                                 ~ VALUE, RANGE Description */
  63:Generated_Source\PSoC5/PowerMonitor_1_INT.c **** volatile int16 CYXDATA PowerMonitor_1_adcZeroCalRawCfg1;      /* ~     0, 2048 zero    */
  64:Generated_Source\PSoC5/PowerMonitor_1_INT.c **** volatile int16 CYXDATA PowerMonitor_1_adcGainCalRawCfg1;      /* ~ -1024, 2048 DSM Vref */
  65:Generated_Source\PSoC5/PowerMonitor_1_INT.c **** volatile int16 CYXDATA PowerMonitor_1_adcSCCalRawCfg1;        /* ~ -2048, 2048 PGA   */
  66:Generated_Source\PSoC5/PowerMonitor_1_INT.c **** volatile int16 CYXDATA PowerMonitor_1_adcZeroCalRawCfg2;      /* ~     0,   64 zero  */
  67:Generated_Source\PSoC5/PowerMonitor_1_INT.c **** volatile int16 CYXDATA PowerMonitor_1_adcGainCalRawCfg2a;
  68:Generated_Source\PSoC5/PowerMonitor_1_INT.c **** volatile int16 CYXDATA PowerMonitor_1_adcGainCalRawCfg2b;
  69:Generated_Source\PSoC5/PowerMonitor_1_INT.c **** volatile int16 CYXDATA PowerMonitor_1_adcZeroCalRawCfg3;      /* ~     0, 1024 zero    */
  70:Generated_Source\PSoC5/PowerMonitor_1_INT.c **** volatile int16 CYXDATA PowerMonitor_1_adcGainCalRawCfg3;      /* ~ -2048, 1024 DSM Vref */
  71:Generated_Source\PSoC5/PowerMonitor_1_INT.c **** volatile int16 CYXDATA PowerMonitor_1_adcSCCalRawCfg3;        /* ~ -2048, 1024 Vref   */
  72:Generated_Source\PSoC5/PowerMonitor_1_INT.c **** /*******************************************************************************
  73:Generated_Source\PSoC5/PowerMonitor_1_INT.c **** * PowerMonitor_1_ADC_RAWVOLTS_STRUCT - ADC votage reading structure
  74:Generated_Source\PSoC5/PowerMonitor_1_INT.c **** *                                    (one struct per channel)
  75:Generated_Source\PSoC5/PowerMonitor_1_INT.c **** *        rawVoltage[] = array of raw ADC readings. .
  76:Generated_Source\PSoC5/PowerMonitor_1_INT.c **** *******************************************************************************/
  77:Generated_Source\PSoC5/PowerMonitor_1_INT.c **** typedef struct
  78:Generated_Source\PSoC5/PowerMonitor_1_INT.c **** {
  79:Generated_Source\PSoC5/PowerMonitor_1_INT.c ****     /* Raw ADC samples      */
  80:Generated_Source\PSoC5/PowerMonitor_1_INT.c ****     volatile int16 rawVoltage[PowerMonitor_1_VOLTAGE_FILTER_SIZE];
  81:Generated_Source\PSoC5/PowerMonitor_1_INT.c **** } PowerMonitor_1_ADC_RAWVOLTS_STRUCT;
  82:Generated_Source\PSoC5/PowerMonitor_1_INT.c **** 
  83:Generated_Source\PSoC5/PowerMonitor_1_INT.c **** /* Array to hold ADC raw values of voltage channels of each converter */
  84:Generated_Source\PSoC5/PowerMonitor_1_INT.c **** PowerMonitor_1_ADC_RAWVOLTS_STRUCT CYXDATA PowerMonitor_1_voltFilt[PowerMonitor_1_NUMBER_OF_CONVERT
  85:Generated_Source\PSoC5/PowerMonitor_1_INT.c **** 
  86:Generated_Source\PSoC5/PowerMonitor_1_INT.c **** /* Array to hold filtered ADC value for each voltage inputs */
  87:Generated_Source\PSoC5/PowerMonitor_1_INT.c **** PowerMonitor_1_ADC_CTL_STRUCT  CYXDATA PowerMonitor_1_voltCtl[PowerMonitor_1_NUMBER_OF_CONVERTERS];
  88:Generated_Source\PSoC5/PowerMonitor_1_INT.c **** 
ARM GAS  C:\Users\user\AppData\Local\Temp\ccpxa6kC.s 			page 3


  89:Generated_Source\PSoC5/PowerMonitor_1_INT.c **** 
  90:Generated_Source\PSoC5/PowerMonitor_1_INT.c **** #if (PowerMonitor_1_NUM_CURRENT_SOURCES > 0u)
  91:Generated_Source\PSoC5/PowerMonitor_1_INT.c **** /*******************************************************************************
  92:Generated_Source\PSoC5/PowerMonitor_1_INT.c **** * PowerMonitor_1_ADC_RAWCURRENT_STRUCT - ADC votage reading structure
  93:Generated_Source\PSoC5/PowerMonitor_1_INT.c **** *                                    (one struct per channel)
  94:Generated_Source\PSoC5/PowerMonitor_1_INT.c **** *        rawVoltage[] = array of raw ADC readings. .
  95:Generated_Source\PSoC5/PowerMonitor_1_INT.c **** *******************************************************************************/
  96:Generated_Source\PSoC5/PowerMonitor_1_INT.c **** typedef struct
  97:Generated_Source\PSoC5/PowerMonitor_1_INT.c **** {
  98:Generated_Source\PSoC5/PowerMonitor_1_INT.c ****     /* Raw ADC samples      */
  99:Generated_Source\PSoC5/PowerMonitor_1_INT.c ****     volatile int16 rawVoltage[PowerMonitor_1_CURRENT_FILTER_SIZE];
 100:Generated_Source\PSoC5/PowerMonitor_1_INT.c **** } PowerMonitor_1_ADC_RAWCURRENT_STRUCT;
 101:Generated_Source\PSoC5/PowerMonitor_1_INT.c **** 
 102:Generated_Source\PSoC5/PowerMonitor_1_INT.c **** /* Array to hold ADC raw values of current channels of each converter */
 103:Generated_Source\PSoC5/PowerMonitor_1_INT.c **** PowerMonitor_1_ADC_RAWCURRENT_STRUCT CYXDATA PowerMonitor_1_ampFilt[PowerMonitor_1_NUM_CURRENT_SOUR
 104:Generated_Source\PSoC5/PowerMonitor_1_INT.c **** 
 105:Generated_Source\PSoC5/PowerMonitor_1_INT.c **** /* Array to hold filtered ADC value for each current channels */
 106:Generated_Source\PSoC5/PowerMonitor_1_INT.c **** PowerMonitor_1_ADC_CTL_STRUCT  CYXDATA PowerMonitor_1_ampCtl[PowerMonitor_1_NUM_CURRENT_SOURCES];
 107:Generated_Source\PSoC5/PowerMonitor_1_INT.c **** 
 108:Generated_Source\PSoC5/PowerMonitor_1_INT.c **** #endif /* (PowerMonitor_1_NUM_CURRENT_SOURCES > 0u) */
 109:Generated_Source\PSoC5/PowerMonitor_1_INT.c **** 
 110:Generated_Source\PSoC5/PowerMonitor_1_INT.c **** 
 111:Generated_Source\PSoC5/PowerMonitor_1_INT.c **** #if (PowerMonitor_1_NUM_AUX_INPUTS > 0u)
 112:Generated_Source\PSoC5/PowerMonitor_1_INT.c **** /*******************************************************************************
 113:Generated_Source\PSoC5/PowerMonitor_1_INT.c **** * PowerMonitor_1_ADC_RAWAUXVOLTS_STRUCT - ADC votage reading structure
 114:Generated_Source\PSoC5/PowerMonitor_1_INT.c **** *                                    (one struct per channel)
 115:Generated_Source\PSoC5/PowerMonitor_1_INT.c **** *        rawVoltage[] = array of raw ADC readings. .
 116:Generated_Source\PSoC5/PowerMonitor_1_INT.c **** *******************************************************************************/
 117:Generated_Source\PSoC5/PowerMonitor_1_INT.c **** typedef struct
 118:Generated_Source\PSoC5/PowerMonitor_1_INT.c **** {
 119:Generated_Source\PSoC5/PowerMonitor_1_INT.c ****     /* Raw ADC samples      */
 120:Generated_Source\PSoC5/PowerMonitor_1_INT.c ****     volatile int16 rawVoltage[PowerMonitor_1_AUX_VOLTAGE_FILTER_SIZE];
 121:Generated_Source\PSoC5/PowerMonitor_1_INT.c **** } PowerMonitor_1_ADC_RAWAUXVOLTS_STRUCT;
 122:Generated_Source\PSoC5/PowerMonitor_1_INT.c **** 
 123:Generated_Source\PSoC5/PowerMonitor_1_INT.c **** /* Array to hold ADC raw values of aux voltage channels of each converter */
 124:Generated_Source\PSoC5/PowerMonitor_1_INT.c **** PowerMonitor_1_ADC_RAWAUXVOLTS_STRUCT CYXDATA PowerMonitor_1_auxVoltFilt[PowerMonitor_1_NUM_AUX_INP
 125:Generated_Source\PSoC5/PowerMonitor_1_INT.c **** 
 126:Generated_Source\PSoC5/PowerMonitor_1_INT.c **** /* Array to hold filtered ADC value for each aux inputs */
 127:Generated_Source\PSoC5/PowerMonitor_1_INT.c **** PowerMonitor_1_ADC_CTL_STRUCT  CYXDATA PowerMonitor_1_auxVoltCtl[PowerMonitor_1_NUM_AUX_INPUTS];
 128:Generated_Source\PSoC5/PowerMonitor_1_INT.c **** #endif /* (PowerMonitor_1_NUM_AUX_INPUTS > 0u) */
 129:Generated_Source\PSoC5/PowerMonitor_1_INT.c **** 
 130:Generated_Source\PSoC5/PowerMonitor_1_INT.c **** /* Supervisor_adcWarnWin[] = table of Min/Max values (scaled to filtered sum) */
 131:Generated_Source\PSoC5/PowerMonitor_1_INT.c **** PowerMonitor_1_WARNWIN_STRUCT CYXDATA PowerMonitor_1_warnWin [PowerMonitor_1_NUMBER_OF_CONVERTERS];
 132:Generated_Source\PSoC5/PowerMonitor_1_INT.c **** PowerMonitor_1_FAULTWIN_STRUCT CYXDATA PowerMonitor_1_faultWin [PowerMonitor_1_NUMBER_OF_CONVERTERS
 133:Generated_Source\PSoC5/PowerMonitor_1_INT.c **** 
 134:Generated_Source\PSoC5/PowerMonitor_1_INT.c **** /* last voltage, current annd auxiliary voltage channels */
 135:Generated_Source\PSoC5/PowerMonitor_1_INT.c **** uint8 CYDATA PowerMonitor_1_lastVoltageChan;
 136:Generated_Source\PSoC5/PowerMonitor_1_INT.c **** uint8 CYDATA PowerMonitor_1_lastCurrentChan;
 137:Generated_Source\PSoC5/PowerMonitor_1_INT.c **** uint8 CYDATA PowerMonitor_1_lastAuxVoltChan;
 138:Generated_Source\PSoC5/PowerMonitor_1_INT.c **** 
 139:Generated_Source\PSoC5/PowerMonitor_1_INT.c **** /* Array to hold the pgood status */
 140:Generated_Source\PSoC5/PowerMonitor_1_INT.c **** #if (PowerMonitor_1_DEFAULT_PGOOD_CONFIG == PowerMonitor_1_PGOOD_INDIVIDUAL)
 141:Generated_Source\PSoC5/PowerMonitor_1_INT.c ****     static uint8 CYPDATA PowerMonitor_1_faultStatus[PowerMonitor_1_NUMBER_OF_CONVERTERS];
 142:Generated_Source\PSoC5/PowerMonitor_1_INT.c **** #endif /* (PowerMonitor_1_DEFAULT_PGOOD_CONFIG == PowerMonitor_1_PGOOD_INDIVIDUAL) */
 143:Generated_Source\PSoC5/PowerMonitor_1_INT.c **** 
 144:Generated_Source\PSoC5/PowerMonitor_1_INT.c **** #if ((PowerMonitor_1_NUM_CURRENT_SOURCES > 0u) || (PowerMonitor_1_NUM_AUX_INPUTS > 0u))
 145:Generated_Source\PSoC5/PowerMonitor_1_INT.c ****     uint8 CYDATA PowerMonitor_1_index = 0u;
ARM GAS  C:\Users\user\AppData\Local\Temp\ccpxa6kC.s 			page 4


 146:Generated_Source\PSoC5/PowerMonitor_1_INT.c **** #endif /* (PowerMonitor_1_NUM_CURRENT_SOURCES > 0u) */
 147:Generated_Source\PSoC5/PowerMonitor_1_INT.c **** 
 148:Generated_Source\PSoC5/PowerMonitor_1_INT.c **** #if (PowerMonitor_1_NUM_AUX_INPUTS > 0u)
 149:Generated_Source\PSoC5/PowerMonitor_1_INT.c ****     uint8 CYDATA PowerMonitor_1_auxIndex = 0u;
 150:Generated_Source\PSoC5/PowerMonitor_1_INT.c ****     int16 PowerMonitor_1_auxStore;
 151:Generated_Source\PSoC5/PowerMonitor_1_INT.c **** #endif /* (PowerMonitor_1_NUM_AUX_INPUTS > 0u) */
 152:Generated_Source\PSoC5/PowerMonitor_1_INT.c **** 
 153:Generated_Source\PSoC5/PowerMonitor_1_INT.c **** /* variables to store the DSM routing registers */
 154:Generated_Source\PSoC5/PowerMonitor_1_INT.c **** static uint8 PowerMonitor_1_keep_CYREG_DSM0_SW0; /* vp_ag[7:0] */
 155:Generated_Source\PSoC5/PowerMonitor_1_INT.c **** static uint8 PowerMonitor_1_keep_CYREG_DSM0_SW2; /* vp_abus[2],[0] */
 156:Generated_Source\PSoC5/PowerMonitor_1_INT.c **** /* _[vn_vssa][vn_vref]_ _[vp_vssa]_[vp_amx] */
 157:Generated_Source\PSoC5/PowerMonitor_1_INT.c **** static uint8 PowerMonitor_1_keep_CYREG_DSM0_SW3;
 158:Generated_Source\PSoC5/PowerMonitor_1_INT.c **** static uint8 PowerMonitor_1_keep_CYREG_DSM0_SW4; /* vn_ag[7,5,3,1] */
 159:Generated_Source\PSoC5/PowerMonitor_1_INT.c **** static uint8 PowerMonitor_1_keep_CYREG_DSM0_SW6; /* vn_abus[3,1] */
 160:Generated_Source\PSoC5/PowerMonitor_1_INT.c **** 
 161:Generated_Source\PSoC5/PowerMonitor_1_INT.c **** 
 162:Generated_Source\PSoC5/PowerMonitor_1_INT.c **** /*******************************************************************************
 163:Generated_Source\PSoC5/PowerMonitor_1_INT.c **** * ADC_CONFIGURATION macro - Ensures the desired ADC Configuration is selected
 164:Generated_Source\PSoC5/PowerMonitor_1_INT.c **** *
 165:Generated_Source\PSoC5/PowerMonitor_1_INT.c **** * ADC_CONFIG_PUSH_NEW(newConfig) - Set new config and copy as being pushed
 166:Generated_Source\PSoC5/PowerMonitor_1_INT.c **** * ADC_CONFIG_POP     ()          - Pop prior pushed config
 167:Generated_Source\PSoC5/PowerMonitor_1_INT.c **** * ADC_CONFIG_PUSH_OLD(newConfig) - Push old config and set a new config
 168:Generated_Source\PSoC5/PowerMonitor_1_INT.c **** *
 169:Generated_Source\PSoC5/PowerMonitor_1_INT.c **** *******************************************************************************/
 170:Generated_Source\PSoC5/PowerMonitor_1_INT.c **** static uint8 CYDATA PowerMonitor_1_adcConfig = 0xffu;
 171:Generated_Source\PSoC5/PowerMonitor_1_INT.c **** static uint8 CYDATA PowerMonitor_1_adcConvDoneConfig = 0xffu;
 172:Generated_Source\PSoC5/PowerMonitor_1_INT.c **** static uint8 CYDATA PowerMonitor_1_adcConfigCalPush;
 173:Generated_Source\PSoC5/PowerMonitor_1_INT.c **** 
 174:Generated_Source\PSoC5/PowerMonitor_1_INT.c **** #if(PowerMonitor_1_SINGLE_ENDED_INPUT_MODE == PowerMonitor_1__ADC_DELSIG__BYPASS_BUFFER)
 175:Generated_Source\PSoC5/PowerMonitor_1_INT.c ****     #define PowerMonitor_1_ADC_CONFIG_SET(newConfig)                                     \
 176:Generated_Source\PSoC5/PowerMonitor_1_INT.c ****         do {                                                                               \
 177:Generated_Source\PSoC5/PowerMonitor_1_INT.c ****             if (PowerMonitor_1_adcConfig != newConfig)                                   \
 178:Generated_Source\PSoC5/PowerMonitor_1_INT.c ****             {                                                                              \
 179:Generated_Source\PSoC5/PowerMonitor_1_INT.c ****                 PowerMonitor_1_adcConfig = newConfig;                                    \
 180:Generated_Source\PSoC5/PowerMonitor_1_INT.c ****                 PowerMonitor_1_ADC_SelectConfiguration(newConfig, 0u);                   \
 181:Generated_Source\PSoC5/PowerMonitor_1_INT.c ****                 if( (newConfig == PowerMonitor_1_SE_VOLTAGE_RANGE) || (newConfig == PowerMonitor_1_
 182:Generated_Source\PSoC5/PowerMonitor_1_INT.c ****                 {                                                                                  
 183:Generated_Source\PSoC5/PowerMonitor_1_INT.c ****                     PowerMonitor_1_ADC_DSM_BUF0_REG    = PowerMonitor_1_ADC_DSM_BYPASS_P;          
 184:Generated_Source\PSoC5/PowerMonitor_1_INT.c ****                     PowerMonitor_1_ADC_DSM_BUF1_REG    = PowerMonitor_1_ADC_DSM_BYPASS_N;          
 185:Generated_Source\PSoC5/PowerMonitor_1_INT.c ****                     PowerMonitor_1_ADC_DSM_BUF2_REG    = 0u;                                       
 186:Generated_Source\PSoC5/PowerMonitor_1_INT.c ****                     PowerMonitor_1_ADC_DSM_BUF3_REG    = 0u;                                       
 187:Generated_Source\PSoC5/PowerMonitor_1_INT.c ****                 }                                                                                  
 188:Generated_Source\PSoC5/PowerMonitor_1_INT.c ****                 CyIntSetVector(PowerMonitor_1_IRQ__INTC_NUMBER, PowerMonitor_1_ISR );  \
 189:Generated_Source\PSoC5/PowerMonitor_1_INT.c ****                 PowerMonitor_1_ADC_Start();                                              \
 190:Generated_Source\PSoC5/PowerMonitor_1_INT.c ****             }                                                                              \
 191:Generated_Source\PSoC5/PowerMonitor_1_INT.c ****         } while(0)
 192:Generated_Source\PSoC5/PowerMonitor_1_INT.c **** #else  /* PowerMonitor_1_SINGLE_ENDED_INPUT_MODE == PowerMonitor_1__ADC_DELSIG__LEVEL_SHIFT */
 193:Generated_Source\PSoC5/PowerMonitor_1_INT.c ****     #define PowerMonitor_1_ADC_CONFIG_SET(newConfig)                                     \
 194:Generated_Source\PSoC5/PowerMonitor_1_INT.c ****         do {                                                                               \
 195:Generated_Source\PSoC5/PowerMonitor_1_INT.c ****             if (PowerMonitor_1_adcConfig != newConfig)                                   \
 196:Generated_Source\PSoC5/PowerMonitor_1_INT.c ****             {                                                                              \
 197:Generated_Source\PSoC5/PowerMonitor_1_INT.c ****                 PowerMonitor_1_adcConfig = newConfig;                                    \
 198:Generated_Source\PSoC5/PowerMonitor_1_INT.c ****                 PowerMonitor_1_ADC_SelectConfiguration(newConfig, 0u);                   \
 199:Generated_Source\PSoC5/PowerMonitor_1_INT.c ****                 CyIntSetVector(PowerMonitor_1_IRQ__INTC_NUMBER, PowerMonitor_1_ISR );  \
 200:Generated_Source\PSoC5/PowerMonitor_1_INT.c ****                 PowerMonitor_1_ADC_Start();                                              \
 201:Generated_Source\PSoC5/PowerMonitor_1_INT.c ****             }                                                                              \
 202:Generated_Source\PSoC5/PowerMonitor_1_INT.c ****         } while(0)
ARM GAS  C:\Users\user\AppData\Local\Temp\ccpxa6kC.s 			page 5


 203:Generated_Source\PSoC5/PowerMonitor_1_INT.c **** #endif /* PowerMonitor_1_SINGLE_ENDED_INPUT_MODE == PowerMonitor_1__ADC_DELSIG__BYPASS_BUFFER */
 204:Generated_Source\PSoC5/PowerMonitor_1_INT.c **** #define PowerMonitor_1_ADC_CONFIG_PUSH_NEW(newConfig)                  \
 205:Generated_Source\PSoC5/PowerMonitor_1_INT.c ****     do {                                                                 \
 206:Generated_Source\PSoC5/PowerMonitor_1_INT.c ****         PowerMonitor_1_ADC_CONFIG_SET(newConfig);                      \
 207:Generated_Source\PSoC5/PowerMonitor_1_INT.c ****         PowerMonitor_1_adcConfigCalPush = PowerMonitor_1_adcConfig;  \
 208:Generated_Source\PSoC5/PowerMonitor_1_INT.c ****         PowerMonitor_1_adcCfgPopPend = PowerMonitor_1_CYTRUE;        \
 209:Generated_Source\PSoC5/PowerMonitor_1_INT.c ****     } while (0)
 210:Generated_Source\PSoC5/PowerMonitor_1_INT.c **** 
 211:Generated_Source\PSoC5/PowerMonitor_1_INT.c **** #define PowerMonitor_1_ADC_CONFIG_POP()                                   \
 212:Generated_Source\PSoC5/PowerMonitor_1_INT.c ****     do {                                                                    \
 213:Generated_Source\PSoC5/PowerMonitor_1_INT.c ****         PowerMonitor_1_ADC_CONFIG_SET(PowerMonitor_1_adcConfigCalPush); \
 214:Generated_Source\PSoC5/PowerMonitor_1_INT.c ****         PowerMonitor_1_adcCfgPopPend = PowerMonitor_1_CYFALSE;          \
 215:Generated_Source\PSoC5/PowerMonitor_1_INT.c ****     } while(0)
 216:Generated_Source\PSoC5/PowerMonitor_1_INT.c **** 
 217:Generated_Source\PSoC5/PowerMonitor_1_INT.c **** #define PowerMonitor_1_ADC_CONFIG_PUSH_OLD(newConfig)                  \
 218:Generated_Source\PSoC5/PowerMonitor_1_INT.c ****     do {                                                                 \
 219:Generated_Source\PSoC5/PowerMonitor_1_INT.c ****         PowerMonitor_1_adcConfigCalPush = PowerMonitor_1_adcConfig;  \
 220:Generated_Source\PSoC5/PowerMonitor_1_INT.c ****         PowerMonitor_1_ADC_CONFIG_SET(newConfig);                      \
 221:Generated_Source\PSoC5/PowerMonitor_1_INT.c ****         PowerMonitor_1_adcCfgPopPend = PowerMonitor_1_CYTRUE;        \
 222:Generated_Source\PSoC5/PowerMonitor_1_INT.c ****     } while(0)
 223:Generated_Source\PSoC5/PowerMonitor_1_INT.c **** 
 224:Generated_Source\PSoC5/PowerMonitor_1_INT.c **** 
 225:Generated_Source\PSoC5/PowerMonitor_1_INT.c **** /*******************************************************************************
 226:Generated_Source\PSoC5/PowerMonitor_1_INT.c **** * Used when punctuated "calibration" didn't really mess with the analog
 227:Generated_Source\PSoC5/PowerMonitor_1_INT.c **** * switch routing (like when it's the first IRQ after reset).
 228:Generated_Source\PSoC5/PowerMonitor_1_INT.c **** *******************************************************************************/
 229:Generated_Source\PSoC5/PowerMonitor_1_INT.c **** static CYBIT PowerMonitor_1_justReset;
 230:Generated_Source\PSoC5/PowerMonitor_1_INT.c **** /* AMUX Channel select variable */
 231:Generated_Source\PSoC5/PowerMonitor_1_INT.c **** static uint8 CYDATA PowerMonitor_1_amuxChan;
 232:Generated_Source\PSoC5/PowerMonitor_1_INT.c **** /* Bit variable to decide whether to restore the DSM registers or not */
 233:Generated_Source\PSoC5/PowerMonitor_1_INT.c **** static CYBIT PowerMonitor_1_dsmRegRestorePend = PowerMonitor_1_CYFALSE;
 234:Generated_Source\PSoC5/PowerMonitor_1_INT.c **** static CYBIT PowerMonitor_1_adcCfgPopPend     = PowerMonitor_1_CYFALSE;
 235:Generated_Source\PSoC5/PowerMonitor_1_INT.c **** 
 236:Generated_Source\PSoC5/PowerMonitor_1_INT.c **** #if (PowerMonitor_1_DEFAULT_PGOOD_CONFIG == PowerMonitor_1_PGOOD_GLOBAL)
 237:Generated_Source\PSoC5/PowerMonitor_1_INT.c ****     static CYBIT PowerMonitor_1_faultDetected;
 238:Generated_Source\PSoC5/PowerMonitor_1_INT.c **** #endif /* (PowerMonitor_1_DEFAULT_PGOOD_CONFIG == PowerMonitor_1_PGOOD_GLOBAL) */
 239:Generated_Source\PSoC5/PowerMonitor_1_INT.c **** volatile int16 CYXDATA * CYDATA PowerMonitor_1_pCalStore = 0u;
 240:Generated_Source\PSoC5/PowerMonitor_1_INT.c **** 
 241:Generated_Source\PSoC5/PowerMonitor_1_INT.c **** 
 242:Generated_Source\PSoC5/PowerMonitor_1_INT.c **** /******************************************************************************
 243:Generated_Source\PSoC5/PowerMonitor_1_INT.c **** *    Local APIs
 244:Generated_Source\PSoC5/PowerMonitor_1_INT.c **** ******************************************************************************/
 245:Generated_Source\PSoC5/PowerMonitor_1_INT.c **** static void PowerMonitor_1_SaveDsmRegsAndIsolate   (void) \
 246:Generated_Source\PSoC5/PowerMonitor_1_INT.c ****                            ;
 247:Generated_Source\PSoC5/PowerMonitor_1_INT.c **** static void PowerMonitor_1_RestoreDsmRegs          (void) \
 248:Generated_Source\PSoC5/PowerMonitor_1_INT.c ****                            ;
 249:Generated_Source\PSoC5/PowerMonitor_1_INT.c **** static uint8 PowerMonitor_1_GetMaxFilterOrder      (void) \
 250:Generated_Source\PSoC5/PowerMonitor_1_INT.c ****                            ;
 251:Generated_Source\PSoC5/PowerMonitor_1_INT.c **** 
 252:Generated_Source\PSoC5/PowerMonitor_1_INT.c **** /*******************************************************************************
 253:Generated_Source\PSoC5/PowerMonitor_1_INT.c **** * Function Name: Supervisor_AdcIsrStart()
 254:Generated_Source\PSoC5/PowerMonitor_1_INT.c **** ********************************************************************************
 255:Generated_Source\PSoC5/PowerMonitor_1_INT.c **** *
 256:Generated_Source\PSoC5/PowerMonitor_1_INT.c **** * Summary:
 257:Generated_Source\PSoC5/PowerMonitor_1_INT.c **** *  Set-up and begin the autonomous ADC ISR thread. Starts the ADC operation by
 258:Generated_Source\PSoC5/PowerMonitor_1_INT.c **** *  initially setting the software interrupt and excecuting the ISR routine.
 259:Generated_Source\PSoC5/PowerMonitor_1_INT.c **** *
ARM GAS  C:\Users\user\AppData\Local\Temp\ccpxa6kC.s 			page 6


 260:Generated_Source\PSoC5/PowerMonitor_1_INT.c **** * Parameters:
 261:Generated_Source\PSoC5/PowerMonitor_1_INT.c **** *  None
 262:Generated_Source\PSoC5/PowerMonitor_1_INT.c **** *
 263:Generated_Source\PSoC5/PowerMonitor_1_INT.c **** * Return:
 264:Generated_Source\PSoC5/PowerMonitor_1_INT.c **** *  None.
 265:Generated_Source\PSoC5/PowerMonitor_1_INT.c **** *
 266:Generated_Source\PSoC5/PowerMonitor_1_INT.c **** *******************************************************************************/
 267:Generated_Source\PSoC5/PowerMonitor_1_INT.c **** void PowerMonitor_1_IsrStart(void) 
 268:Generated_Source\PSoC5/PowerMonitor_1_INT.c **** {
 269:Generated_Source\PSoC5/PowerMonitor_1_INT.c ****     /* Disable and set the interrupt priority */
 270:Generated_Source\PSoC5/PowerMonitor_1_INT.c ****     PowerMonitor_1_IntDisable      (PowerMonitor_1_IRQ__INTC_NUMBER);
 271:Generated_Source\PSoC5/PowerMonitor_1_INT.c ****     CyIntSetPriority  (PowerMonitor_1_IRQ__INTC_NUMBER, PowerMonitor_1_IRQ_INTC_PRIOR_NUMBER);
 272:Generated_Source\PSoC5/PowerMonitor_1_INT.c **** 
 273:Generated_Source\PSoC5/PowerMonitor_1_INT.c ****     /* Initialize the variables with values */
 274:Generated_Source\PSoC5/PowerMonitor_1_INT.c ****     PowerMonitor_1_adcStartFalseCnt   = PowerMonitor_1_GetMaxFilterOrder();
 275:Generated_Source\PSoC5/PowerMonitor_1_INT.c ****     PowerMonitor_1_PMoutEn            = PowerMonitor_1_CYFALSE;
 276:Generated_Source\PSoC5/PowerMonitor_1_INT.c ****     PowerMonitor_1_adcConvNow         = PowerMonitor_1_STATE_CAL;
 277:Generated_Source\PSoC5/PowerMonitor_1_INT.c ****     PowerMonitor_1_adcConvNext        = PowerMonitor_1_STATE_CAL;
 278:Generated_Source\PSoC5/PowerMonitor_1_INT.c ****     PowerMonitor_1_adcConvCalType     = PowerMonitor_1_CAL_START;
 279:Generated_Source\PSoC5/PowerMonitor_1_INT.c **** 
 280:Generated_Source\PSoC5/PowerMonitor_1_INT.c ****     /* Setting the interrupt vecotr for software interrupt and enabling it */
 281:Generated_Source\PSoC5/PowerMonitor_1_INT.c ****     CyIntSetVector(PowerMonitor_1_IRQ__INTC_NUMBER, PowerMonitor_1_ISR);
 282:Generated_Source\PSoC5/PowerMonitor_1_INT.c ****     CyIntSetPending   (PowerMonitor_1_IRQ__INTC_NUMBER);
 283:Generated_Source\PSoC5/PowerMonitor_1_INT.c ****     PowerMonitor_1_IntEnable       (PowerMonitor_1_IRQ__INTC_NUMBER);
 284:Generated_Source\PSoC5/PowerMonitor_1_INT.c **** }
 285:Generated_Source\PSoC5/PowerMonitor_1_INT.c **** 
 286:Generated_Source\PSoC5/PowerMonitor_1_INT.c **** 
 287:Generated_Source\PSoC5/PowerMonitor_1_INT.c **** /*******************************************************************************
 288:Generated_Source\PSoC5/PowerMonitor_1_INT.c **** * Function Name: Set_First_Channel()
 289:Generated_Source\PSoC5/PowerMonitor_1_INT.c **** ********************************************************************************
 290:Generated_Source\PSoC5/PowerMonitor_1_INT.c **** *
 291:Generated_Source\PSoC5/PowerMonitor_1_INT.c **** * Summary:
 292:Generated_Source\PSoC5/PowerMonitor_1_INT.c **** *  Set analog multiplexer and configure ADC for the first channel.
 293:Generated_Source\PSoC5/PowerMonitor_1_INT.c **** *
 294:Generated_Source\PSoC5/PowerMonitor_1_INT.c **** * Parameters:
 295:Generated_Source\PSoC5/PowerMonitor_1_INT.c **** *  None
 296:Generated_Source\PSoC5/PowerMonitor_1_INT.c **** *
 297:Generated_Source\PSoC5/PowerMonitor_1_INT.c **** * Return:
 298:Generated_Source\PSoC5/PowerMonitor_1_INT.c **** *  None.
 299:Generated_Source\PSoC5/PowerMonitor_1_INT.c **** *
 300:Generated_Source\PSoC5/PowerMonitor_1_INT.c **** *******************************************************************************/
 301:Generated_Source\PSoC5/PowerMonitor_1_INT.c **** static void PowerMonitor_1_Set_First_Channel(void) 
 302:Generated_Source\PSoC5/PowerMonitor_1_INT.c **** {
 303:Generated_Source\PSoC5/PowerMonitor_1_INT.c ****     PowerMonitor_1_adcConvNow = PowerMonitor_1_ISR_STATE_0;
 304:Generated_Source\PSoC5/PowerMonitor_1_INT.c ****     PowerMonitor_1_adcConvNext = PowerMonitor_1_ISR_STATE_0 + 1;
 305:Generated_Source\PSoC5/PowerMonitor_1_INT.c ****     /* Update AmuxChan flag */
 306:Generated_Source\PSoC5/PowerMonitor_1_INT.c ****     PowerMonitor_1_amuxChan = PowerMonitor_1_adcConvNow;
 307:Generated_Source\PSoC5/PowerMonitor_1_INT.c ****     /* Select the proper AMux Channel */
 308:Generated_Source\PSoC5/PowerMonitor_1_INT.c ****     PowerMonitor_1_PM_AMux_Voltage_FastSelect(PowerMonitor_1_amuxChan);
 309:Generated_Source\PSoC5/PowerMonitor_1_INT.c **** 
 310:Generated_Source\PSoC5/PowerMonitor_1_INT.c ****     if (PowerMonitor_1_VoltageType[0] == PowerMonitor_1_VOLTAGE_TYPE_SINGLE)
 311:Generated_Source\PSoC5/PowerMonitor_1_INT.c ****     {
 312:Generated_Source\PSoC5/PowerMonitor_1_INT.c ****         PowerMonitor_1_PM_AMux_Current_FastSelect(PowerMonitor_1_PGA_OUT_CHAN);
 313:Generated_Source\PSoC5/PowerMonitor_1_INT.c ****         PowerMonitor_1_ADC_CONFIG_PUSH_NEW(PowerMonitor_1_SE_VOLTAGE_RANGE);
 314:Generated_Source\PSoC5/PowerMonitor_1_INT.c ****     }
 315:Generated_Source\PSoC5/PowerMonitor_1_INT.c ****     else
 316:Generated_Source\PSoC5/PowerMonitor_1_INT.c ****     {
ARM GAS  C:\Users\user\AppData\Local\Temp\ccpxa6kC.s 			page 7


 317:Generated_Source\PSoC5/PowerMonitor_1_INT.c ****         PowerMonitor_1_PM_AMux_Current_FastSelect(PowerMonitor_1_amuxChan);
 318:Generated_Source\PSoC5/PowerMonitor_1_INT.c ****         PowerMonitor_1_ADC_CONFIG_PUSH_NEW(PowerMonitor_1_RANGE_2048);
 319:Generated_Source\PSoC5/PowerMonitor_1_INT.c ****     }
 320:Generated_Source\PSoC5/PowerMonitor_1_INT.c **** }
 321:Generated_Source\PSoC5/PowerMonitor_1_INT.c **** 
 322:Generated_Source\PSoC5/PowerMonitor_1_INT.c **** 
 323:Generated_Source\PSoC5/PowerMonitor_1_INT.c **** #if (PowerMonitor_1_NUM_AUX_INPUTS > 0u)
 324:Generated_Source\PSoC5/PowerMonitor_1_INT.c **** 
 325:Generated_Source\PSoC5/PowerMonitor_1_INT.c ****     /*******************************************************************************
 326:Generated_Source\PSoC5/PowerMonitor_1_INT.c ****     * Function Name: Set_Aux_Channel()
 327:Generated_Source\PSoC5/PowerMonitor_1_INT.c ****     ********************************************************************************
 328:Generated_Source\PSoC5/PowerMonitor_1_INT.c ****     *
 329:Generated_Source\PSoC5/PowerMonitor_1_INT.c ****     * Summary:
 330:Generated_Source\PSoC5/PowerMonitor_1_INT.c ****     *  Set analog multiplexer and configure ADC for the auxiliary channel.
 331:Generated_Source\PSoC5/PowerMonitor_1_INT.c ****     *
 332:Generated_Source\PSoC5/PowerMonitor_1_INT.c ****     * Parameters:
 333:Generated_Source\PSoC5/PowerMonitor_1_INT.c ****     *  sampleMode: Specifies the sample mode
 334:Generated_Source\PSoC5/PowerMonitor_1_INT.c ****     *              0 - Continuous, 1 - On Demand.
 335:Generated_Source\PSoC5/PowerMonitor_1_INT.c ****     *      For the On Demand mode, PowerMonitor_1_auxIndex variable should be
 336:Generated_Source\PSoC5/PowerMonitor_1_INT.c ****     *      configured with auxilary channel number.
 337:Generated_Source\PSoC5/PowerMonitor_1_INT.c ****     *
 338:Generated_Source\PSoC5/PowerMonitor_1_INT.c ****     * Return:
 339:Generated_Source\PSoC5/PowerMonitor_1_INT.c ****     *  None.
 340:Generated_Source\PSoC5/PowerMonitor_1_INT.c ****     *
 341:Generated_Source\PSoC5/PowerMonitor_1_INT.c ****     *******************************************************************************/
 342:Generated_Source\PSoC5/PowerMonitor_1_INT.c ****     static void PowerMonitor_1_Set_Aux_Channel(uint8 sampleMode) 
 343:Generated_Source\PSoC5/PowerMonitor_1_INT.c ****     {
 344:Generated_Source\PSoC5/PowerMonitor_1_INT.c ****         if(sampleMode == PowerMonitor_1_CONTINUOUS)
 345:Generated_Source\PSoC5/PowerMonitor_1_INT.c ****         {
 346:Generated_Source\PSoC5/PowerMonitor_1_INT.c ****             /* Check to see whether auxiliary channel is enabled or not. If it is
 347:Generated_Source\PSoC5/PowerMonitor_1_INT.c ****             *  disabled skip auxiliary channels.
 348:Generated_Source\PSoC5/PowerMonitor_1_INT.c ****             */
 349:Generated_Source\PSoC5/PowerMonitor_1_INT.c ****             while (((PowerMonitor_1_auxEnableMask >> PowerMonitor_1_index) & 1u) == 0u)
 350:Generated_Source\PSoC5/PowerMonitor_1_INT.c ****             {
 351:Generated_Source\PSoC5/PowerMonitor_1_INT.c ****                 PowerMonitor_1_index++;
 352:Generated_Source\PSoC5/PowerMonitor_1_INT.c ****                 PowerMonitor_1_adcConvNow++;
 353:Generated_Source\PSoC5/PowerMonitor_1_INT.c ****                 PowerMonitor_1_adcConvNext++;
 354:Generated_Source\PSoC5/PowerMonitor_1_INT.c ****                 if(PowerMonitor_1_index >= PowerMonitor_1_NUM_AUX_INPUTS)
 355:Generated_Source\PSoC5/PowerMonitor_1_INT.c ****                 {
 356:Generated_Source\PSoC5/PowerMonitor_1_INT.c ****                     break;
 357:Generated_Source\PSoC5/PowerMonitor_1_INT.c ****                 }
 358:Generated_Source\PSoC5/PowerMonitor_1_INT.c ****             }
 359:Generated_Source\PSoC5/PowerMonitor_1_INT.c ****             PowerMonitor_1_auxIndex = PowerMonitor_1_index;
 360:Generated_Source\PSoC5/PowerMonitor_1_INT.c ****         }
 361:Generated_Source\PSoC5/PowerMonitor_1_INT.c ****         if(PowerMonitor_1_auxIndex < PowerMonitor_1_NUM_AUX_INPUTS)
 362:Generated_Source\PSoC5/PowerMonitor_1_INT.c ****         {
 363:Generated_Source\PSoC5/PowerMonitor_1_INT.c ****             /* Update AmuxChan flag */
 364:Generated_Source\PSoC5/PowerMonitor_1_INT.c ****             PowerMonitor_1_amuxChan = PowerMonitor_1_AUX_IN_CHAN + PowerMonitor_1_auxIndex;
 365:Generated_Source\PSoC5/PowerMonitor_1_INT.c **** 
 366:Generated_Source\PSoC5/PowerMonitor_1_INT.c ****             PowerMonitor_1_PM_AMux_Voltage_FastSelect(PowerMonitor_1_amuxChan);
 367:Generated_Source\PSoC5/PowerMonitor_1_INT.c **** 
 368:Generated_Source\PSoC5/PowerMonitor_1_INT.c ****             if (PowerMonitor_1_AuxVoltageType[PowerMonitor_1_auxIndex] == PowerMonitor_1_AUX_VOLTAG
 369:Generated_Source\PSoC5/PowerMonitor_1_INT.c ****             {
 370:Generated_Source\PSoC5/PowerMonitor_1_INT.c ****                 PowerMonitor_1_PM_AMux_Current_FastSelect(PowerMonitor_1_PGA_OUT_CHAN);
 371:Generated_Source\PSoC5/PowerMonitor_1_INT.c ****             }
 372:Generated_Source\PSoC5/PowerMonitor_1_INT.c ****             else
 373:Generated_Source\PSoC5/PowerMonitor_1_INT.c ****             {
ARM GAS  C:\Users\user\AppData\Local\Temp\ccpxa6kC.s 			page 8


 374:Generated_Source\PSoC5/PowerMonitor_1_INT.c ****                 PowerMonitor_1_PM_AMux_Current_FastSelect(PowerMonitor_1_amuxChan);
 375:Generated_Source\PSoC5/PowerMonitor_1_INT.c ****             }
 376:Generated_Source\PSoC5/PowerMonitor_1_INT.c ****             /* Set the proper ADC configuration */
 377:Generated_Source\PSoC5/PowerMonitor_1_INT.c ****             if((PowerMonitor_1_AuxVoltageType[PowerMonitor_1_auxIndex] == PowerMonitor_1_AUX_VOLTAG
 378:Generated_Source\PSoC5/PowerMonitor_1_INT.c ****                (PowerMonitor_1_AuxVoltageType[PowerMonitor_1_auxIndex] == PowerMonitor_1_AUX_VOLTAG
 379:Generated_Source\PSoC5/PowerMonitor_1_INT.c ****             {
 380:Generated_Source\PSoC5/PowerMonitor_1_INT.c ****                 if(sampleMode == PowerMonitor_1_CONTINUOUS)
 381:Generated_Source\PSoC5/PowerMonitor_1_INT.c ****                 {
 382:Generated_Source\PSoC5/PowerMonitor_1_INT.c ****                     PowerMonitor_1_ADC_CONFIG_PUSH_NEW(PowerMonitor_1_RANGE_LOW);
 383:Generated_Source\PSoC5/PowerMonitor_1_INT.c ****                 }
 384:Generated_Source\PSoC5/PowerMonitor_1_INT.c ****                 else /* need to restore configuration for On Demand mode */
 385:Generated_Source\PSoC5/PowerMonitor_1_INT.c ****                 {
 386:Generated_Source\PSoC5/PowerMonitor_1_INT.c ****                     PowerMonitor_1_ADC_CONFIG_PUSH_OLD(PowerMonitor_1_RANGE_LOW);
 387:Generated_Source\PSoC5/PowerMonitor_1_INT.c ****                 }
 388:Generated_Source\PSoC5/PowerMonitor_1_INT.c ****             }
 389:Generated_Source\PSoC5/PowerMonitor_1_INT.c ****             else
 390:Generated_Source\PSoC5/PowerMonitor_1_INT.c ****             {
 391:Generated_Source\PSoC5/PowerMonitor_1_INT.c ****                 if (PowerMonitor_1_AuxVoltageType[PowerMonitor_1_auxIndex] == PowerMonitor_1_AUX_VO
 392:Generated_Source\PSoC5/PowerMonitor_1_INT.c ****                 {
 393:Generated_Source\PSoC5/PowerMonitor_1_INT.c ****                     if(sampleMode == PowerMonitor_1_CONTINUOUS)
 394:Generated_Source\PSoC5/PowerMonitor_1_INT.c ****                     {
 395:Generated_Source\PSoC5/PowerMonitor_1_INT.c ****                         PowerMonitor_1_ADC_CONFIG_PUSH_NEW(PowerMonitor_1_SE_VOLTAGE_RANGE);
 396:Generated_Source\PSoC5/PowerMonitor_1_INT.c ****                     }
 397:Generated_Source\PSoC5/PowerMonitor_1_INT.c ****                     else /* need to restore configuration for On Demand mode */
 398:Generated_Source\PSoC5/PowerMonitor_1_INT.c ****                     {
 399:Generated_Source\PSoC5/PowerMonitor_1_INT.c ****                         PowerMonitor_1_ADC_CONFIG_PUSH_OLD(PowerMonitor_1_SE_VOLTAGE_RANGE);
 400:Generated_Source\PSoC5/PowerMonitor_1_INT.c ****                     }
 401:Generated_Source\PSoC5/PowerMonitor_1_INT.c ****                 }
 402:Generated_Source\PSoC5/PowerMonitor_1_INT.c ****                 else
 403:Generated_Source\PSoC5/PowerMonitor_1_INT.c ****                 {
 404:Generated_Source\PSoC5/PowerMonitor_1_INT.c ****                     if(sampleMode == PowerMonitor_1_CONTINUOUS)
 405:Generated_Source\PSoC5/PowerMonitor_1_INT.c ****                     {
 406:Generated_Source\PSoC5/PowerMonitor_1_INT.c ****                         PowerMonitor_1_ADC_CONFIG_PUSH_NEW(PowerMonitor_1_RANGE_2048);
 407:Generated_Source\PSoC5/PowerMonitor_1_INT.c ****                     }
 408:Generated_Source\PSoC5/PowerMonitor_1_INT.c ****                     else /* need to restore configuration for On Demand mode */
 409:Generated_Source\PSoC5/PowerMonitor_1_INT.c ****                     {
 410:Generated_Source\PSoC5/PowerMonitor_1_INT.c ****                         PowerMonitor_1_ADC_CONFIG_PUSH_OLD(PowerMonitor_1_RANGE_2048);
 411:Generated_Source\PSoC5/PowerMonitor_1_INT.c ****                     }
 412:Generated_Source\PSoC5/PowerMonitor_1_INT.c ****                 }
 413:Generated_Source\PSoC5/PowerMonitor_1_INT.c ****             }
 414:Generated_Source\PSoC5/PowerMonitor_1_INT.c ****         }
 415:Generated_Source\PSoC5/PowerMonitor_1_INT.c ****         else /* set firts channel if there are no more axiliary channel available */
 416:Generated_Source\PSoC5/PowerMonitor_1_INT.c ****         {
 417:Generated_Source\PSoC5/PowerMonitor_1_INT.c ****             PowerMonitor_1_Set_First_Channel();
 418:Generated_Source\PSoC5/PowerMonitor_1_INT.c ****         }
 419:Generated_Source\PSoC5/PowerMonitor_1_INT.c ****     }
 420:Generated_Source\PSoC5/PowerMonitor_1_INT.c **** #endif  /* PowerMonitor_1_NUM_AUX_INPUTS > 0u */
 421:Generated_Source\PSoC5/PowerMonitor_1_INT.c **** 
 422:Generated_Source\PSoC5/PowerMonitor_1_INT.c **** #if (PowerMonitor_1_NUM_CURRENT_SOURCES > 0)
 423:Generated_Source\PSoC5/PowerMonitor_1_INT.c ****     /*******************************************************************************
 424:Generated_Source\PSoC5/PowerMonitor_1_INT.c ****     * Function Name: Set_Current_Channel()
 425:Generated_Source\PSoC5/PowerMonitor_1_INT.c ****     ********************************************************************************
 426:Generated_Source\PSoC5/PowerMonitor_1_INT.c ****     *
 427:Generated_Source\PSoC5/PowerMonitor_1_INT.c ****     * Summary:
 428:Generated_Source\PSoC5/PowerMonitor_1_INT.c ****     *  Set analog multiplexer and configure ADC for the current channel.
 429:Generated_Source\PSoC5/PowerMonitor_1_INT.c ****     *
 430:Generated_Source\PSoC5/PowerMonitor_1_INT.c ****     * Parameters:
ARM GAS  C:\Users\user\AppData\Local\Temp\ccpxa6kC.s 			page 9


 431:Generated_Source\PSoC5/PowerMonitor_1_INT.c ****     *  None
 432:Generated_Source\PSoC5/PowerMonitor_1_INT.c ****     *
 433:Generated_Source\PSoC5/PowerMonitor_1_INT.c ****     * Return:
 434:Generated_Source\PSoC5/PowerMonitor_1_INT.c ****     *  None.
 435:Generated_Source\PSoC5/PowerMonitor_1_INT.c ****     *
 436:Generated_Source\PSoC5/PowerMonitor_1_INT.c ****     *******************************************************************************/
 437:Generated_Source\PSoC5/PowerMonitor_1_INT.c ****     static void PowerMonitor_1_Set_Current_Channel(void) 
 438:Generated_Source\PSoC5/PowerMonitor_1_INT.c ****     {
 439:Generated_Source\PSoC5/PowerMonitor_1_INT.c ****         /* Check to see whether current type is differential or not. If it is
 440:Generated_Source\PSoC5/PowerMonitor_1_INT.c ****         *  differential skip amux channels.
 441:Generated_Source\PSoC5/PowerMonitor_1_INT.c ****         */
 442:Generated_Source\PSoC5/PowerMonitor_1_INT.c ****         while (PowerMonitor_1_CurrentType[PowerMonitor_1_index] == PowerMonitor_1_CURRENT_TYPE_NA)
 443:Generated_Source\PSoC5/PowerMonitor_1_INT.c ****         {
 444:Generated_Source\PSoC5/PowerMonitor_1_INT.c ****             PowerMonitor_1_index++;
 445:Generated_Source\PSoC5/PowerMonitor_1_INT.c ****         }
 446:Generated_Source\PSoC5/PowerMonitor_1_INT.c **** 
 447:Generated_Source\PSoC5/PowerMonitor_1_INT.c ****         /* Set the proper ADC cofiguration */
 448:Generated_Source\PSoC5/PowerMonitor_1_INT.c ****         if (PowerMonitor_1_CurrentType[PowerMonitor_1_index] == PowerMonitor_1_CURRENT_TYPE_DIRECT)
 449:Generated_Source\PSoC5/PowerMonitor_1_INT.c ****         {
 450:Generated_Source\PSoC5/PowerMonitor_1_INT.c ****             /* Update AmuxChan flag */
 451:Generated_Source\PSoC5/PowerMonitor_1_INT.c ****             PowerMonitor_1_amuxChan = PowerMonitor_1_index;
 452:Generated_Source\PSoC5/PowerMonitor_1_INT.c ****             /* Select the proper AMux channels */
 453:Generated_Source\PSoC5/PowerMonitor_1_INT.c ****             PowerMonitor_1_PM_AMux_Voltage_FastSelect(PowerMonitor_1_amuxChan);
 454:Generated_Source\PSoC5/PowerMonitor_1_INT.c ****             PowerMonitor_1_PM_AMux_Current_FastSelect(PowerMonitor_1_amuxChan);
 455:Generated_Source\PSoC5/PowerMonitor_1_INT.c ****             /* Change the ADC configuration */
 456:Generated_Source\PSoC5/PowerMonitor_1_INT.c ****             PowerMonitor_1_ADC_CONFIG_PUSH_NEW(PowerMonitor_1_RANGE_LOW);
 457:Generated_Source\PSoC5/PowerMonitor_1_INT.c ****         }
 458:Generated_Source\PSoC5/PowerMonitor_1_INT.c ****         else /* CSA type */
 459:Generated_Source\PSoC5/PowerMonitor_1_INT.c ****         {
 460:Generated_Source\PSoC5/PowerMonitor_1_INT.c ****             /* Update AmuxChan flag */
 461:Generated_Source\PSoC5/PowerMonitor_1_INT.c ****             PowerMonitor_1_amuxChan = PowerMonitor_1_CSA_IN_CHAN + PowerMonitor_1_index;
 462:Generated_Source\PSoC5/PowerMonitor_1_INT.c ****             /* Select the proper AMux channels */
 463:Generated_Source\PSoC5/PowerMonitor_1_INT.c ****             PowerMonitor_1_PM_AMux_Voltage_FastSelect(PowerMonitor_1_amuxChan);
 464:Generated_Source\PSoC5/PowerMonitor_1_INT.c ****             PowerMonitor_1_PM_AMux_Current_FastSelect(PowerMonitor_1_PGA_OUT_CHAN);
 465:Generated_Source\PSoC5/PowerMonitor_1_INT.c ****             /* Change the ADC configuration */
 466:Generated_Source\PSoC5/PowerMonitor_1_INT.c ****             PowerMonitor_1_ADC_CONFIG_PUSH_NEW(PowerMonitor_1_SE_VOLTAGE_RANGE);
 467:Generated_Source\PSoC5/PowerMonitor_1_INT.c ****         }
 468:Generated_Source\PSoC5/PowerMonitor_1_INT.c ****     }
 469:Generated_Source\PSoC5/PowerMonitor_1_INT.c **** #endif /* PowerMonitor_1_NUM_CURRENT_SOURCES > 0 */
 470:Generated_Source\PSoC5/PowerMonitor_1_INT.c **** 
 471:Generated_Source\PSoC5/PowerMonitor_1_INT.c **** 
 472:Generated_Source\PSoC5/PowerMonitor_1_INT.c **** /*****************************************************************************
 473:Generated_Source\PSoC5/PowerMonitor_1_INT.c **** * Function Name: PowerMonitor_1_ISR
 474:Generated_Source\PSoC5/PowerMonitor_1_INT.c **** ******************************************************************************
 475:Generated_Source\PSoC5/PowerMonitor_1_INT.c **** *
 476:Generated_Source\PSoC5/PowerMonitor_1_INT.c **** * Summary:
 477:Generated_Source\PSoC5/PowerMonitor_1_INT.c **** *  Handle Interrupt Service Routine.
 478:Generated_Source\PSoC5/PowerMonitor_1_INT.c **** *
 479:Generated_Source\PSoC5/PowerMonitor_1_INT.c **** * Parameters:
 480:Generated_Source\PSoC5/PowerMonitor_1_INT.c **** *  void
 481:Generated_Source\PSoC5/PowerMonitor_1_INT.c **** *
 482:Generated_Source\PSoC5/PowerMonitor_1_INT.c **** * Return:
 483:Generated_Source\PSoC5/PowerMonitor_1_INT.c **** *  void
 484:Generated_Source\PSoC5/PowerMonitor_1_INT.c **** *
 485:Generated_Source\PSoC5/PowerMonitor_1_INT.c **** * Reentrant:
 486:Generated_Source\PSoC5/PowerMonitor_1_INT.c **** *  No
 487:Generated_Source\PSoC5/PowerMonitor_1_INT.c **** *
ARM GAS  C:\Users\user\AppData\Local\Temp\ccpxa6kC.s 			page 10


 488:Generated_Source\PSoC5/PowerMonitor_1_INT.c **** *****************************************************************************/
 489:Generated_Source\PSoC5/PowerMonitor_1_INT.c **** CY_ISR(PowerMonitor_1_ISR)
 490:Generated_Source\PSoC5/PowerMonitor_1_INT.c **** {
 491:Generated_Source\PSoC5/PowerMonitor_1_INT.c ****     #if(CY_PSOC3)
 492:Generated_Source\PSoC5/PowerMonitor_1_INT.c ****         uint8 int_en = EA;
 493:Generated_Source\PSoC5/PowerMonitor_1_INT.c ****     #endif /* (CY_PSOC3) */
 494:Generated_Source\PSoC5/PowerMonitor_1_INT.c **** 
 495:Generated_Source\PSoC5/PowerMonitor_1_INT.c ****     int16 CYDATA rawVal;
 496:Generated_Source\PSoC5/PowerMonitor_1_INT.c ****     uint8 CYDATA convDone;
 497:Generated_Source\PSoC5/PowerMonitor_1_INT.c ****     int32 rawFiltVal = 0;
 498:Generated_Source\PSoC5/PowerMonitor_1_INT.c ****     #if (PowerMonitor_1_NUM_CURRENT_SOURCES > 0u)
 499:Generated_Source\PSoC5/PowerMonitor_1_INT.c ****         uint8 CYDATA iChanNum;
 500:Generated_Source\PSoC5/PowerMonitor_1_INT.c ****     #endif /* (PowerMonitor_1_NUM_CURRENT_SOURCES > 0u) */
 501:Generated_Source\PSoC5/PowerMonitor_1_INT.c **** 
 502:Generated_Source\PSoC5/PowerMonitor_1_INT.c ****     #if(CY_PSOC3)
 503:Generated_Source\PSoC5/PowerMonitor_1_INT.c ****         /* Enable the global interrupts */
 504:Generated_Source\PSoC5/PowerMonitor_1_INT.c ****         CyGlobalIntEnable;
 505:Generated_Source\PSoC5/PowerMonitor_1_INT.c ****     #endif /* (CY_PSOC3) */
 506:Generated_Source\PSoC5/PowerMonitor_1_INT.c **** 
 507:Generated_Source\PSoC5/PowerMonitor_1_INT.c ****     #ifdef PowerMonitor_1_ISR_ENTRY_CALLBACK
 508:Generated_Source\PSoC5/PowerMonitor_1_INT.c ****         PowerMonitor_1_ISR_EntryCallback();
 509:Generated_Source\PSoC5/PowerMonitor_1_INT.c ****     #endif /* PowerMonitor_1_ISR_ENTRY_CALLBACK */
 510:Generated_Source\PSoC5/PowerMonitor_1_INT.c **** 
 511:Generated_Source\PSoC5/PowerMonitor_1_INT.c **** 
 512:Generated_Source\PSoC5/PowerMonitor_1_INT.c ****     /************************************************************************
 513:Generated_Source\PSoC5/PowerMonitor_1_INT.c ****     *  Custom Code
 514:Generated_Source\PSoC5/PowerMonitor_1_INT.c ****     *  - add user ISR code between the following #START and #END tags
 515:Generated_Source\PSoC5/PowerMonitor_1_INT.c ****     *************************************************************************/
 516:Generated_Source\PSoC5/PowerMonitor_1_INT.c ****     /* `#START BEGIN_POWER_MONITOR_ISR`  */
 517:Generated_Source\PSoC5/PowerMonitor_1_INT.c **** 
 518:Generated_Source\PSoC5/PowerMonitor_1_INT.c ****     /* `#END`  */
 519:Generated_Source\PSoC5/PowerMonitor_1_INT.c **** 
 520:Generated_Source\PSoC5/PowerMonitor_1_INT.c ****     /* Collect the raw reading */
 521:Generated_Source\PSoC5/PowerMonitor_1_INT.c ****     rawVal = PowerMonitor_1_ADC_GetResult16();
 522:Generated_Source\PSoC5/PowerMonitor_1_INT.c **** 
 523:Generated_Source\PSoC5/PowerMonitor_1_INT.c ****     /* Update the state of flags */
 524:Generated_Source\PSoC5/PowerMonitor_1_INT.c ****     convDone = PowerMonitor_1_adcConvNow;
 525:Generated_Source\PSoC5/PowerMonitor_1_INT.c ****     PowerMonitor_1_adcConvNow = PowerMonitor_1_adcConvNext;
 526:Generated_Source\PSoC5/PowerMonitor_1_INT.c ****     PowerMonitor_1_adcConvNext++;
 527:Generated_Source\PSoC5/PowerMonitor_1_INT.c ****     PowerMonitor_1_adcConvDoneConfig = PowerMonitor_1_adcConfig;
 528:Generated_Source\PSoC5/PowerMonitor_1_INT.c **** 
 529:Generated_Source\PSoC5/PowerMonitor_1_INT.c ****     /* If DSM registers need restoring, do it BEFORE any FastSelects() */
 530:Generated_Source\PSoC5/PowerMonitor_1_INT.c ****     if (PowerMonitor_1_dsmRegRestorePend == PowerMonitor_1_CYTRUE)
 531:Generated_Source\PSoC5/PowerMonitor_1_INT.c ****     {
 532:Generated_Source\PSoC5/PowerMonitor_1_INT.c ****         PowerMonitor_1_RestoreDsmRegs();
 533:Generated_Source\PSoC5/PowerMonitor_1_INT.c ****     }
 534:Generated_Source\PSoC5/PowerMonitor_1_INT.c **** 
 535:Generated_Source\PSoC5/PowerMonitor_1_INT.c ****     /* If ADC configuration needs restoring, do it before proceeding */
 536:Generated_Source\PSoC5/PowerMonitor_1_INT.c ****     if (PowerMonitor_1_adcCfgPopPend == PowerMonitor_1_CYTRUE)
 537:Generated_Source\PSoC5/PowerMonitor_1_INT.c ****     {
 538:Generated_Source\PSoC5/PowerMonitor_1_INT.c ****         PowerMonitor_1_ADC_CONFIG_POP();
 539:Generated_Source\PSoC5/PowerMonitor_1_INT.c ****     }
 540:Generated_Source\PSoC5/PowerMonitor_1_INT.c **** 
 541:Generated_Source\PSoC5/PowerMonitor_1_INT.c ****     /* Based on the new adc reading, setup either special adc
 542:Generated_Source\PSoC5/PowerMonitor_1_INT.c ****     *  configuation/routing for next reading or just take the next
 543:Generated_Source\PSoC5/PowerMonitor_1_INT.c ****     *  sequential measurement
 544:Generated_Source\PSoC5/PowerMonitor_1_INT.c ****     */
ARM GAS  C:\Users\user\AppData\Local\Temp\ccpxa6kC.s 			page 11


 545:Generated_Source\PSoC5/PowerMonitor_1_INT.c ****     if (PowerMonitor_1_adcConvNow < PowerMonitor_1_lastVoltageChan)
 546:Generated_Source\PSoC5/PowerMonitor_1_INT.c ****     {
 547:Generated_Source\PSoC5/PowerMonitor_1_INT.c ****         PowerMonitor_1_PM_AMux_Voltage_FastSelect(PowerMonitor_1_adcConvNow);
 548:Generated_Source\PSoC5/PowerMonitor_1_INT.c ****         /* Update AmuxChan flag */
 549:Generated_Source\PSoC5/PowerMonitor_1_INT.c ****         if (PowerMonitor_1_VoltageType[PowerMonitor_1_adcConvNow] == PowerMonitor_1_VOLTAGE_TYPE_DI
 550:Generated_Source\PSoC5/PowerMonitor_1_INT.c ****         {
 551:Generated_Source\PSoC5/PowerMonitor_1_INT.c ****             PowerMonitor_1_PM_AMux_Current_FastSelect(PowerMonitor_1_adcConvNow);
 552:Generated_Source\PSoC5/PowerMonitor_1_INT.c ****             PowerMonitor_1_ADC_CONFIG_PUSH_NEW(PowerMonitor_1_RANGE_2048);
 553:Generated_Source\PSoC5/PowerMonitor_1_INT.c ****         }
 554:Generated_Source\PSoC5/PowerMonitor_1_INT.c ****         else
 555:Generated_Source\PSoC5/PowerMonitor_1_INT.c ****         {
 556:Generated_Source\PSoC5/PowerMonitor_1_INT.c ****             PowerMonitor_1_PM_AMux_Current_FastSelect(PowerMonitor_1_PGA_OUT_CHAN);
 557:Generated_Source\PSoC5/PowerMonitor_1_INT.c ****             PowerMonitor_1_ADC_CONFIG_PUSH_NEW(PowerMonitor_1_SE_VOLTAGE_RANGE);
 558:Generated_Source\PSoC5/PowerMonitor_1_INT.c ****         }
 559:Generated_Source\PSoC5/PowerMonitor_1_INT.c ****     }
 560:Generated_Source\PSoC5/PowerMonitor_1_INT.c ****     else if (PowerMonitor_1_adcConvNow == PowerMonitor_1_lastVoltageChan)
 561:Generated_Source\PSoC5/PowerMonitor_1_INT.c ****     {
 562:Generated_Source\PSoC5/PowerMonitor_1_INT.c ****         #if (PowerMonitor_1_NUM_CURRENT_SOURCES > 0)
 563:Generated_Source\PSoC5/PowerMonitor_1_INT.c ****              /* --- Set first current channel after last voltage channel --- */
 564:Generated_Source\PSoC5/PowerMonitor_1_INT.c ****             PowerMonitor_1_index = 0u;
 565:Generated_Source\PSoC5/PowerMonitor_1_INT.c ****             PowerMonitor_1_Set_Current_Channel();
 566:Generated_Source\PSoC5/PowerMonitor_1_INT.c ****         #elif (PowerMonitor_1_NUM_AUX_INPUTS > 0)
 567:Generated_Source\PSoC5/PowerMonitor_1_INT.c ****              /* --- Set first auxiliary channel after last voltage channel --- */
 568:Generated_Source\PSoC5/PowerMonitor_1_INT.c ****             PowerMonitor_1_index = 0u;
 569:Generated_Source\PSoC5/PowerMonitor_1_INT.c ****             PowerMonitor_1_Set_Aux_Channel(PowerMonitor_1_CONTINUOUS);
 570:Generated_Source\PSoC5/PowerMonitor_1_INT.c ****         #else
 571:Generated_Source\PSoC5/PowerMonitor_1_INT.c ****             /* --- Set first voltage channel after last voltage channel  --- */
 572:Generated_Source\PSoC5/PowerMonitor_1_INT.c ****             PowerMonitor_1_Set_First_Channel();
 573:Generated_Source\PSoC5/PowerMonitor_1_INT.c ****         #endif /* (PowerMonitor_1_NUM_CURRENT_SOURCES > 0) */
 574:Generated_Source\PSoC5/PowerMonitor_1_INT.c ****     }
 575:Generated_Source\PSoC5/PowerMonitor_1_INT.c ****     #if (PowerMonitor_1_NUM_CURRENT_SOURCES > 0)
 576:Generated_Source\PSoC5/PowerMonitor_1_INT.c ****         else if (PowerMonitor_1_adcConvNow == PowerMonitor_1_lastCurrentChan)
 577:Generated_Source\PSoC5/PowerMonitor_1_INT.c ****         {
 578:Generated_Source\PSoC5/PowerMonitor_1_INT.c ****             #if (PowerMonitor_1_NUM_AUX_INPUTS > 0)
 579:Generated_Source\PSoC5/PowerMonitor_1_INT.c ****                  /* --- Set auxiliary channel after last current channel --- */
 580:Generated_Source\PSoC5/PowerMonitor_1_INT.c ****                 PowerMonitor_1_index = 0u;
 581:Generated_Source\PSoC5/PowerMonitor_1_INT.c ****                 PowerMonitor_1_Set_Aux_Channel(PowerMonitor_1_CONTINUOUS);
 582:Generated_Source\PSoC5/PowerMonitor_1_INT.c ****             #else
 583:Generated_Source\PSoC5/PowerMonitor_1_INT.c ****                 /* --- Set first voltage channel after last current channel  --- */
 584:Generated_Source\PSoC5/PowerMonitor_1_INT.c ****                 PowerMonitor_1_Set_First_Channel();
 585:Generated_Source\PSoC5/PowerMonitor_1_INT.c ****             #endif /* (PowerMonitor_1_NUM_AUX_INPUTS > 0) */
 586:Generated_Source\PSoC5/PowerMonitor_1_INT.c ****         }
 587:Generated_Source\PSoC5/PowerMonitor_1_INT.c ****         else if ((PowerMonitor_1_adcConvNow > PowerMonitor_1_lastVoltageChan) &&
 588:Generated_Source\PSoC5/PowerMonitor_1_INT.c ****                  (PowerMonitor_1_adcConvNow < PowerMonitor_1_lastCurrentChan))
 589:Generated_Source\PSoC5/PowerMonitor_1_INT.c ****         {
 590:Generated_Source\PSoC5/PowerMonitor_1_INT.c ****             PowerMonitor_1_index++;
 591:Generated_Source\PSoC5/PowerMonitor_1_INT.c ****             PowerMonitor_1_Set_Current_Channel();
 592:Generated_Source\PSoC5/PowerMonitor_1_INT.c ****         }
 593:Generated_Source\PSoC5/PowerMonitor_1_INT.c ****     #endif /* (PowerMonitor_1_NUM_CURRENT_SOURCE > 0) */
 594:Generated_Source\PSoC5/PowerMonitor_1_INT.c ****     #if (PowerMonitor_1_NUM_AUX_INPUTS > 0)
 595:Generated_Source\PSoC5/PowerMonitor_1_INT.c ****         else if (PowerMonitor_1_adcConvNow == PowerMonitor_1_lastAuxVoltChan)
 596:Generated_Source\PSoC5/PowerMonitor_1_INT.c ****         {
 597:Generated_Source\PSoC5/PowerMonitor_1_INT.c ****              /* --- Set first voltage channel after last auxiliary channel  --- */
 598:Generated_Source\PSoC5/PowerMonitor_1_INT.c ****             PowerMonitor_1_Set_First_Channel();
 599:Generated_Source\PSoC5/PowerMonitor_1_INT.c ****         }
 600:Generated_Source\PSoC5/PowerMonitor_1_INT.c **** 
 601:Generated_Source\PSoC5/PowerMonitor_1_INT.c ****         else if ((PowerMonitor_1_adcConvNow > PowerMonitor_1_lastCurrentChan) &&
ARM GAS  C:\Users\user\AppData\Local\Temp\ccpxa6kC.s 			page 12


 602:Generated_Source\PSoC5/PowerMonitor_1_INT.c ****                  (PowerMonitor_1_adcConvNow < PowerMonitor_1_lastAuxVoltChan))
 603:Generated_Source\PSoC5/PowerMonitor_1_INT.c ****         {
 604:Generated_Source\PSoC5/PowerMonitor_1_INT.c ****             PowerMonitor_1_index++;
 605:Generated_Source\PSoC5/PowerMonitor_1_INT.c ****             PowerMonitor_1_Set_Aux_Channel(PowerMonitor_1_CONTINUOUS);
 606:Generated_Source\PSoC5/PowerMonitor_1_INT.c ****         }
 607:Generated_Source\PSoC5/PowerMonitor_1_INT.c ****         else if (PowerMonitor_1_adcConvNow == PowerMonitor_1_STATE_MEASURE_AUX)
 608:Generated_Source\PSoC5/PowerMonitor_1_INT.c ****         {
 609:Generated_Source\PSoC5/PowerMonitor_1_INT.c ****             /*  Next state will be pre on demand next state */
 610:Generated_Source\PSoC5/PowerMonitor_1_INT.c ****             PowerMonitor_1_adcConvNext = PowerMonitor_1_adcConvNextPreCal;
 611:Generated_Source\PSoC5/PowerMonitor_1_INT.c ****             /* Out of order auxiliary channel measurement */
 612:Generated_Source\PSoC5/PowerMonitor_1_INT.c ****             PowerMonitor_1_Set_Aux_Channel(PowerMonitor_1_ON_DEMAND);
 613:Generated_Source\PSoC5/PowerMonitor_1_INT.c ****         }
 614:Generated_Source\PSoC5/PowerMonitor_1_INT.c ****     #endif /* (PowerMonitor_1_NUM_AUX_INPUTS > 0) */
 615:Generated_Source\PSoC5/PowerMonitor_1_INT.c ****     else if (PowerMonitor_1_adcConvNow == PowerMonitor_1_STATE_CAL)
 616:Generated_Source\PSoC5/PowerMonitor_1_INT.c ****     {
 617:Generated_Source\PSoC5/PowerMonitor_1_INT.c ****         /***********************************************************************
 618:Generated_Source\PSoC5/PowerMonitor_1_INT.c ****         * Going to a TBD Calibration state
 619:Generated_Source\PSoC5/PowerMonitor_1_INT.c ****         *
 620:Generated_Source\PSoC5/PowerMonitor_1_INT.c ****         * Skip AMux, routes will be manually set
 621:Generated_Source\PSoC5/PowerMonitor_1_INT.c ****         *  Next state will be pre-calibration next state
 622:Generated_Source\PSoC5/PowerMonitor_1_INT.c ****         ***********************************************************************/
 623:Generated_Source\PSoC5/PowerMonitor_1_INT.c ****         PowerMonitor_1_adcConvNext = PowerMonitor_1_adcConvNextPreCal;
 624:Generated_Source\PSoC5/PowerMonitor_1_INT.c **** 
 625:Generated_Source\PSoC5/PowerMonitor_1_INT.c ****         /***********************************************************************
 626:Generated_Source\PSoC5/PowerMonitor_1_INT.c ****         * Configure for the specific calibration operation.
 627:Generated_Source\PSoC5/PowerMonitor_1_INT.c ****         * NOTE: at entry DSM regs MUST BE setup as normal AMux sampling
 628:Generated_Source\PSoC5/PowerMonitor_1_INT.c ****         ***********************************************************************/
 629:Generated_Source\PSoC5/PowerMonitor_1_INT.c ****         switch (PowerMonitor_1_adcConvCalType)
 630:Generated_Source\PSoC5/PowerMonitor_1_INT.c ****         {
 631:Generated_Source\PSoC5/PowerMonitor_1_INT.c ****             case PowerMonitor_1_CAL_START:
 632:Generated_Source\PSoC5/PowerMonitor_1_INT.c ****                 /*******************************************************************
 633:Generated_Source\PSoC5/PowerMonitor_1_INT.c ****                 * Startup ADC, only after firmware reset
 634:Generated_Source\PSoC5/PowerMonitor_1_INT.c ****                 *******************************************************************/
 635:Generated_Source\PSoC5/PowerMonitor_1_INT.c ****                 PowerMonitor_1_ADC_Start();
 636:Generated_Source\PSoC5/PowerMonitor_1_INT.c ****                 PowerMonitor_1_Set_First_Channel();
 637:Generated_Source\PSoC5/PowerMonitor_1_INT.c ****                  /* Initialize local selection memory    */
 638:Generated_Source\PSoC5/PowerMonitor_1_INT.c ****                 PowerMonitor_1_adcConvDoneConfig =PowerMonitor_1_adcConfig;
 639:Generated_Source\PSoC5/PowerMonitor_1_INT.c **** 
 640:Generated_Source\PSoC5/PowerMonitor_1_INT.c ****                 /* Don't "restore" DSM regs, not real CAL */
 641:Generated_Source\PSoC5/PowerMonitor_1_INT.c ****                 PowerMonitor_1_justReset = PowerMonitor_1_CYTRUE;
 642:Generated_Source\PSoC5/PowerMonitor_1_INT.c ****                 #if (PowerMonitor_1_DEFAULT_PGOOD_CONFIG == PowerMonitor_1_PGOOD_GLOBAL)
 643:Generated_Source\PSoC5/PowerMonitor_1_INT.c ****                     PowerMonitor_1_faultDetected = PowerMonitor_1_CYFALSE;
 644:Generated_Source\PSoC5/PowerMonitor_1_INT.c ****                 #endif /* (PowerMonitor_1_DEFAULT_PGOOD_CONFIG == PowerMonitor_1_PGOOD_GLOBAL) */
 645:Generated_Source\PSoC5/PowerMonitor_1_INT.c ****                 break;
 646:Generated_Source\PSoC5/PowerMonitor_1_INT.c **** 
 647:Generated_Source\PSoC5/PowerMonitor_1_INT.c ****             case PowerMonitor_1_CAL_CFG1Z:
 648:Generated_Source\PSoC5/PowerMonitor_1_INT.c ****                 /*******************************************************************
 649:Generated_Source\PSoC5/PowerMonitor_1_INT.c ****                 * +/- 2048mV : Calibrate ZERO, VP = VN = Vssa
 650:Generated_Source\PSoC5/PowerMonitor_1_INT.c ****                 *******************************************************************/
 651:Generated_Source\PSoC5/PowerMonitor_1_INT.c ****                 PowerMonitor_1_ADC_CONFIG_PUSH_OLD(PowerMonitor_1_RANGE_2048);
 652:Generated_Source\PSoC5/PowerMonitor_1_INT.c ****                 PowerMonitor_1_SaveDsmRegsAndIsolate();
 653:Generated_Source\PSoC5/PowerMonitor_1_INT.c ****                 /* vn_vssa & vp_vssa    */
 654:Generated_Source\PSoC5/PowerMonitor_1_INT.c ****                 PowerMonitor_1_ADC_DSM_SW3_REG = PowerMonitor_1_ADC_VN_VSSA_VP_VSSA;
 655:Generated_Source\PSoC5/PowerMonitor_1_INT.c ****                 PowerMonitor_1_pCalStore = &PowerMonitor_1_adcZeroCalRawCfg1;
 656:Generated_Source\PSoC5/PowerMonitor_1_INT.c ****                 break;
 657:Generated_Source\PSoC5/PowerMonitor_1_INT.c **** 
 658:Generated_Source\PSoC5/PowerMonitor_1_INT.c ****             case PowerMonitor_1_CAL_CFG1G:
ARM GAS  C:\Users\user\AppData\Local\Temp\ccpxa6kC.s 			page 13


 659:Generated_Source\PSoC5/PowerMonitor_1_INT.c ****                 /*******************************************************************
 660:Generated_Source\PSoC5/PowerMonitor_1_INT.c ****                 * +/- 2048mV : Calibrate GAIN, VP = Vssa, VN = Vref
 661:Generated_Source\PSoC5/PowerMonitor_1_INT.c ****                 *******************************************************************/
 662:Generated_Source\PSoC5/PowerMonitor_1_INT.c ****                 PowerMonitor_1_ADC_CONFIG_PUSH_OLD(PowerMonitor_1_RANGE_2048);
 663:Generated_Source\PSoC5/PowerMonitor_1_INT.c ****                 PowerMonitor_1_SaveDsmRegsAndIsolate();
 664:Generated_Source\PSoC5/PowerMonitor_1_INT.c ****                 /* vn_vref & vp_vssa  */
 665:Generated_Source\PSoC5/PowerMonitor_1_INT.c ****                 PowerMonitor_1_ADC_DSM_SW3_REG = PowerMonitor_1_ADC_VN_VREF_VP_VSSA;
 666:Generated_Source\PSoC5/PowerMonitor_1_INT.c ****                 /*******************************************************************
 667:Generated_Source\PSoC5/PowerMonitor_1_INT.c ****                 * Either use REFBUF1 by enabling it or bypass by using SW12
 668:Generated_Source\PSoC5/PowerMonitor_1_INT.c ****                 *   cf. "Reference Options" in TRM.
 669:Generated_Source\PSoC5/PowerMonitor_1_INT.c ****                 *  SW12 avoids introducing potential REFBUF1 offset error.
 670:Generated_Source\PSoC5/PowerMonitor_1_INT.c ****                 *******************************************************************/
 671:Generated_Source\PSoC5/PowerMonitor_1_INT.c ****                 /* S12 ON so can read Vref */
 672:Generated_Source\PSoC5/PowerMonitor_1_INT.c ****                 PowerMonitor_1_ADC_DSM_REF3_REG |= PowerMonitor_1_ADC_S12_ON;
 673:Generated_Source\PSoC5/PowerMonitor_1_INT.c ****                 PowerMonitor_1_pCalStore = &PowerMonitor_1_adcGainCalRawCfg1;
 674:Generated_Source\PSoC5/PowerMonitor_1_INT.c ****                 break;
 675:Generated_Source\PSoC5/PowerMonitor_1_INT.c **** 
 676:Generated_Source\PSoC5/PowerMonitor_1_INT.c ****             case PowerMonitor_1_CAL_PGA1Z:
 677:Generated_Source\PSoC5/PowerMonitor_1_INT.c ****                 /*******************************************************************
 678:Generated_Source\PSoC5/PowerMonitor_1_INT.c ****                 * PGAx2 : Calibrate PGA offset, VP = Vssa, VN = PGA
 679:Generated_Source\PSoC5/PowerMonitor_1_INT.c ****                 *******************************************************************/
 680:Generated_Source\PSoC5/PowerMonitor_1_INT.c ****                 PowerMonitor_1_ADC_CONFIG_PUSH_OLD(PowerMonitor_1_RANGE_2048);
 681:Generated_Source\PSoC5/PowerMonitor_1_INT.c ****                 PowerMonitor_1_SaveDsmRegsAndIsolate();
 682:Generated_Source\PSoC5/PowerMonitor_1_INT.c ****                 /* vp_vssa              */
 683:Generated_Source\PSoC5/PowerMonitor_1_INT.c ****                 PowerMonitor_1_ADC_DSM_SW3_REG = PowerMonitor_1_ADC_VP_VSSA;
 684:Generated_Source\PSoC5/PowerMonitor_1_INT.c ****                 /* VN = PGA             */
 685:Generated_Source\PSoC5/PowerMonitor_1_INT.c ****                 /* adc vn to abus1      */
 686:Generated_Source\PSoC5/PowerMonitor_1_INT.c ****                 PowerMonitor_1_ADC_DSM_SW6_REG = PowerMonitor_1_ADC_VN_ABUS1;
 687:Generated_Source\PSoC5/PowerMonitor_1_INT.c ****                 /* pga out to abus1     */
 688:Generated_Source\PSoC5/PowerMonitor_1_INT.c ****                 PowerMonitor_1_PGA_SW10_REG = PowerMonitor_1_PGA_OUT_ABUS1;
 689:Generated_Source\PSoC5/PowerMonitor_1_INT.c ****                 PowerMonitor_1_pCalStore = &PowerMonitor_1_adcSCCalRawCfg1;
 690:Generated_Source\PSoC5/PowerMonitor_1_INT.c ****                 break;
 691:Generated_Source\PSoC5/PowerMonitor_1_INT.c **** 
 692:Generated_Source\PSoC5/PowerMonitor_1_INT.c ****             case PowerMonitor_1_CAL_CFG2Z:
 693:Generated_Source\PSoC5/PowerMonitor_1_INT.c ****                 /***************************************************************
 694:Generated_Source\PSoC5/PowerMonitor_1_INT.c ****                 * +/- LOW mV : Calibrate ZERO, VP = Vssa, VN = Vssa
 695:Generated_Source\PSoC5/PowerMonitor_1_INT.c ****                 ***************************************************************/
 696:Generated_Source\PSoC5/PowerMonitor_1_INT.c ****                 PowerMonitor_1_ADC_CONFIG_PUSH_OLD(PowerMonitor_1_RANGE_LOW);
 697:Generated_Source\PSoC5/PowerMonitor_1_INT.c ****                 PowerMonitor_1_SaveDsmRegsAndIsolate();
 698:Generated_Source\PSoC5/PowerMonitor_1_INT.c ****                 /* vn_vssa + vp_vssa    */
 699:Generated_Source\PSoC5/PowerMonitor_1_INT.c ****                 PowerMonitor_1_ADC_DSM_SW3_REG = PowerMonitor_1_ADC_VN_VSSA_VP_VSSA;
 700:Generated_Source\PSoC5/PowerMonitor_1_INT.c ****                 PowerMonitor_1_pCalStore = &PowerMonitor_1_adcZeroCalRawCfg2;
 701:Generated_Source\PSoC5/PowerMonitor_1_INT.c ****                 break;
 702:Generated_Source\PSoC5/PowerMonitor_1_INT.c **** 
 703:Generated_Source\PSoC5/PowerMonitor_1_INT.c ****             #if (PowerMonitor_1_CAL_PIN_EXPOSED)
 704:Generated_Source\PSoC5/PowerMonitor_1_INT.c ****             case PowerMonitor_1_CAL_CFG2Ga:
 705:Generated_Source\PSoC5/PowerMonitor_1_INT.c ****                 /*******************************************************************
 706:Generated_Source\PSoC5/PowerMonitor_1_INT.c ****                 * Measure cal input using DelSig +/- 1024 mV range
 707:Generated_Source\PSoC5/PowerMonitor_1_INT.c ****                 *   Route: cal input to +ve of ADC and connect GND to -ve input
 708:Generated_Source\PSoC5/PowerMonitor_1_INT.c ****                 *******************************************************************/
 709:Generated_Source\PSoC5/PowerMonitor_1_INT.c ****                 PowerMonitor_1_ADC_CONFIG_PUSH_OLD(PowerMonitor_1_RANGE_1024);
 710:Generated_Source\PSoC5/PowerMonitor_1_INT.c ****                 PowerMonitor_1_PM_AMux_Voltage_FastSelect(PowerMonitor_1_CAL_IN_CHAN);
 711:Generated_Source\PSoC5/PowerMonitor_1_INT.c ****                 PowerMonitor_1_PM_AMux_Current_FastSelect(PowerMonitor_1_CAL_IN_CHAN);
 712:Generated_Source\PSoC5/PowerMonitor_1_INT.c ****                 PowerMonitor_1_pCalStore = &PowerMonitor_1_adcGainCalRawCfg2a;
 713:Generated_Source\PSoC5/PowerMonitor_1_INT.c ****                 break;
 714:Generated_Source\PSoC5/PowerMonitor_1_INT.c **** 
 715:Generated_Source\PSoC5/PowerMonitor_1_INT.c ****             case PowerMonitor_1_CAL_CFG2Gb:
ARM GAS  C:\Users\user\AppData\Local\Temp\ccpxa6kC.s 			page 14


 716:Generated_Source\PSoC5/PowerMonitor_1_INT.c ****                 /*******************************************************************
 717:Generated_Source\PSoC5/PowerMonitor_1_INT.c ****                 * Measure cal input using DelSig +/- LOW mV range
 718:Generated_Source\PSoC5/PowerMonitor_1_INT.c ****                 *   Route: cal input to +ve of ADC, vssa to -ve of ADC
 719:Generated_Source\PSoC5/PowerMonitor_1_INT.c ****                 *******************************************************************/
 720:Generated_Source\PSoC5/PowerMonitor_1_INT.c ****                 PowerMonitor_1_ADC_CONFIG_PUSH_OLD(PowerMonitor_1_RANGE_LOW);
 721:Generated_Source\PSoC5/PowerMonitor_1_INT.c ****                 PowerMonitor_1_PM_AMux_Voltage_FastSelect(PowerMonitor_1_CAL_IN_CHAN);
 722:Generated_Source\PSoC5/PowerMonitor_1_INT.c ****                 PowerMonitor_1_PM_AMux_Current_FastSelect(PowerMonitor_1_CAL_IN_CHAN);
 723:Generated_Source\PSoC5/PowerMonitor_1_INT.c ****                 PowerMonitor_1_pCalStore = &PowerMonitor_1_adcGainCalRawCfg2b;
 724:Generated_Source\PSoC5/PowerMonitor_1_INT.c ****                 break;
 725:Generated_Source\PSoC5/PowerMonitor_1_INT.c ****             #endif /* PowerMonitor_1_CAL_PIN_EXPOSED */
 726:Generated_Source\PSoC5/PowerMonitor_1_INT.c **** 
 727:Generated_Source\PSoC5/PowerMonitor_1_INT.c ****             case PowerMonitor_1_CAL_CFG3Z:
 728:Generated_Source\PSoC5/PowerMonitor_1_INT.c ****                 /*******************************************************************
 729:Generated_Source\PSoC5/PowerMonitor_1_INT.c ****                 * +/- 1024mV : Calibrate ZERO, VP = Vssa, VN = Vssa
 730:Generated_Source\PSoC5/PowerMonitor_1_INT.c ****                 *******************************************************************/
 731:Generated_Source\PSoC5/PowerMonitor_1_INT.c ****                 PowerMonitor_1_ADC_CONFIG_PUSH_OLD(PowerMonitor_1_RANGE_1024);
 732:Generated_Source\PSoC5/PowerMonitor_1_INT.c ****                 PowerMonitor_1_SaveDsmRegsAndIsolate();
 733:Generated_Source\PSoC5/PowerMonitor_1_INT.c ****                 /* vn_vssa + vp_vssa    */
 734:Generated_Source\PSoC5/PowerMonitor_1_INT.c ****                 PowerMonitor_1_ADC_DSM_SW3_REG = PowerMonitor_1_ADC_VN_VSSA_VP_VSSA;
 735:Generated_Source\PSoC5/PowerMonitor_1_INT.c ****                 PowerMonitor_1_pCalStore = &PowerMonitor_1_adcZeroCalRawCfg3;
 736:Generated_Source\PSoC5/PowerMonitor_1_INT.c ****                 break;
 737:Generated_Source\PSoC5/PowerMonitor_1_INT.c **** 
 738:Generated_Source\PSoC5/PowerMonitor_1_INT.c ****             case PowerMonitor_1_CAL_CFG3G:
 739:Generated_Source\PSoC5/PowerMonitor_1_INT.c ****                 /*******************************************************************
 740:Generated_Source\PSoC5/PowerMonitor_1_INT.c ****                 * +/- 1024mV : Calibrate GAIN, VP = Vssa, VN = Vref
 741:Generated_Source\PSoC5/PowerMonitor_1_INT.c ****                 *******************************************************************/
 742:Generated_Source\PSoC5/PowerMonitor_1_INT.c ****                 PowerMonitor_1_ADC_CONFIG_PUSH_OLD(PowerMonitor_1_RANGE_1024);
 743:Generated_Source\PSoC5/PowerMonitor_1_INT.c ****                 PowerMonitor_1_SaveDsmRegsAndIsolate();
 744:Generated_Source\PSoC5/PowerMonitor_1_INT.c ****                 /* vn_vref + vp_vssa  */
 745:Generated_Source\PSoC5/PowerMonitor_1_INT.c ****                 PowerMonitor_1_ADC_DSM_SW3_REG = PowerMonitor_1_ADC_VN_VREF_VP_VSSA;
 746:Generated_Source\PSoC5/PowerMonitor_1_INT.c ****                 /* S12 ON so can read Vref */
 747:Generated_Source\PSoC5/PowerMonitor_1_INT.c ****                 PowerMonitor_1_ADC_DSM_REF3_REG |= PowerMonitor_1_ADC_S12_ON;
 748:Generated_Source\PSoC5/PowerMonitor_1_INT.c ****                 PowerMonitor_1_pCalStore = &PowerMonitor_1_adcGainCalRawCfg3;
 749:Generated_Source\PSoC5/PowerMonitor_1_INT.c ****                 break;
 750:Generated_Source\PSoC5/PowerMonitor_1_INT.c **** 
 751:Generated_Source\PSoC5/PowerMonitor_1_INT.c ****             case PowerMonitor_1_CAL_PGA3Z:
 752:Generated_Source\PSoC5/PowerMonitor_1_INT.c ****                 /*******************************************************************
 753:Generated_Source\PSoC5/PowerMonitor_1_INT.c ****                 * Ref : Calibrate ref offset, VP = Vssa, VN = ABUSL_1
 754:Generated_Source\PSoC5/PowerMonitor_1_INT.c ****                 *******************************************************************/
 755:Generated_Source\PSoC5/PowerMonitor_1_INT.c ****                 PowerMonitor_1_ADC_CONFIG_PUSH_OLD(PowerMonitor_1_RANGE_1024);
 756:Generated_Source\PSoC5/PowerMonitor_1_INT.c ****                 PowerMonitor_1_SaveDsmRegsAndIsolate();
 757:Generated_Source\PSoC5/PowerMonitor_1_INT.c ****                 /* vp_vssa              */
 758:Generated_Source\PSoC5/PowerMonitor_1_INT.c ****                 PowerMonitor_1_ADC_DSM_SW3_REG = PowerMonitor_1_ADC_VP_VSSA;
 759:Generated_Source\PSoC5/PowerMonitor_1_INT.c ****                 /* VN = PGA             */
 760:Generated_Source\PSoC5/PowerMonitor_1_INT.c ****                 /* adc vn to abus1      */
 761:Generated_Source\PSoC5/PowerMonitor_1_INT.c ****                 PowerMonitor_1_ADC_DSM_SW6_REG = PowerMonitor_1_ADC_VN_ABUS1;
 762:Generated_Source\PSoC5/PowerMonitor_1_INT.c ****                 /* pga out to abus1     */
 763:Generated_Source\PSoC5/PowerMonitor_1_INT.c ****                 PowerMonitor_1_PGA_SW10_REG = PowerMonitor_1_PGA_OUT_ABUS1;
 764:Generated_Source\PSoC5/PowerMonitor_1_INT.c ****                 PowerMonitor_1_pCalStore = &PowerMonitor_1_adcSCCalRawCfg3;
 765:Generated_Source\PSoC5/PowerMonitor_1_INT.c ****                 break;
 766:Generated_Source\PSoC5/PowerMonitor_1_INT.c ****             default:
 767:Generated_Source\PSoC5/PowerMonitor_1_INT.c ****                 break;
 768:Generated_Source\PSoC5/PowerMonitor_1_INT.c ****         }
 769:Generated_Source\PSoC5/PowerMonitor_1_INT.c ****     }
 770:Generated_Source\PSoC5/PowerMonitor_1_INT.c ****     else
 771:Generated_Source\PSoC5/PowerMonitor_1_INT.c ****     {
 772:Generated_Source\PSoC5/PowerMonitor_1_INT.c ****         /* Do nothing */
ARM GAS  C:\Users\user\AppData\Local\Temp\ccpxa6kC.s 			page 15


 773:Generated_Source\PSoC5/PowerMonitor_1_INT.c ****     }
 774:Generated_Source\PSoC5/PowerMonitor_1_INT.c **** 
 775:Generated_Source\PSoC5/PowerMonitor_1_INT.c ****     /* Start the ADC conversion */
 776:Generated_Source\PSoC5/PowerMonitor_1_INT.c ****     PowerMonitor_1_ADC_StartConvert();
 777:Generated_Source\PSoC5/PowerMonitor_1_INT.c **** 
 778:Generated_Source\PSoC5/PowerMonitor_1_INT.c ****     /* Save the raw ADC readings in its proper destination */
 779:Generated_Source\PSoC5/PowerMonitor_1_INT.c ****     if (convDone != PowerMonitor_1_STATE_CAL)
 780:Generated_Source\PSoC5/PowerMonitor_1_INT.c ****     {
 781:Generated_Source\PSoC5/PowerMonitor_1_INT.c ****         /***********************************************************************
 782:Generated_Source\PSoC5/PowerMonitor_1_INT.c ****         * "Normal measurements" are adjusted for "zero" here.
 783:Generated_Source\PSoC5/PowerMonitor_1_INT.c ****         * Config 2 measurements correct for ROUTE INVERSION here.
 784:Generated_Source\PSoC5/PowerMonitor_1_INT.c ****         *       These adjustments are applied here because these values are
 785:Generated_Source\PSoC5/PowerMonitor_1_INT.c ****         *       used in this ISR for trimming and OV/UV/OC/UC testing.
 786:Generated_Source\PSoC5/PowerMonitor_1_INT.c ****         ***********************************************************************/
 787:Generated_Source\PSoC5/PowerMonitor_1_INT.c ****         if (PowerMonitor_1_adcConvDoneConfig == PowerMonitor_1_RANGE_LOW)
 788:Generated_Source\PSoC5/PowerMonitor_1_INT.c ****         {
 789:Generated_Source\PSoC5/PowerMonitor_1_INT.c ****             if (convDone < PowerMonitor_1_lastCurrentChan)
 790:Generated_Source\PSoC5/PowerMonitor_1_INT.c ****             {
 791:Generated_Source\PSoC5/PowerMonitor_1_INT.c ****                 rawVal  = -rawVal;                  /* Fix route inversion  */
 792:Generated_Source\PSoC5/PowerMonitor_1_INT.c ****             }
 793:Generated_Source\PSoC5/PowerMonitor_1_INT.c ****             rawVal -= PowerMonitor_1_adcZeroCfg2;   /* Fix zero offset      */
 794:Generated_Source\PSoC5/PowerMonitor_1_INT.c ****         }
 795:Generated_Source\PSoC5/PowerMonitor_1_INT.c ****         else
 796:Generated_Source\PSoC5/PowerMonitor_1_INT.c ****         {
 797:Generated_Source\PSoC5/PowerMonitor_1_INT.c ****             /* Fix any zero offset */
 798:Generated_Source\PSoC5/PowerMonitor_1_INT.c ****             if (PowerMonitor_1_adcConvDoneConfig == PowerMonitor_1_RANGE_2048)
 799:Generated_Source\PSoC5/PowerMonitor_1_INT.c ****             {
 800:Generated_Source\PSoC5/PowerMonitor_1_INT.c ****                 rawVal -= PowerMonitor_1_adcZeroCfg1;
 801:Generated_Source\PSoC5/PowerMonitor_1_INT.c ****             }
 802:Generated_Source\PSoC5/PowerMonitor_1_INT.c ****             else
 803:Generated_Source\PSoC5/PowerMonitor_1_INT.c ****             {
 804:Generated_Source\PSoC5/PowerMonitor_1_INT.c ****                 rawVal -= PowerMonitor_1_adcZeroCfg3;
 805:Generated_Source\PSoC5/PowerMonitor_1_INT.c ****             }
 806:Generated_Source\PSoC5/PowerMonitor_1_INT.c ****         }
 807:Generated_Source\PSoC5/PowerMonitor_1_INT.c **** 
 808:Generated_Source\PSoC5/PowerMonitor_1_INT.c ****         if(convDone < PowerMonitor_1_MAX_CHANNELS)
 809:Generated_Source\PSoC5/PowerMonitor_1_INT.c ****         {
 810:Generated_Source\PSoC5/PowerMonitor_1_INT.c ****             /* ADC reading is a normal voltage or current sample */
 811:Generated_Source\PSoC5/PowerMonitor_1_INT.c ****             uint8 CYDATA Idx = 0u;
 812:Generated_Source\PSoC5/PowerMonitor_1_INT.c ****             volatile int16 CYXDATA * CYDATA pAdcFilt;
 813:Generated_Source\PSoC5/PowerMonitor_1_INT.c ****             PowerMonitor_1_ADC_CTL_STRUCT CYXDATA * CYDATA psCtl;
 814:Generated_Source\PSoC5/PowerMonitor_1_INT.c **** 
 815:Generated_Source\PSoC5/PowerMonitor_1_INT.c ****             /* initialize the pointers */
 816:Generated_Source\PSoC5/PowerMonitor_1_INT.c ****             pAdcFilt = &PowerMonitor_1_voltFilt[0u].rawVoltage[Idx];
 817:Generated_Source\PSoC5/PowerMonitor_1_INT.c ****             psCtl = &PowerMonitor_1_voltCtl[0u];
 818:Generated_Source\PSoC5/PowerMonitor_1_INT.c **** 
 819:Generated_Source\PSoC5/PowerMonitor_1_INT.c ****             if (convDone < PowerMonitor_1_lastVoltageChan)
 820:Generated_Source\PSoC5/PowerMonitor_1_INT.c ****             {
 821:Generated_Source\PSoC5/PowerMonitor_1_INT.c ****                 psCtl = &PowerMonitor_1_voltCtl[convDone];
 822:Generated_Source\PSoC5/PowerMonitor_1_INT.c ****                 Idx = psCtl->idx;
 823:Generated_Source\PSoC5/PowerMonitor_1_INT.c ****                 pAdcFilt = &PowerMonitor_1_voltFilt[convDone].rawVoltage[Idx];
 824:Generated_Source\PSoC5/PowerMonitor_1_INT.c ****                 #if (PowerMonitor_1_DEFAULT_VFILTER_TYPE == PowerMonitor_1_FILTER_TYPE_NONE)
 825:Generated_Source\PSoC5/PowerMonitor_1_INT.c ****                     psCtl->idx = 0u;
 826:Generated_Source\PSoC5/PowerMonitor_1_INT.c ****                 #else
 827:Generated_Source\PSoC5/PowerMonitor_1_INT.c ****                     psCtl->idx = (Idx < PowerMonitor_1_VOLTAGE_FILTER_SIZE-1u) ? (Idx+1u) : 0u;
 828:Generated_Source\PSoC5/PowerMonitor_1_INT.c ****                 #endif /* (PowerMonitor_1_DEFAULT_VFILTER_TYPE == PowerMonitor_1_FILTER_TYPE_NONE) 
 829:Generated_Source\PSoC5/PowerMonitor_1_INT.c ****             }
ARM GAS  C:\Users\user\AppData\Local\Temp\ccpxa6kC.s 			page 16


 830:Generated_Source\PSoC5/PowerMonitor_1_INT.c ****             #if (PowerMonitor_1_NUM_CURRENT_SOURCES > 0u)
 831:Generated_Source\PSoC5/PowerMonitor_1_INT.c ****                 else if ((convDone >= PowerMonitor_1_lastVoltageChan) &&
 832:Generated_Source\PSoC5/PowerMonitor_1_INT.c ****                          (convDone < PowerMonitor_1_lastCurrentChan))
 833:Generated_Source\PSoC5/PowerMonitor_1_INT.c ****                 {
 834:Generated_Source\PSoC5/PowerMonitor_1_INT.c ****                     psCtl = &PowerMonitor_1_ampCtl[convDone - PowerMonitor_1_lastVoltageChan];
 835:Generated_Source\PSoC5/PowerMonitor_1_INT.c ****                     Idx = psCtl->idx;
 836:Generated_Source\PSoC5/PowerMonitor_1_INT.c ****                     pAdcFilt = &PowerMonitor_1_ampFilt[convDone - PowerMonitor_1_lastVoltageChan].r
 837:Generated_Source\PSoC5/PowerMonitor_1_INT.c ****                     #if (PowerMonitor_1_DEFAULT_CFILTER_TYPE == PowerMonitor_1_FILTER_TYPE_NONE)
 838:Generated_Source\PSoC5/PowerMonitor_1_INT.c ****                         psCtl->idx = 0u;
 839:Generated_Source\PSoC5/PowerMonitor_1_INT.c ****                     #else
 840:Generated_Source\PSoC5/PowerMonitor_1_INT.c ****                         psCtl->idx = (Idx < PowerMonitor_1_CURRENT_FILTER_SIZE-1u) ? (Idx+1u) : 0u;
 841:Generated_Source\PSoC5/PowerMonitor_1_INT.c ****                     #endif /* (PowerMonitor_1_DEFAULT_CFILTER_TYPE == PowerMonitor_1_FILTER_TYPE_NO
 842:Generated_Source\PSoC5/PowerMonitor_1_INT.c ****                 }
 843:Generated_Source\PSoC5/PowerMonitor_1_INT.c ****             #endif /* (PowerMonitor_1_NUM_CURRENT_SOURCES > 0u) */
 844:Generated_Source\PSoC5/PowerMonitor_1_INT.c ****             #if (PowerMonitor_1_NUM_AUX_INPUTS > 0u)
 845:Generated_Source\PSoC5/PowerMonitor_1_INT.c ****                 else
 846:Generated_Source\PSoC5/PowerMonitor_1_INT.c ****                 {
 847:Generated_Source\PSoC5/PowerMonitor_1_INT.c ****                     psCtl = &PowerMonitor_1_auxVoltCtl[convDone - PowerMonitor_1_lastCurrentChan];
 848:Generated_Source\PSoC5/PowerMonitor_1_INT.c ****                     Idx = psCtl->idx;
 849:Generated_Source\PSoC5/PowerMonitor_1_INT.c ****                     pAdcFilt = &PowerMonitor_1_auxVoltFilt[convDone-PowerMonitor_1_lastCurrentChan]
 850:Generated_Source\PSoC5/PowerMonitor_1_INT.c ****                     #if (PowerMonitor_1_DEFAULT_AUX_FILTER_TYPE == PowerMonitor_1_FILTER_TYPE_NONE)
 851:Generated_Source\PSoC5/PowerMonitor_1_INT.c ****                         psCtl->idx = 0u;
 852:Generated_Source\PSoC5/PowerMonitor_1_INT.c ****                     #else
 853:Generated_Source\PSoC5/PowerMonitor_1_INT.c ****                         psCtl->idx = (Idx < PowerMonitor_1_AUX_VOLTAGE_FILTER_SIZE - 1u) ? (Idx + 1
 854:Generated_Source\PSoC5/PowerMonitor_1_INT.c ****                     #endif /* (PowerMonitor_1_DEFAULT_AUX_FILTER_TYPE == PowerMonitor_1_FILTER_TYPE
 855:Generated_Source\PSoC5/PowerMonitor_1_INT.c ****                 }
 856:Generated_Source\PSoC5/PowerMonitor_1_INT.c ****             #endif /* (PowerMonitor_1_NUM_AUX_INPUTS > 0u) */
 857:Generated_Source\PSoC5/PowerMonitor_1_INT.c **** 
 858:Generated_Source\PSoC5/PowerMonitor_1_INT.c ****             /***********************************************************************
 859:Generated_Source\PSoC5/PowerMonitor_1_INT.c ****             * Update filter summation (subtract old value and add new value).
 860:Generated_Source\PSoC5/PowerMonitor_1_INT.c ****             ***********************************************************************/
 861:Generated_Source\PSoC5/PowerMonitor_1_INT.c ****             rawFiltVal  = psCtl->filtVal;
 862:Generated_Source\PSoC5/PowerMonitor_1_INT.c ****             rawFiltVal -= *pAdcFilt;
 863:Generated_Source\PSoC5/PowerMonitor_1_INT.c ****             rawFiltVal += rawVal;
 864:Generated_Source\PSoC5/PowerMonitor_1_INT.c ****             psCtl->filtVal = rawFiltVal;
 865:Generated_Source\PSoC5/PowerMonitor_1_INT.c **** 
 866:Generated_Source\PSoC5/PowerMonitor_1_INT.c ****             /***********************************************************************
 867:Generated_Source\PSoC5/PowerMonitor_1_INT.c ****             * Finally, store new value in history buffer
 868:Generated_Source\PSoC5/PowerMonitor_1_INT.c ****             ***********************************************************************/
 869:Generated_Source\PSoC5/PowerMonitor_1_INT.c ****             *pAdcFilt = rawVal;
 870:Generated_Source\PSoC5/PowerMonitor_1_INT.c ****         }
 871:Generated_Source\PSoC5/PowerMonitor_1_INT.c ****         #if (PowerMonitor_1_NUM_AUX_INPUTS > 0)
 872:Generated_Source\PSoC5/PowerMonitor_1_INT.c ****             else if(convDone == PowerMonitor_1_STATE_MEASURE_AUX)
 873:Generated_Source\PSoC5/PowerMonitor_1_INT.c ****             {
 874:Generated_Source\PSoC5/PowerMonitor_1_INT.c ****                 /* Store raw DelSig reading with zero calibration in appropriate Auxiliary location
 875:Generated_Source\PSoC5/PowerMonitor_1_INT.c ****                 PowerMonitor_1_auxStore = rawVal;
 876:Generated_Source\PSoC5/PowerMonitor_1_INT.c ****             }
 877:Generated_Source\PSoC5/PowerMonitor_1_INT.c ****         #endif /* PowerMonitor_1_NUM_AUX_INPUTS > 0 */
 878:Generated_Source\PSoC5/PowerMonitor_1_INT.c ****         else
 879:Generated_Source\PSoC5/PowerMonitor_1_INT.c ****         {
 880:Generated_Source\PSoC5/PowerMonitor_1_INT.c ****             /* No action */
 881:Generated_Source\PSoC5/PowerMonitor_1_INT.c ****         }
 882:Generated_Source\PSoC5/PowerMonitor_1_INT.c ****     }
 883:Generated_Source\PSoC5/PowerMonitor_1_INT.c ****     else  /* convDone == PowerMonitor_1_STATE_CAL */
 884:Generated_Source\PSoC5/PowerMonitor_1_INT.c ****     {
 885:Generated_Source\PSoC5/PowerMonitor_1_INT.c ****         /*
 886:Generated_Source\PSoC5/PowerMonitor_1_INT.c ****         * Calibration measurement (these DO NOT have any corrections applied)
ARM GAS  C:\Users\user\AppData\Local\Temp\ccpxa6kC.s 			page 17


 887:Generated_Source\PSoC5/PowerMonitor_1_INT.c ****         *  so the non-ISR calibration process sees pure raw readings.
 888:Generated_Source\PSoC5/PowerMonitor_1_INT.c ****         */
 889:Generated_Source\PSoC5/PowerMonitor_1_INT.c ****         if (!PowerMonitor_1_justReset)
 890:Generated_Source\PSoC5/PowerMonitor_1_INT.c ****         {
 891:Generated_Source\PSoC5/PowerMonitor_1_INT.c ****             /* Store raw DelSig reading in appropriate Calibration location */
 892:Generated_Source\PSoC5/PowerMonitor_1_INT.c ****             *PowerMonitor_1_pCalStore = rawVal;
 893:Generated_Source\PSoC5/PowerMonitor_1_INT.c ****         }
 894:Generated_Source\PSoC5/PowerMonitor_1_INT.c ****         else
 895:Generated_Source\PSoC5/PowerMonitor_1_INT.c ****         {
 896:Generated_Source\PSoC5/PowerMonitor_1_INT.c ****             PowerMonitor_1_justReset = PowerMonitor_1_CYFALSE;
 897:Generated_Source\PSoC5/PowerMonitor_1_INT.c ****         }
 898:Generated_Source\PSoC5/PowerMonitor_1_INT.c ****     }
 899:Generated_Source\PSoC5/PowerMonitor_1_INT.c **** 
 900:Generated_Source\PSoC5/PowerMonitor_1_INT.c ****     /***********************************************************************
 901:Generated_Source\PSoC5/PowerMonitor_1_INT.c ****         * Generate the Fault, Warn and Pgood and EOC output signals
 902:Generated_Source\PSoC5/PowerMonitor_1_INT.c ****         * Also, update the OV, OC and UV status bits and OV, UV and OC source
 903:Generated_Source\PSoC5/PowerMonitor_1_INT.c ****         * status bits
 904:Generated_Source\PSoC5/PowerMonitor_1_INT.c ****     ************************************************************************/
 905:Generated_Source\PSoC5/PowerMonitor_1_INT.c **** 
 906:Generated_Source\PSoC5/PowerMonitor_1_INT.c ****     /* Generate pgood, warn and fault signals */
 907:Generated_Source\PSoC5/PowerMonitor_1_INT.c ****     /* Conv done is for current and voltage channels */
 908:Generated_Source\PSoC5/PowerMonitor_1_INT.c ****     if(PowerMonitor_1_PMoutEn == PowerMonitor_1_CYTRUE)
 909:Generated_Source\PSoC5/PowerMonitor_1_INT.c ****     {
 910:Generated_Source\PSoC5/PowerMonitor_1_INT.c ****         if (convDone < PowerMonitor_1_lastCurrentChan)
 911:Generated_Source\PSoC5/PowerMonitor_1_INT.c ****         {
 912:Generated_Source\PSoC5/PowerMonitor_1_INT.c ****             if (PowerMonitor_1_warnEnable == PowerMonitor_1_CYTRUE)
 913:Generated_Source\PSoC5/PowerMonitor_1_INT.c ****             {
 914:Generated_Source\PSoC5/PowerMonitor_1_INT.c ****                 if (convDone < PowerMonitor_1_lastVoltageChan) /* for voltage channel */
 915:Generated_Source\PSoC5/PowerMonitor_1_INT.c ****                 {
 916:Generated_Source\PSoC5/PowerMonitor_1_INT.c ****                     if (PowerMonitor_1_warnMask & (1ul << convDone))
 917:Generated_Source\PSoC5/PowerMonitor_1_INT.c ****                     {
 918:Generated_Source\PSoC5/PowerMonitor_1_INT.c ****                         if (PowerMonitor_1_warnSources & PowerMonitor_1_OV_WARN_SOURCE_MASK)
 919:Generated_Source\PSoC5/PowerMonitor_1_INT.c ****                         {
 920:Generated_Source\PSoC5/PowerMonitor_1_INT.c ****                               if (rawFiltVal > PowerMonitor_1_warnWin[convDone].OVWarnThrshldCounts
 921:Generated_Source\PSoC5/PowerMonitor_1_INT.c ****                             {
 922:Generated_Source\PSoC5/PowerMonitor_1_INT.c ****                                 /* Write the status to status bits */
 923:Generated_Source\PSoC5/PowerMonitor_1_INT.c ****                                 PowerMonitor_1_warnSourceStatus |= PowerMonitor_1_ENABLE_OV_WARN_SO
 924:Generated_Source\PSoC5/PowerMonitor_1_INT.c ****                                 PowerMonitor_1_OVWarnStatus |= (1ul << convDone);
 925:Generated_Source\PSoC5/PowerMonitor_1_INT.c ****                                 #if !defined( \
 926:Generated_Source\PSoC5/PowerMonitor_1_INT.c ****                                 PowerMonitor_1_B_PowerMonitor_SyncCtl_ctrlreg1__REMOVED)
 927:Generated_Source\PSoC5/PowerMonitor_1_INT.c ****                                     /* Write the hardware signal */
 928:Generated_Source\PSoC5/PowerMonitor_1_INT.c ****                                     PowerMonitor_1_CONTROL1_REG |= PowerMonitor_1_WARN_MASK;
 929:Generated_Source\PSoC5/PowerMonitor_1_INT.c ****                                 #endif /* B_PowerMonitor_SyncCtl_ctrlreg1__REMOVED */
 930:Generated_Source\PSoC5/PowerMonitor_1_INT.c ****                             }
 931:Generated_Source\PSoC5/PowerMonitor_1_INT.c ****                         }
 932:Generated_Source\PSoC5/PowerMonitor_1_INT.c **** 
 933:Generated_Source\PSoC5/PowerMonitor_1_INT.c ****                         if (PowerMonitor_1_warnSources & PowerMonitor_1_UV_WARN_SOURCE_MASK)
 934:Generated_Source\PSoC5/PowerMonitor_1_INT.c ****                         {
 935:Generated_Source\PSoC5/PowerMonitor_1_INT.c ****                             if (rawFiltVal < PowerMonitor_1_warnWin[convDone].UVWarnThrshldCounts )
 936:Generated_Source\PSoC5/PowerMonitor_1_INT.c ****                             {
 937:Generated_Source\PSoC5/PowerMonitor_1_INT.c ****                                 /* Write the status to status bits */
 938:Generated_Source\PSoC5/PowerMonitor_1_INT.c ****                                 PowerMonitor_1_warnSourceStatus |= PowerMonitor_1_ENABLE_UV_WARN_SO
 939:Generated_Source\PSoC5/PowerMonitor_1_INT.c ****                                 PowerMonitor_1_UVWarnStatus |= (1ul << convDone);
 940:Generated_Source\PSoC5/PowerMonitor_1_INT.c ****                                 #if !defined( \
 941:Generated_Source\PSoC5/PowerMonitor_1_INT.c ****                                 PowerMonitor_1_B_PowerMonitor_SyncCtl_ctrlreg1__REMOVED)
 942:Generated_Source\PSoC5/PowerMonitor_1_INT.c ****                                     /* Write the hardware signal */
 943:Generated_Source\PSoC5/PowerMonitor_1_INT.c ****                                     PowerMonitor_1_CONTROL1_REG |= PowerMonitor_1_WARN_MASK;
ARM GAS  C:\Users\user\AppData\Local\Temp\ccpxa6kC.s 			page 18


 944:Generated_Source\PSoC5/PowerMonitor_1_INT.c ****                                 #endif /* B_PowerMonitor_SyncCtl_ctrlreg1__REMOVED */
 945:Generated_Source\PSoC5/PowerMonitor_1_INT.c ****                             }
 946:Generated_Source\PSoC5/PowerMonitor_1_INT.c ****                         }
 947:Generated_Source\PSoC5/PowerMonitor_1_INT.c ****                     }
 948:Generated_Source\PSoC5/PowerMonitor_1_INT.c ****                 }
 949:Generated_Source\PSoC5/PowerMonitor_1_INT.c ****                 #if (PowerMonitor_1_NUM_CURRENT_SOURCES > 0u)
 950:Generated_Source\PSoC5/PowerMonitor_1_INT.c ****                     else
 951:Generated_Source\PSoC5/PowerMonitor_1_INT.c ****                     {
 952:Generated_Source\PSoC5/PowerMonitor_1_INT.c ****                         /* Get the index */
 953:Generated_Source\PSoC5/PowerMonitor_1_INT.c ****                         iChanNum = convDone - PowerMonitor_1_lastVoltageChan;
 954:Generated_Source\PSoC5/PowerMonitor_1_INT.c ****                         /* Get the actual current channel number */
 955:Generated_Source\PSoC5/PowerMonitor_1_INT.c ****                         iChanNum = PowerMonitor_1_ActiveCurrentChan[iChanNum];
 956:Generated_Source\PSoC5/PowerMonitor_1_INT.c ****                         /* Converter number is not zero based. So left shift count should
 957:Generated_Source\PSoC5/PowerMonitor_1_INT.c ****                            be converter number - 1 */
 958:Generated_Source\PSoC5/PowerMonitor_1_INT.c ****                         if (PowerMonitor_1_warnMask & (1ul << (iChanNum - 1u)))
 959:Generated_Source\PSoC5/PowerMonitor_1_INT.c ****                         {
 960:Generated_Source\PSoC5/PowerMonitor_1_INT.c ****                             if (PowerMonitor_1_warnSources & PowerMonitor_1_OC_WARN_SOURCE_MASK)
 961:Generated_Source\PSoC5/PowerMonitor_1_INT.c ****                             {
 962:Generated_Source\PSoC5/PowerMonitor_1_INT.c ****                                 if (rawFiltVal > PowerMonitor_1_warnWin[iChanNum - 1u].OCWarnThrshl
 963:Generated_Source\PSoC5/PowerMonitor_1_INT.c ****                                 {
 964:Generated_Source\PSoC5/PowerMonitor_1_INT.c ****                                     /* Write the status to status bits */
 965:Generated_Source\PSoC5/PowerMonitor_1_INT.c ****                                     PowerMonitor_1_warnSourceStatus |= PowerMonitor_1_ENABLE_OC_WAR
 966:Generated_Source\PSoC5/PowerMonitor_1_INT.c ****                                     PowerMonitor_1_OCWarnStatus |= (1ul << (iChanNum - 1u));
 967:Generated_Source\PSoC5/PowerMonitor_1_INT.c ****                                     #if !defined(\
 968:Generated_Source\PSoC5/PowerMonitor_1_INT.c ****                                     PowerMonitor_1_B_PowerMonitor_SyncCtl_ctrlreg1__REMOVED)
 969:Generated_Source\PSoC5/PowerMonitor_1_INT.c ****                                         /* Write the hardware signal */
 970:Generated_Source\PSoC5/PowerMonitor_1_INT.c ****                                         PowerMonitor_1_CONTROL1_REG |= PowerMonitor_1_WARN_MASK;
 971:Generated_Source\PSoC5/PowerMonitor_1_INT.c ****                                     #endif /* B_PowerMonitor_SyncCtl_ctrlreg1__REMOVED */
 972:Generated_Source\PSoC5/PowerMonitor_1_INT.c ****                                 }
 973:Generated_Source\PSoC5/PowerMonitor_1_INT.c ****                             }
 974:Generated_Source\PSoC5/PowerMonitor_1_INT.c ****                         }
 975:Generated_Source\PSoC5/PowerMonitor_1_INT.c ****                     }
 976:Generated_Source\PSoC5/PowerMonitor_1_INT.c ****                 #endif /* (PowerMonitor_1_CURRENT_SOURCES > 0u) */
 977:Generated_Source\PSoC5/PowerMonitor_1_INT.c ****             }
 978:Generated_Source\PSoC5/PowerMonitor_1_INT.c **** 
 979:Generated_Source\PSoC5/PowerMonitor_1_INT.c ****             if (PowerMonitor_1_faultEnable == PowerMonitor_1_CYTRUE)
 980:Generated_Source\PSoC5/PowerMonitor_1_INT.c ****             {
 981:Generated_Source\PSoC5/PowerMonitor_1_INT.c ****                 if (convDone < PowerMonitor_1_lastVoltageChan)
 982:Generated_Source\PSoC5/PowerMonitor_1_INT.c ****                 {
 983:Generated_Source\PSoC5/PowerMonitor_1_INT.c ****                     if (PowerMonitor_1_faultMask & (1ul << convDone))
 984:Generated_Source\PSoC5/PowerMonitor_1_INT.c ****                     {
 985:Generated_Source\PSoC5/PowerMonitor_1_INT.c ****                         if (PowerMonitor_1_faultSources & PowerMonitor_1_OV_FAULT_SOURCE_MASK)
 986:Generated_Source\PSoC5/PowerMonitor_1_INT.c ****                         {
 987:Generated_Source\PSoC5/PowerMonitor_1_INT.c ****                             if (rawFiltVal > PowerMonitor_1_faultWin[convDone].OVFaultThrshldCounts
 988:Generated_Source\PSoC5/PowerMonitor_1_INT.c ****                             {
 989:Generated_Source\PSoC5/PowerMonitor_1_INT.c ****                                 /* Write the status to status bits */
 990:Generated_Source\PSoC5/PowerMonitor_1_INT.c ****                                 PowerMonitor_1_faultSourceStatus |= PowerMonitor_1_ENABLE_OV_FAULT_
 991:Generated_Source\PSoC5/PowerMonitor_1_INT.c ****                                 PowerMonitor_1_OVFaultStatus |= (1ul << convDone);
 992:Generated_Source\PSoC5/PowerMonitor_1_INT.c ****                                 #if !defined(\
 993:Generated_Source\PSoC5/PowerMonitor_1_INT.c ****                                 PowerMonitor_1_B_PowerMonitor_SyncCtl_ctrlreg1__REMOVED)
 994:Generated_Source\PSoC5/PowerMonitor_1_INT.c ****                                     /* Write the hardware signal */
 995:Generated_Source\PSoC5/PowerMonitor_1_INT.c ****                                     PowerMonitor_1_CONTROL1_REG |= PowerMonitor_1_FAULT_MASK;
 996:Generated_Source\PSoC5/PowerMonitor_1_INT.c ****                                 #endif /* B_PowerMonitor_SyncCtl_ctrlreg1__REMOVED */
 997:Generated_Source\PSoC5/PowerMonitor_1_INT.c ****                                 /* Set the fault detected flag */
 998:Generated_Source\PSoC5/PowerMonitor_1_INT.c ****                                 #if (PowerMonitor_1_DEFAULT_PGOOD_CONFIG == PowerMonitor_1_PGOOD_GL
 999:Generated_Source\PSoC5/PowerMonitor_1_INT.c ****                                     PowerMonitor_1_faultDetected = PowerMonitor_1_CYTRUE;
1000:Generated_Source\PSoC5/PowerMonitor_1_INT.c ****                                 #else
ARM GAS  C:\Users\user\AppData\Local\Temp\ccpxa6kC.s 			page 19


1001:Generated_Source\PSoC5/PowerMonitor_1_INT.c ****                                     PowerMonitor_1_faultStatus[convDone] = PowerMonitor_1_CYTRUE;
1002:Generated_Source\PSoC5/PowerMonitor_1_INT.c ****                                 #endif /* (PowerMonitor_1_DEFAULT_PGOOD_CONFIG == PowerMonitor_1_PG
1003:Generated_Source\PSoC5/PowerMonitor_1_INT.c ****                             }
1004:Generated_Source\PSoC5/PowerMonitor_1_INT.c ****                         }
1005:Generated_Source\PSoC5/PowerMonitor_1_INT.c **** 
1006:Generated_Source\PSoC5/PowerMonitor_1_INT.c ****                         if (PowerMonitor_1_faultSources & PowerMonitor_1_UV_FAULT_SOURCE_MASK)
1007:Generated_Source\PSoC5/PowerMonitor_1_INT.c ****                         {
1008:Generated_Source\PSoC5/PowerMonitor_1_INT.c ****                             if (rawFiltVal < PowerMonitor_1_faultWin[convDone].UVFaultThrshldCounts
1009:Generated_Source\PSoC5/PowerMonitor_1_INT.c ****                             {
1010:Generated_Source\PSoC5/PowerMonitor_1_INT.c ****                                 /* Write the status to status bits */
1011:Generated_Source\PSoC5/PowerMonitor_1_INT.c ****                                 PowerMonitor_1_faultSourceStatus |= PowerMonitor_1_ENABLE_UV_FAULT_
1012:Generated_Source\PSoC5/PowerMonitor_1_INT.c ****                                 PowerMonitor_1_UVFaultStatus |= (1ul << convDone);
1013:Generated_Source\PSoC5/PowerMonitor_1_INT.c ****                                 #if !defined(\
1014:Generated_Source\PSoC5/PowerMonitor_1_INT.c ****                                 PowerMonitor_1_B_PowerMonitor_SyncCtl_ctrlreg1__REMOVED)
1015:Generated_Source\PSoC5/PowerMonitor_1_INT.c ****                                     /* Write the hardware signal */
1016:Generated_Source\PSoC5/PowerMonitor_1_INT.c ****                                     PowerMonitor_1_CONTROL1_REG |= PowerMonitor_1_FAULT_MASK;
1017:Generated_Source\PSoC5/PowerMonitor_1_INT.c ****                                 #endif /* B_PowerMonitor_SyncCtl_ctrlreg1__REMOVED */
1018:Generated_Source\PSoC5/PowerMonitor_1_INT.c ****                                 /* Set the fault detected flag */
1019:Generated_Source\PSoC5/PowerMonitor_1_INT.c ****                                 #if (PowerMonitor_1_DEFAULT_PGOOD_CONFIG == PowerMonitor_1_PGOOD_GL
1020:Generated_Source\PSoC5/PowerMonitor_1_INT.c ****                                     PowerMonitor_1_faultDetected = PowerMonitor_1_CYTRUE;
1021:Generated_Source\PSoC5/PowerMonitor_1_INT.c ****                                 #else
1022:Generated_Source\PSoC5/PowerMonitor_1_INT.c ****                                     PowerMonitor_1_faultStatus[convDone] = PowerMonitor_1_CYTRUE;
1023:Generated_Source\PSoC5/PowerMonitor_1_INT.c ****                                 #endif /* (PowerMonitor_1_DEFAULT_PGOOD_CONFIG == PowerMonitor_1_PG
1024:Generated_Source\PSoC5/PowerMonitor_1_INT.c ****                             }
1025:Generated_Source\PSoC5/PowerMonitor_1_INT.c ****                         }
1026:Generated_Source\PSoC5/PowerMonitor_1_INT.c ****                     }
1027:Generated_Source\PSoC5/PowerMonitor_1_INT.c ****                 }
1028:Generated_Source\PSoC5/PowerMonitor_1_INT.c ****                 #if (PowerMonitor_1_NUM_CURRENT_SOURCES > 0u)
1029:Generated_Source\PSoC5/PowerMonitor_1_INT.c ****                     else
1030:Generated_Source\PSoC5/PowerMonitor_1_INT.c ****                     {
1031:Generated_Source\PSoC5/PowerMonitor_1_INT.c ****                         /* Get the index */
1032:Generated_Source\PSoC5/PowerMonitor_1_INT.c ****                         iChanNum = convDone - PowerMonitor_1_lastVoltageChan;
1033:Generated_Source\PSoC5/PowerMonitor_1_INT.c ****                         /* Get the actual current channel number */
1034:Generated_Source\PSoC5/PowerMonitor_1_INT.c ****                         iChanNum = PowerMonitor_1_ActiveCurrentChan[iChanNum];
1035:Generated_Source\PSoC5/PowerMonitor_1_INT.c ****                         /* Converter number is not zero based. So left shitcount should be converte
1036:Generated_Source\PSoC5/PowerMonitor_1_INT.c ****                         if (PowerMonitor_1_faultMask & (1ul << (iChanNum - 1u)))
1037:Generated_Source\PSoC5/PowerMonitor_1_INT.c ****                         {
1038:Generated_Source\PSoC5/PowerMonitor_1_INT.c ****                             if (PowerMonitor_1_faultSources & PowerMonitor_1_OC_FAULT_SOURCE_MASK)
1039:Generated_Source\PSoC5/PowerMonitor_1_INT.c ****                             {
1040:Generated_Source\PSoC5/PowerMonitor_1_INT.c ****                                 if (rawFiltVal > PowerMonitor_1_faultWin[iChanNum - 1u].OCFaultThrs
1041:Generated_Source\PSoC5/PowerMonitor_1_INT.c ****                                 {
1042:Generated_Source\PSoC5/PowerMonitor_1_INT.c ****                                     /* Write the status to status bits */
1043:Generated_Source\PSoC5/PowerMonitor_1_INT.c ****                                     PowerMonitor_1_faultSourceStatus |= PowerMonitor_1_ENABLE_OC_FA
1044:Generated_Source\PSoC5/PowerMonitor_1_INT.c ****                                     PowerMonitor_1_OCFaultStatus |= (1ul << (iChanNum - 1u));
1045:Generated_Source\PSoC5/PowerMonitor_1_INT.c ****                                     #if !defined(\
1046:Generated_Source\PSoC5/PowerMonitor_1_INT.c ****                                     PowerMonitor_1_B_PowerMonitor_SyncCtl_ctrlreg1__REMOVED)
1047:Generated_Source\PSoC5/PowerMonitor_1_INT.c ****                                         /* Write the hardware signal */
1048:Generated_Source\PSoC5/PowerMonitor_1_INT.c ****                                         PowerMonitor_1_CONTROL1_REG |= PowerMonitor_1_FAULT_MASK;
1049:Generated_Source\PSoC5/PowerMonitor_1_INT.c ****                                     #endif /* B_PowerMonitor_SyncCtl_ctrlreg1__REMOVED */
1050:Generated_Source\PSoC5/PowerMonitor_1_INT.c ****                                     /* Set the fault detected flag */
1051:Generated_Source\PSoC5/PowerMonitor_1_INT.c ****                                     #if (PowerMonitor_1_DEFAULT_PGOOD_CONFIG == PowerMonitor_1_PGOO
1052:Generated_Source\PSoC5/PowerMonitor_1_INT.c ****                                         PowerMonitor_1_faultDetected = PowerMonitor_1_CYTRUE;
1053:Generated_Source\PSoC5/PowerMonitor_1_INT.c ****                                     #else
1054:Generated_Source\PSoC5/PowerMonitor_1_INT.c ****                                         PowerMonitor_1_faultStatus[iChanNum - 1u] = PowerMonitor_1_
1055:Generated_Source\PSoC5/PowerMonitor_1_INT.c ****                                     #endif /* PowerMonitor_1_DEFAULT_PGOOD_CONFIG == PowerMonitor_1
1056:Generated_Source\PSoC5/PowerMonitor_1_INT.c ****                                 }
1057:Generated_Source\PSoC5/PowerMonitor_1_INT.c ****                             }
ARM GAS  C:\Users\user\AppData\Local\Temp\ccpxa6kC.s 			page 20


1058:Generated_Source\PSoC5/PowerMonitor_1_INT.c ****                         }
1059:Generated_Source\PSoC5/PowerMonitor_1_INT.c ****                     }
1060:Generated_Source\PSoC5/PowerMonitor_1_INT.c ****                 #endif /* (PowerMonitor_1_NUM_CURRENT_SOURCES > 0u) */
1061:Generated_Source\PSoC5/PowerMonitor_1_INT.c ****             }
1062:Generated_Source\PSoC5/PowerMonitor_1_INT.c ****         }
1063:Generated_Source\PSoC5/PowerMonitor_1_INT.c **** 
1064:Generated_Source\PSoC5/PowerMonitor_1_INT.c ****         /* Generate the PGOOD signal based on the pgood terminal configuration */
1065:Generated_Source\PSoC5/PowerMonitor_1_INT.c ****         #if (PowerMonitor_1_DEFAULT_PGOOD_CONFIG == PowerMonitor_1_PGOOD_INDIVIDUAL)
1066:Generated_Source\PSoC5/PowerMonitor_1_INT.c ****             if (convDone != PowerMonitor_1_STATE_CAL)
1067:Generated_Source\PSoC5/PowerMonitor_1_INT.c ****             {
1068:Generated_Source\PSoC5/PowerMonitor_1_INT.c ****                 if (convDone < PowerMonitor_1_lastVoltageChan)
1069:Generated_Source\PSoC5/PowerMonitor_1_INT.c ****                 {
1070:Generated_Source\PSoC5/PowerMonitor_1_INT.c ****                     #if (PowerMonitor_1_NUM_CURRENT_SOURCES > 0u)
1071:Generated_Source\PSoC5/PowerMonitor_1_INT.c ****                     if (!((PowerMonitor_1_CurrentType[convDone] != PowerMonitor_1_CURRENT_TYPE_NA) 
1072:Generated_Source\PSoC5/PowerMonitor_1_INT.c ****                         (PowerMonitor_1_faultSources & PowerMonitor_1_OC_FAULT_SOURCE_MASK)))
1073:Generated_Source\PSoC5/PowerMonitor_1_INT.c ****                     {
1074:Generated_Source\PSoC5/PowerMonitor_1_INT.c ****                     #endif /* (PowerMonitor_1_NUM_CURRENT_SOURCES > 0u) */
1075:Generated_Source\PSoC5/PowerMonitor_1_INT.c ****                         if (!(PowerMonitor_1_faultStatus[convDone]))
1076:Generated_Source\PSoC5/PowerMonitor_1_INT.c ****                         {
1077:Generated_Source\PSoC5/PowerMonitor_1_INT.c ****                             #if !defined(PowerMonitor_1_B_PowerMonitor_Sync_PM_1_8_Ctrl1__REMOVED)
1078:Generated_Source\PSoC5/PowerMonitor_1_INT.c ****                                 /* publish pgood */
1079:Generated_Source\PSoC5/PowerMonitor_1_INT.c ****                                 if (convDone < PowerMonitor_1_CONVERTERS_8)
1080:Generated_Source\PSoC5/PowerMonitor_1_INT.c ****                                 {
1081:Generated_Source\PSoC5/PowerMonitor_1_INT.c ****                                     PowerMonitor_1_PGOOD_CONTROL1_REG |= (1u << convDone);
1082:Generated_Source\PSoC5/PowerMonitor_1_INT.c ****                                 }
1083:Generated_Source\PSoC5/PowerMonitor_1_INT.c ****                             #endif /* (PowerMonitor_1_B_PowerMonitor_Sync_PM_1_8_Ctrl1__REMOVED) */
1084:Generated_Source\PSoC5/PowerMonitor_1_INT.c ****                             #if !defined(PowerMonitor_1_B_PowerMonitor_Sync_PM_9_16_Ctrl2__REMOVED)
1085:Generated_Source\PSoC5/PowerMonitor_1_INT.c ****                                 #if (PowerMonitor_1_NUMBER_OF_CONVERTERS > PowerMonitor_1_CONVERTER
1086:Generated_Source\PSoC5/PowerMonitor_1_INT.c ****                                     if ((convDone >= PowerMonitor_1_CONVERTERS_8) &&
1087:Generated_Source\PSoC5/PowerMonitor_1_INT.c ****                                              (convDone < PowerMonitor_1_CONVERTERS_16))
1088:Generated_Source\PSoC5/PowerMonitor_1_INT.c ****                                     {
1089:Generated_Source\PSoC5/PowerMonitor_1_INT.c ****                                         PowerMonitor_1_PGOOD_CONTROL2_REG |=
1090:Generated_Source\PSoC5/PowerMonitor_1_INT.c ****                                         (1u << (convDone - PowerMonitor_1_CONVERTERS_8));
1091:Generated_Source\PSoC5/PowerMonitor_1_INT.c ****                                     }
1092:Generated_Source\PSoC5/PowerMonitor_1_INT.c ****                                 #endif /* (PowerMonitor_1_NUMBER_OF_CONVERTERS > PowerMonitor_1_CON
1093:Generated_Source\PSoC5/PowerMonitor_1_INT.c ****                             #endif /* (PowerMonitor_1_B_PowerMonitor_Sync_PM_9_16_Ctrl2__REMOVED) *
1094:Generated_Source\PSoC5/PowerMonitor_1_INT.c ****                             #if !defined(PowerMonitor_1_B_PowerMonitor_Sync_PM_17_24_Ctrl3__REMOVED
1095:Generated_Source\PSoC5/PowerMonitor_1_INT.c ****                                 #if (PowerMonitor_1_NUMBER_OF_CONVERTERS > PowerMonitor_1_CONVERTER
1096:Generated_Source\PSoC5/PowerMonitor_1_INT.c ****                                     if ((convDone >= PowerMonitor_1_CONVERTERS_16) &&
1097:Generated_Source\PSoC5/PowerMonitor_1_INT.c ****                                              (convDone < PowerMonitor_1_CONVERTERS_24))
1098:Generated_Source\PSoC5/PowerMonitor_1_INT.c ****                                     {
1099:Generated_Source\PSoC5/PowerMonitor_1_INT.c ****                                         PowerMonitor_1_PGOOD_CONTROL3_REG |=
1100:Generated_Source\PSoC5/PowerMonitor_1_INT.c ****                                         (1u << (convDone - PowerMonitor_1_CONVERTERS_16));
1101:Generated_Source\PSoC5/PowerMonitor_1_INT.c ****                                     }
1102:Generated_Source\PSoC5/PowerMonitor_1_INT.c ****                                 #endif /* (PowerMonitor_1_NUMBER_OF_CONVERTERS > PowerMonitor_1_CON
1103:Generated_Source\PSoC5/PowerMonitor_1_INT.c ****                             #endif /* PowerMonitor_1_B_PowerMonitor_Sync_PM_17_24_Ctrl3__REMOVED) *
1104:Generated_Source\PSoC5/PowerMonitor_1_INT.c ****                             #if !defined(PowerMonitor_1_B_PowerMonitor_Sync_PM_25_32_Ctrl4__REMOVED
1105:Generated_Source\PSoC5/PowerMonitor_1_INT.c ****                                 #if (PowerMonitor_1_NUMBER_OF_CONVERTERS > PowerMonitor_1_CONVERTER
1106:Generated_Source\PSoC5/PowerMonitor_1_INT.c ****                                     if (convDone >= PowerMonitor_1_CONVERTERS_24)
1107:Generated_Source\PSoC5/PowerMonitor_1_INT.c ****                                     {
1108:Generated_Source\PSoC5/PowerMonitor_1_INT.c ****                                         PowerMonitor_1_PGOOD_CONTROL4_REG |=
1109:Generated_Source\PSoC5/PowerMonitor_1_INT.c ****                                         (1u << (convDone - PowerMonitor_1_CONVERTERS_24));
1110:Generated_Source\PSoC5/PowerMonitor_1_INT.c ****                                     }
1111:Generated_Source\PSoC5/PowerMonitor_1_INT.c ****                                 #endif /* (PowerMonitor_1_NUMBER_OF_CONVERTERS > PowerMonitor_1_CON
1112:Generated_Source\PSoC5/PowerMonitor_1_INT.c ****                             #endif /* (PowerMonitor_1_B_PowerMonitor_Sync_PM_25_32_Ctrl4__REMOVED) 
1113:Generated_Source\PSoC5/PowerMonitor_1_INT.c ****                         }
1114:Generated_Source\PSoC5/PowerMonitor_1_INT.c ****                         else
ARM GAS  C:\Users\user\AppData\Local\Temp\ccpxa6kC.s 			page 21


1115:Generated_Source\PSoC5/PowerMonitor_1_INT.c ****                         {
1116:Generated_Source\PSoC5/PowerMonitor_1_INT.c ****                             /* Clear the status */
1117:Generated_Source\PSoC5/PowerMonitor_1_INT.c ****                             PowerMonitor_1_faultStatus[convDone] = PowerMonitor_1_CYFALSE;
1118:Generated_Source\PSoC5/PowerMonitor_1_INT.c ****                             #if !defined(PowerMonitor_1_B_PowerMonitor_Sync_PM_1_8_Ctrl1__REMOVED)
1119:Generated_Source\PSoC5/PowerMonitor_1_INT.c ****                                 /* Clear pgood */
1120:Generated_Source\PSoC5/PowerMonitor_1_INT.c ****                                 if (convDone < PowerMonitor_1_CONVERTERS_8)
1121:Generated_Source\PSoC5/PowerMonitor_1_INT.c ****                                 {
1122:Generated_Source\PSoC5/PowerMonitor_1_INT.c ****                                     PowerMonitor_1_PGOOD_CONTROL1_REG &= ~(1u << convDone);
1123:Generated_Source\PSoC5/PowerMonitor_1_INT.c ****                                 }
1124:Generated_Source\PSoC5/PowerMonitor_1_INT.c ****                             #endif /* (PowerMonitor_1_B_PowerMonitor_Sync_PM_1_8_Ctrl1__REMOVED) */
1125:Generated_Source\PSoC5/PowerMonitor_1_INT.c ****                             #if !defined(PowerMonitor_1_B_PowerMonitor_Sync_PM_9_16_Ctrl2__REMOVED)
1126:Generated_Source\PSoC5/PowerMonitor_1_INT.c ****                                 #if (PowerMonitor_1_NUMBER_OF_CONVERTERS > PowerMonitor_1_CONVERTER
1127:Generated_Source\PSoC5/PowerMonitor_1_INT.c ****                                     if ((convDone >= PowerMonitor_1_CONVERTERS_8) &&
1128:Generated_Source\PSoC5/PowerMonitor_1_INT.c ****                                              (convDone < PowerMonitor_1_CONVERTERS_16))
1129:Generated_Source\PSoC5/PowerMonitor_1_INT.c ****                                     {
1130:Generated_Source\PSoC5/PowerMonitor_1_INT.c ****                                         PowerMonitor_1_PGOOD_CONTROL2_REG &=
1131:Generated_Source\PSoC5/PowerMonitor_1_INT.c ****                                         ~(1u << (convDone - PowerMonitor_1_CONVERTERS_8));
1132:Generated_Source\PSoC5/PowerMonitor_1_INT.c ****                                     }
1133:Generated_Source\PSoC5/PowerMonitor_1_INT.c ****                                 #endif /* (PowerMonitor_1_NUMBER_OF_CONVERTERS > PowerMonitor_1_CON
1134:Generated_Source\PSoC5/PowerMonitor_1_INT.c ****                             #endif /* (PowerMonitor_1_B_PowerMonitor_Sync_PM_9_16_Ctrl2__REMOVED) *
1135:Generated_Source\PSoC5/PowerMonitor_1_INT.c ****                             #if !defined(PowerMonitor_1_B_PowerMonitor_Sync_PM_17_24_Ctrl3__REMOVED
1136:Generated_Source\PSoC5/PowerMonitor_1_INT.c ****                                 #if (PowerMonitor_1_NUMBER_OF_CONVERTERS > PowerMonitor_1_CONVERTER
1137:Generated_Source\PSoC5/PowerMonitor_1_INT.c ****                                     if ((convDone >= PowerMonitor_1_CONVERTERS_16) &&
1138:Generated_Source\PSoC5/PowerMonitor_1_INT.c ****                                              (convDone < PowerMonitor_1_CONVERTERS_24))
1139:Generated_Source\PSoC5/PowerMonitor_1_INT.c ****                                     {
1140:Generated_Source\PSoC5/PowerMonitor_1_INT.c ****                                         PowerMonitor_1_PGOOD_CONTROL3_REG &=
1141:Generated_Source\PSoC5/PowerMonitor_1_INT.c ****                                         ~(1u << (convDone - PowerMonitor_1_CONVERTERS_16));
1142:Generated_Source\PSoC5/PowerMonitor_1_INT.c ****                                     }
1143:Generated_Source\PSoC5/PowerMonitor_1_INT.c ****                                 #endif /* (PowerMonitor_1_NUMBER_OF_CONVERTERS > PowerMonitor_1_CON
1144:Generated_Source\PSoC5/PowerMonitor_1_INT.c ****                             #endif /* (PowerMonitor_1_B_PowerMonitor_Sync_PM_17_24_Ctrl3__REMOVED) 
1145:Generated_Source\PSoC5/PowerMonitor_1_INT.c ****                             #if !defined(PowerMonitor_1_B_PowerMonitor_Sync_PM_25_32_Ctrl4__REMOVED
1146:Generated_Source\PSoC5/PowerMonitor_1_INT.c ****                                 #if (PowerMonitor_1_NUMBER_OF_CONVERTERS > PowerMonitor_1_CONVERTER
1147:Generated_Source\PSoC5/PowerMonitor_1_INT.c ****                                     if (convDone >= PowerMonitor_1_CONVERTERS_24)
1148:Generated_Source\PSoC5/PowerMonitor_1_INT.c ****                                     {
1149:Generated_Source\PSoC5/PowerMonitor_1_INT.c ****                                         PowerMonitor_1_PGOOD_CONTROL4_REG &=
1150:Generated_Source\PSoC5/PowerMonitor_1_INT.c ****                                         ~(1u << (convDone - PowerMonitor_1_CONVERTERS_24));
1151:Generated_Source\PSoC5/PowerMonitor_1_INT.c ****                                     }
1152:Generated_Source\PSoC5/PowerMonitor_1_INT.c ****                                 #endif /* (PowerMonitor_1_NUMBER_OF_CONVERTERS > PowerMonitor_1_CON
1153:Generated_Source\PSoC5/PowerMonitor_1_INT.c ****                             #endif /* (PowerMonitor_1_B_PowerMonitor_Sync_PM_17_24_Ctrl3__REMOVED) 
1154:Generated_Source\PSoC5/PowerMonitor_1_INT.c ****                         }
1155:Generated_Source\PSoC5/PowerMonitor_1_INT.c ****                     #if (PowerMonitor_1_NUM_CURRENT_SOURCES > 0u)
1156:Generated_Source\PSoC5/PowerMonitor_1_INT.c ****                     }
1157:Generated_Source\PSoC5/PowerMonitor_1_INT.c ****                     #endif /* (PowerMonitor_1_NUM_CURRENT_SOURCES > 0u) */
1158:Generated_Source\PSoC5/PowerMonitor_1_INT.c ****                 }
1159:Generated_Source\PSoC5/PowerMonitor_1_INT.c ****                 #if (PowerMonitor_1_NUM_CURRENT_SOURCES > 0u)
1160:Generated_Source\PSoC5/PowerMonitor_1_INT.c ****                     else
1161:Generated_Source\PSoC5/PowerMonitor_1_INT.c ****                     {
1162:Generated_Source\PSoC5/PowerMonitor_1_INT.c ****                         if (convDone < PowerMonitor_1_lastCurrentChan)
1163:Generated_Source\PSoC5/PowerMonitor_1_INT.c ****                         {
1164:Generated_Source\PSoC5/PowerMonitor_1_INT.c ****                             /* Get the index */
1165:Generated_Source\PSoC5/PowerMonitor_1_INT.c ****                             iChanNum = convDone - PowerMonitor_1_lastVoltageChan;
1166:Generated_Source\PSoC5/PowerMonitor_1_INT.c ****                             /* Get the actual current channel number */
1167:Generated_Source\PSoC5/PowerMonitor_1_INT.c ****                             iChanNum = (PowerMonitor_1_ActiveCurrentChan[iChanNum]);
1168:Generated_Source\PSoC5/PowerMonitor_1_INT.c ****                             if ((PowerMonitor_1_CurrentType[iChanNum - 1u] != PowerMonitor_1_CURREN
1169:Generated_Source\PSoC5/PowerMonitor_1_INT.c ****                                 (PowerMonitor_1_faultSources & PowerMonitor_1_OC_FAULT_SOURCE_MASK)
1170:Generated_Source\PSoC5/PowerMonitor_1_INT.c ****                             {
1171:Generated_Source\PSoC5/PowerMonitor_1_INT.c **** 
ARM GAS  C:\Users\user\AppData\Local\Temp\ccpxa6kC.s 			page 22


1172:Generated_Source\PSoC5/PowerMonitor_1_INT.c ****                                 if (!(PowerMonitor_1_faultStatus[iChanNum - 1u]))
1173:Generated_Source\PSoC5/PowerMonitor_1_INT.c ****                                 {
1174:Generated_Source\PSoC5/PowerMonitor_1_INT.c ****                                     #if !defined(\
1175:Generated_Source\PSoC5/PowerMonitor_1_INT.c ****                                         PowerMonitor_1_B_PowerMonitor_Sync_PM_1_8_Ctrl1__REMOVED)
1176:Generated_Source\PSoC5/PowerMonitor_1_INT.c ****                                         /* publish pgood */
1177:Generated_Source\PSoC5/PowerMonitor_1_INT.c ****                                         if (iChanNum <= PowerMonitor_1_CONVERTERS_8)
1178:Generated_Source\PSoC5/PowerMonitor_1_INT.c ****                                         {
1179:Generated_Source\PSoC5/PowerMonitor_1_INT.c ****                                             PowerMonitor_1_PGOOD_CONTROL1_REG |= (1u << (iChanNum -
1180:Generated_Source\PSoC5/PowerMonitor_1_INT.c ****                                         }
1181:Generated_Source\PSoC5/PowerMonitor_1_INT.c ****                                     #endif /* Sync_PM_1_8_Ctrl1__REMOVED */
1182:Generated_Source\PSoC5/PowerMonitor_1_INT.c ****                                     #if !defined(\
1183:Generated_Source\PSoC5/PowerMonitor_1_INT.c ****                                         PowerMonitor_1_B_PowerMonitor_Sync_PM_9_16_Ctrl2__REMOVED)
1184:Generated_Source\PSoC5/PowerMonitor_1_INT.c ****                                         #if (PowerMonitor_1_NUMBER_OF_CONVERTERS > PowerMonitor_1_C
1185:Generated_Source\PSoC5/PowerMonitor_1_INT.c ****                                             if ((iChanNum > PowerMonitor_1_CONVERTERS_8) &&
1186:Generated_Source\PSoC5/PowerMonitor_1_INT.c ****                                                      (iChanNum <= PowerMonitor_1_CONVERTERS_16))
1187:Generated_Source\PSoC5/PowerMonitor_1_INT.c ****                                             {
1188:Generated_Source\PSoC5/PowerMonitor_1_INT.c ****                                                 PowerMonitor_1_PGOOD_CONTROL2_REG |=
1189:Generated_Source\PSoC5/PowerMonitor_1_INT.c ****                                                 (1u << (iChanNum - PowerMonitor_1_CONVERTERS_8 - 1u
1190:Generated_Source\PSoC5/PowerMonitor_1_INT.c ****                                             }
1191:Generated_Source\PSoC5/PowerMonitor_1_INT.c ****                                         #endif /* PowerMonitor_1_CONVERTERS_8 */
1192:Generated_Source\PSoC5/PowerMonitor_1_INT.c ****                                     #endif /* Sync_PM_9_16_Ctrl2__REMOVED */
1193:Generated_Source\PSoC5/PowerMonitor_1_INT.c ****                                     #if !defined(\
1194:Generated_Source\PSoC5/PowerMonitor_1_INT.c ****                                         PowerMonitor_1_B_PowerMonitor_Sync_PM_17_24_Ctrl3__REMOVED)
1195:Generated_Source\PSoC5/PowerMonitor_1_INT.c ****                                         #if (PowerMonitor_1_NUMBER_OF_CONVERTERS > PowerMonitor_1_C
1196:Generated_Source\PSoC5/PowerMonitor_1_INT.c ****                                             if ((iChanNum > PowerMonitor_1_CONVERTERS_16) &&
1197:Generated_Source\PSoC5/PowerMonitor_1_INT.c ****                                                      (iChanNum <= PowerMonitor_1_CONVERTERS_24))
1198:Generated_Source\PSoC5/PowerMonitor_1_INT.c ****                                             {
1199:Generated_Source\PSoC5/PowerMonitor_1_INT.c ****                                                 PowerMonitor_1_PGOOD_CONTROL3_REG |=
1200:Generated_Source\PSoC5/PowerMonitor_1_INT.c ****                                                 (1u << (iChanNum - PowerMonitor_1_CONVERTERS_16 - 1
1201:Generated_Source\PSoC5/PowerMonitor_1_INT.c ****                                             }
1202:Generated_Source\PSoC5/PowerMonitor_1_INT.c ****                                         #endif /* PowerMonitor_1_CONVERTERS_16 */
1203:Generated_Source\PSoC5/PowerMonitor_1_INT.c ****                                     #endif /* Sync_PM_17_24_Ctrl3__REMOVED */
1204:Generated_Source\PSoC5/PowerMonitor_1_INT.c ****                                     #if !defined(\
1205:Generated_Source\PSoC5/PowerMonitor_1_INT.c ****                                         PowerMonitor_1_B_PowerMonitor_Sync_PM_25_32_Ctrl4__REMOVED)
1206:Generated_Source\PSoC5/PowerMonitor_1_INT.c ****                                         #if (PowerMonitor_1_NUMBER_OF_CONVERTERS > PowerMonitor_1_C
1207:Generated_Source\PSoC5/PowerMonitor_1_INT.c ****                                             if (iChanNum > PowerMonitor_1_CONVERTERS_24)
1208:Generated_Source\PSoC5/PowerMonitor_1_INT.c ****                                             {
1209:Generated_Source\PSoC5/PowerMonitor_1_INT.c ****                                                 PowerMonitor_1_PGOOD_CONTROL4_REG |=
1210:Generated_Source\PSoC5/PowerMonitor_1_INT.c ****                                                 (1u << (iChanNum - PowerMonitor_1_CONVERTERS_24 - 1
1211:Generated_Source\PSoC5/PowerMonitor_1_INT.c ****                                             }
1212:Generated_Source\PSoC5/PowerMonitor_1_INT.c ****                                         #endif /* PowerMonitor_1_CONVERTERS_24 */
1213:Generated_Source\PSoC5/PowerMonitor_1_INT.c ****                                     #endif /* Sync_PM_25_32_Ctrl4__REMOVED */
1214:Generated_Source\PSoC5/PowerMonitor_1_INT.c ****                                 }
1215:Generated_Source\PSoC5/PowerMonitor_1_INT.c ****                                 else
1216:Generated_Source\PSoC5/PowerMonitor_1_INT.c ****                                 {
1217:Generated_Source\PSoC5/PowerMonitor_1_INT.c ****                                     /* Clear the status */
1218:Generated_Source\PSoC5/PowerMonitor_1_INT.c ****                                     PowerMonitor_1_faultStatus[iChanNum - 1u] = PowerMonitor_1_CYFA
1219:Generated_Source\PSoC5/PowerMonitor_1_INT.c ****                                     #if !defined(\
1220:Generated_Source\PSoC5/PowerMonitor_1_INT.c ****                                         PowerMonitor_1_B_PowerMonitor_Sync_PM_1_8_Ctrl1__REMOVED)
1221:Generated_Source\PSoC5/PowerMonitor_1_INT.c ****                                         /* Clear pgood */
1222:Generated_Source\PSoC5/PowerMonitor_1_INT.c ****                                         if (iChanNum <= PowerMonitor_1_CONVERTERS_8)
1223:Generated_Source\PSoC5/PowerMonitor_1_INT.c ****                                         {
1224:Generated_Source\PSoC5/PowerMonitor_1_INT.c ****                                             PowerMonitor_1_PGOOD_CONTROL1_REG &= ~(1u << (iChanNum 
1225:Generated_Source\PSoC5/PowerMonitor_1_INT.c ****                                         }
1226:Generated_Source\PSoC5/PowerMonitor_1_INT.c ****                                     #endif /* Sync_PM_1_8_Ctrl1__REMOVED */
1227:Generated_Source\PSoC5/PowerMonitor_1_INT.c ****                                     #if !defined(\
1228:Generated_Source\PSoC5/PowerMonitor_1_INT.c ****                                         PowerMonitor_1_B_PowerMonitor_Sync_PM_9_16_Ctrl2__REMOVED)
ARM GAS  C:\Users\user\AppData\Local\Temp\ccpxa6kC.s 			page 23


1229:Generated_Source\PSoC5/PowerMonitor_1_INT.c ****                                         #if (PowerMonitor_1_NUMBER_OF_CONVERTERS > PowerMonitor_1_C
1230:Generated_Source\PSoC5/PowerMonitor_1_INT.c ****                                             if ((iChanNum > PowerMonitor_1_CONVERTERS_8) &&
1231:Generated_Source\PSoC5/PowerMonitor_1_INT.c ****                                                      (iChanNum <= PowerMonitor_1_CONVERTERS_16))
1232:Generated_Source\PSoC5/PowerMonitor_1_INT.c ****                                             {
1233:Generated_Source\PSoC5/PowerMonitor_1_INT.c ****                                                 PowerMonitor_1_PGOOD_CONTROL2_REG &=
1234:Generated_Source\PSoC5/PowerMonitor_1_INT.c ****                                                 ~(1u << (iChanNum - PowerMonitor_1_CONVERTERS_8 - 1
1235:Generated_Source\PSoC5/PowerMonitor_1_INT.c ****                                             }
1236:Generated_Source\PSoC5/PowerMonitor_1_INT.c ****                                         #endif /* PowerMonitor_1_CONVERTERS_) */
1237:Generated_Source\PSoC5/PowerMonitor_1_INT.c ****                                     #endif /* Sync_PM_9_16_Ctrl2__REMOVED */
1238:Generated_Source\PSoC5/PowerMonitor_1_INT.c ****                                     #if !defined(\
1239:Generated_Source\PSoC5/PowerMonitor_1_INT.c ****                                         PowerMonitor_1_B_PowerMonitor_Sync_PM_17_24_Ctrl3__REMOVED)
1240:Generated_Source\PSoC5/PowerMonitor_1_INT.c ****                                         #if (PowerMonitor_1_NUMBER_OF_CONVERTERS > PowerMonitor_1_C
1241:Generated_Source\PSoC5/PowerMonitor_1_INT.c ****                                             if ((iChanNum > PowerMonitor_1_CONVERTERS_16) &&
1242:Generated_Source\PSoC5/PowerMonitor_1_INT.c ****                                                      (iChanNum <= PowerMonitor_1_CONVERTERS_24))
1243:Generated_Source\PSoC5/PowerMonitor_1_INT.c ****                                             {
1244:Generated_Source\PSoC5/PowerMonitor_1_INT.c ****                                                 PowerMonitor_1_PGOOD_CONTROL3_REG &=
1245:Generated_Source\PSoC5/PowerMonitor_1_INT.c ****                                                 ~(1u << (iChanNum - PowerMonitor_1_CONVERTERS_16 - 
1246:Generated_Source\PSoC5/PowerMonitor_1_INT.c ****                                             }
1247:Generated_Source\PSoC5/PowerMonitor_1_INT.c ****                                         #endif /* PowerMonitor_1_CONVERTERS_16 */
1248:Generated_Source\PSoC5/PowerMonitor_1_INT.c ****                                     #endif /* $CtrlReg_RplcString`_PM_17_24_Ctrl3__REMOVED */
1249:Generated_Source\PSoC5/PowerMonitor_1_INT.c ****                                     #if !defined(\
1250:Generated_Source\PSoC5/PowerMonitor_1_INT.c ****                                         PowerMonitor_1_B_PowerMonitor_Sync_PM_25_32_Ctrl4__REMOVED)
1251:Generated_Source\PSoC5/PowerMonitor_1_INT.c ****                                         #if (PowerMonitor_1_NUMBER_OF_CONVERTERS > PowerMonitor_1_C
1252:Generated_Source\PSoC5/PowerMonitor_1_INT.c ****                                             if (iChanNum > PowerMonitor_1_CONVERTERS_24)
1253:Generated_Source\PSoC5/PowerMonitor_1_INT.c ****                                             {
1254:Generated_Source\PSoC5/PowerMonitor_1_INT.c ****                                                 PowerMonitor_1_PGOOD_CONTROL4_REG &= \
1255:Generated_Source\PSoC5/PowerMonitor_1_INT.c ****                                                 ~(1u << (iChanNum - PowerMonitor_1_CONVERTERS_24 - 
1256:Generated_Source\PSoC5/PowerMonitor_1_INT.c ****                                             }
1257:Generated_Source\PSoC5/PowerMonitor_1_INT.c ****                                         #endif /* PowerMonitor_1_CONVERTERS_24 */
1258:Generated_Source\PSoC5/PowerMonitor_1_INT.c ****                                     #endif /* Sync_PM_25_32_Ctrl4__REMOVED */
1259:Generated_Source\PSoC5/PowerMonitor_1_INT.c ****                                 }
1260:Generated_Source\PSoC5/PowerMonitor_1_INT.c ****                             }
1261:Generated_Source\PSoC5/PowerMonitor_1_INT.c ****                         }
1262:Generated_Source\PSoC5/PowerMonitor_1_INT.c ****                     }
1263:Generated_Source\PSoC5/PowerMonitor_1_INT.c ****                 #endif /* (PowerMonitor_1_NUM_CURRENT_SOURCES > 0u) */
1264:Generated_Source\PSoC5/PowerMonitor_1_INT.c ****             }
1265:Generated_Source\PSoC5/PowerMonitor_1_INT.c ****         #else
1266:Generated_Source\PSoC5/PowerMonitor_1_INT.c ****             /* Generate the PGOOD signal at the end of voltage and current measurements */
1267:Generated_Source\PSoC5/PowerMonitor_1_INT.c ****             if (convDone == (PowerMonitor_1_TOTAL_V_I_MEASUREMENTS - 1u))
1268:Generated_Source\PSoC5/PowerMonitor_1_INT.c ****             {
1269:Generated_Source\PSoC5/PowerMonitor_1_INT.c ****                 if (!PowerMonitor_1_faultDetected)
1270:Generated_Source\PSoC5/PowerMonitor_1_INT.c ****                 {
1271:Generated_Source\PSoC5/PowerMonitor_1_INT.c ****                     #if !defined(PowerMonitor_1_B_PowerMonitor_Sync_PM_25_32_Ctrl4__REMOVED)
1272:Generated_Source\PSoC5/PowerMonitor_1_INT.c ****                         #if (PowerMonitor_1_NUMBER_OF_CONVERTERS > PowerMonitor_1_CONVERTERS_24)
1273:Generated_Source\PSoC5/PowerMonitor_1_INT.c ****                             PowerMonitor_1_PGOOD_CONTROL4_REG |= PowerMonitor_1_PGOOD_CTRL_25_32_MA
1274:Generated_Source\PSoC5/PowerMonitor_1_INT.c ****                         #endif /* (PowerMonitor_1_NUMBER_OF_CONVERTERS > PowerMonitor_1_CONVERTERS_
1275:Generated_Source\PSoC5/PowerMonitor_1_INT.c ****                     #endif /* (PowerMonitor_1_B_PowerMonitor_Sync_PM_25_32_Ctrl4__REMOVED) */
1276:Generated_Source\PSoC5/PowerMonitor_1_INT.c **** 
1277:Generated_Source\PSoC5/PowerMonitor_1_INT.c ****                     #if !defined(PowerMonitor_1_B_PowerMonitor_Sync_PM_17_24_Ctrl3__REMOVED)
1278:Generated_Source\PSoC5/PowerMonitor_1_INT.c ****                         #if (PowerMonitor_1_NUMBER_OF_CONVERTERS > PowerMonitor_1_CONVERTERS_16)
1279:Generated_Source\PSoC5/PowerMonitor_1_INT.c ****                             PowerMonitor_1_PGOOD_CONTROL3_REG |= PowerMonitor_1_PGOOD_CTRL_17_24_MA
1280:Generated_Source\PSoC5/PowerMonitor_1_INT.c ****                         #endif /* (PowerMonitor_1_NUMBER_OF_CONVERTERS > PowerMonitor_1_CONVERTERS_
1281:Generated_Source\PSoC5/PowerMonitor_1_INT.c ****                     #endif /* (PowerMonitor_1_B_PowerMonitor_Sync_PM_17_24_Ctrl3__REMOVED) */
1282:Generated_Source\PSoC5/PowerMonitor_1_INT.c **** 
1283:Generated_Source\PSoC5/PowerMonitor_1_INT.c ****                     #if !defined(PowerMonitor_1_B_PowerMonitor_Sync_PM_9_16_Ctrl2__REMOVED)
1284:Generated_Source\PSoC5/PowerMonitor_1_INT.c ****                         #if (PowerMonitor_1_NUMBER_OF_CONVERTERS > PowerMonitor_1_CONVERTERS_8)
1285:Generated_Source\PSoC5/PowerMonitor_1_INT.c ****                             PowerMonitor_1_PGOOD_CONTROL2_REG |= PowerMonitor_1_PGOOD_CTRL_9_16_MAS
ARM GAS  C:\Users\user\AppData\Local\Temp\ccpxa6kC.s 			page 24


1286:Generated_Source\PSoC5/PowerMonitor_1_INT.c ****                         #endif /* (PowerMonitor_1_NUMBER_OF_CONVERTERS > PowerMonitor_1_CONVERTERS_
1287:Generated_Source\PSoC5/PowerMonitor_1_INT.c ****                     #endif /* (PowerMonitor_1_B_PowerMonitor_Sync_PM_9_16_Ctrl2__REMOVED) */
1288:Generated_Source\PSoC5/PowerMonitor_1_INT.c **** 
1289:Generated_Source\PSoC5/PowerMonitor_1_INT.c ****                     #if !defined(PowerMonitor_1_B_PowerMonitor_Sync_PM_1_8_Ctrl1__REMOVED)
1290:Generated_Source\PSoC5/PowerMonitor_1_INT.c ****                         PowerMonitor_1_PGOOD_CONTROL1_REG |= PowerMonitor_1_PGOOD_CTRL_1_8_MASK;
1291:Generated_Source\PSoC5/PowerMonitor_1_INT.c ****                     #endif /* (PowerMonitor_1_B_PowerMonitor_Sync_PM_1_8_Ctrl1__REMOVED) */
1292:Generated_Source\PSoC5/PowerMonitor_1_INT.c ****                 }
1293:Generated_Source\PSoC5/PowerMonitor_1_INT.c ****                 else
1294:Generated_Source\PSoC5/PowerMonitor_1_INT.c ****                 {
1295:Generated_Source\PSoC5/PowerMonitor_1_INT.c ****                     PowerMonitor_1_faultDetected = PowerMonitor_1_CYFALSE;
1296:Generated_Source\PSoC5/PowerMonitor_1_INT.c ****                     /* Clear Pgood Signal */
1297:Generated_Source\PSoC5/PowerMonitor_1_INT.c ****                     #if !defined(PowerMonitor_1_B_PowerMonitor_Sync_PM_25_32_Ctrl4__REMOVED)
1298:Generated_Source\PSoC5/PowerMonitor_1_INT.c ****                         #if (PowerMonitor_1_NUMBER_OF_CONVERTERS > PowerMonitor_1_CONVERTERS_24)
1299:Generated_Source\PSoC5/PowerMonitor_1_INT.c ****                             PowerMonitor_1_PGOOD_CONTROL4_REG &= ~PowerMonitor_1_PGOOD_CTRL_25_32_M
1300:Generated_Source\PSoC5/PowerMonitor_1_INT.c ****                         #endif /* (PowerMonitor_1_NUMBER_OF_CONVERTERS > PowerMonitor_1_CONVERTERS_
1301:Generated_Source\PSoC5/PowerMonitor_1_INT.c ****                     #endif /* (PowerMonitor_1_B_PowerMonitor_Sync_PM_25_32_Ctrl4__REMOVED) */
1302:Generated_Source\PSoC5/PowerMonitor_1_INT.c **** 
1303:Generated_Source\PSoC5/PowerMonitor_1_INT.c ****                     #if !defined(PowerMonitor_1_B_PowerMonitor_Sync_PM_17_24_Ctrl3__REMOVED)
1304:Generated_Source\PSoC5/PowerMonitor_1_INT.c ****                         #if (PowerMonitor_1_NUMBER_OF_CONVERTERS > PowerMonitor_1_CONVERTERS_16)
1305:Generated_Source\PSoC5/PowerMonitor_1_INT.c ****                             PowerMonitor_1_PGOOD_CONTROL3_REG &= ~PowerMonitor_1_PGOOD_CTRL_17_24_M
1306:Generated_Source\PSoC5/PowerMonitor_1_INT.c ****                         #endif /* (PowerMonitor_1_NUMBER_OF_CONVERTERS > PowerMonitor_1_CONVERTERS_
1307:Generated_Source\PSoC5/PowerMonitor_1_INT.c ****                     #endif /* (PowerMonitor_1_B_PowerMonitor_Sync_PM_17_24_Ctrl3__REMOVED) */
1308:Generated_Source\PSoC5/PowerMonitor_1_INT.c **** 
1309:Generated_Source\PSoC5/PowerMonitor_1_INT.c ****                     #if !defined(PowerMonitor_1_B_PowerMonitor_Sync_PM_9_16_Ctrl2__REMOVED)
1310:Generated_Source\PSoC5/PowerMonitor_1_INT.c ****                         #if (PowerMonitor_1_NUMBER_OF_CONVERTERS > PowerMonitor_1_CONVERTERS_8)
1311:Generated_Source\PSoC5/PowerMonitor_1_INT.c ****                             PowerMonitor_1_PGOOD_CONTROL2_REG &= ~PowerMonitor_1_PGOOD_CTRL_9_16_MA
1312:Generated_Source\PSoC5/PowerMonitor_1_INT.c ****                         #endif /* (PowerMonitor_1_NUMBER_OF_CONVERTERS > PowerMonitor_1_CONVERTERS_
1313:Generated_Source\PSoC5/PowerMonitor_1_INT.c ****                     #endif /* (PowerMonitor_1_B_PowerMonitor_Sync_PM_9_16_Ctrl2__REMOVED) */
1314:Generated_Source\PSoC5/PowerMonitor_1_INT.c **** 
1315:Generated_Source\PSoC5/PowerMonitor_1_INT.c ****                     #if !defined(PowerMonitor_1_B_PowerMonitor_Sync_PM_1_8_Ctrl1__REMOVED)
1316:Generated_Source\PSoC5/PowerMonitor_1_INT.c ****                         PowerMonitor_1_PGOOD_CONTROL1_REG &= ~PowerMonitor_1_PGOOD_CTRL_1_8_MASK;
1317:Generated_Source\PSoC5/PowerMonitor_1_INT.c ****                     #endif /* (PowerMonitor_1_B_PowerMonitor_Sync_PM_1_8_Ctrl1__REMOVED) */
1318:Generated_Source\PSoC5/PowerMonitor_1_INT.c ****                 }
1319:Generated_Source\PSoC5/PowerMonitor_1_INT.c ****             }
1320:Generated_Source\PSoC5/PowerMonitor_1_INT.c ****         #endif /* (PowerMonitor_1_DEFAULT_PGOOD_CONFIG == PowerMonitor_1_PGOOD_INDIVIDUAL) */
1321:Generated_Source\PSoC5/PowerMonitor_1_INT.c **** 
1322:Generated_Source\PSoC5/PowerMonitor_1_INT.c ****         /* Generate EOC output */
1323:Generated_Source\PSoC5/PowerMonitor_1_INT.c ****         #if !defined(PowerMonitor_1_B_PowerMonitor_SyncCtl_ctrlreg1__REMOVED)
1324:Generated_Source\PSoC5/PowerMonitor_1_INT.c ****             #if(PowerMonitor_1_EOC_CONFIG == PowerMonitor_1__PER_SAMPLE)
1325:Generated_Source\PSoC5/PowerMonitor_1_INT.c ****                 PowerMonitor_1_CONTROL1_REG = (PowerMonitor_1_CONTROL1_REG ^ PowerMonitor_1_EOC_MAS
1326:Generated_Source\PSoC5/PowerMonitor_1_INT.c ****             #else
1327:Generated_Source\PSoC5/PowerMonitor_1_INT.c ****                 if (convDone == (PowerMonitor_1_maxChannels - 1u))
1328:Generated_Source\PSoC5/PowerMonitor_1_INT.c ****                 {
1329:Generated_Source\PSoC5/PowerMonitor_1_INT.c ****                     PowerMonitor_1_CONTROL1_REG = (PowerMonitor_1_CONTROL1_REG ^ PowerMonitor_1_EOC
1330:Generated_Source\PSoC5/PowerMonitor_1_INT.c ****                 }
1331:Generated_Source\PSoC5/PowerMonitor_1_INT.c ****             #endif /* PowerMonitor_1_SINGLE_ENDED_INPUT_MODE == PowerMonitor_1__PER_SAMPLE */
1332:Generated_Source\PSoC5/PowerMonitor_1_INT.c ****         #endif /* (PowerMonitor_1_B_PowerMonitor_SyncCtl_ctrlreg1__REMOVED) */
1333:Generated_Source\PSoC5/PowerMonitor_1_INT.c ****     }
1334:Generated_Source\PSoC5/PowerMonitor_1_INT.c ****     else
1335:Generated_Source\PSoC5/PowerMonitor_1_INT.c ****     {
1336:Generated_Source\PSoC5/PowerMonitor_1_INT.c ****         if (convDone == (PowerMonitor_1_maxChannels - 1u))
1337:Generated_Source\PSoC5/PowerMonitor_1_INT.c ****         {
1338:Generated_Source\PSoC5/PowerMonitor_1_INT.c ****             if(PowerMonitor_1_adcStartFalseCnt != 0u)
1339:Generated_Source\PSoC5/PowerMonitor_1_INT.c ****             {
1340:Generated_Source\PSoC5/PowerMonitor_1_INT.c ****                 PowerMonitor_1_adcStartFalseCnt --;
1341:Generated_Source\PSoC5/PowerMonitor_1_INT.c ****             }
1342:Generated_Source\PSoC5/PowerMonitor_1_INT.c ****             if((PowerMonitor_1_initThreshold == 1u)&&(PowerMonitor_1_adcStartFalseCnt == 0u))
ARM GAS  C:\Users\user\AppData\Local\Temp\ccpxa6kC.s 			page 25


1343:Generated_Source\PSoC5/PowerMonitor_1_INT.c ****             {
1344:Generated_Source\PSoC5/PowerMonitor_1_INT.c ****                 PowerMonitor_1_PMoutEn = PowerMonitor_1_CYTRUE;
1345:Generated_Source\PSoC5/PowerMonitor_1_INT.c ****             }
1346:Generated_Source\PSoC5/PowerMonitor_1_INT.c ****         }
1347:Generated_Source\PSoC5/PowerMonitor_1_INT.c ****     }
1348:Generated_Source\PSoC5/PowerMonitor_1_INT.c **** 
1349:Generated_Source\PSoC5/PowerMonitor_1_INT.c ****     /************************************************************************
1350:Generated_Source\PSoC5/PowerMonitor_1_INT.c ****     *  Custom Code
1351:Generated_Source\PSoC5/PowerMonitor_1_INT.c ****     *  - add user ISR code between the following #START and #END tags
1352:Generated_Source\PSoC5/PowerMonitor_1_INT.c ****     *************************************************************************/
1353:Generated_Source\PSoC5/PowerMonitor_1_INT.c ****     /* `#START END_POWER_MONITOR_ISR`  */
1354:Generated_Source\PSoC5/PowerMonitor_1_INT.c **** 
1355:Generated_Source\PSoC5/PowerMonitor_1_INT.c ****     /* `#END`  */
1356:Generated_Source\PSoC5/PowerMonitor_1_INT.c **** 
1357:Generated_Source\PSoC5/PowerMonitor_1_INT.c ****     #ifdef PowerMonitor_1_ISR_EXIT_CALLBACK
1358:Generated_Source\PSoC5/PowerMonitor_1_INT.c ****         PowerMonitor_1_ISR_ExitCallback();
1359:Generated_Source\PSoC5/PowerMonitor_1_INT.c ****     #endif /* PowerMonitor_1_ISR_EXIT_CALLBACK */
1360:Generated_Source\PSoC5/PowerMonitor_1_INT.c **** 
1361:Generated_Source\PSoC5/PowerMonitor_1_INT.c ****     #if(CY_PSOC3)
1362:Generated_Source\PSoC5/PowerMonitor_1_INT.c ****         /* Restore the global interrupts */
1363:Generated_Source\PSoC5/PowerMonitor_1_INT.c ****         EA = int_en;
1364:Generated_Source\PSoC5/PowerMonitor_1_INT.c ****     #endif /* (CY_PSOC3) */
1365:Generated_Source\PSoC5/PowerMonitor_1_INT.c **** }
1366:Generated_Source\PSoC5/PowerMonitor_1_INT.c **** 
1367:Generated_Source\PSoC5/PowerMonitor_1_INT.c **** 
1368:Generated_Source\PSoC5/PowerMonitor_1_INT.c **** /******************************************************************************
1369:Generated_Source\PSoC5/PowerMonitor_1_INT.c **** * Function Name: PowerMonitor_1_SaveDsmRegsAndIsolate()
1370:Generated_Source\PSoC5/PowerMonitor_1_INT.c **** ********************************************************************************
1371:Generated_Source\PSoC5/PowerMonitor_1_INT.c **** *
1372:Generated_Source\PSoC5/PowerMonitor_1_INT.c **** * Summary:
1373:Generated_Source\PSoC5/PowerMonitor_1_INT.c **** *  Save DeltaSigma DSM ADC connections to fully isolate before manual routing
1374:Generated_Source\PSoC5/PowerMonitor_1_INT.c **** *  (bypassing the AMuxSeq Component) for calibration.
1375:Generated_Source\PSoC5/PowerMonitor_1_INT.c **** *
1376:Generated_Source\PSoC5/PowerMonitor_1_INT.c **** * Parameters:
1377:Generated_Source\PSoC5/PowerMonitor_1_INT.c **** *  void
1378:Generated_Source\PSoC5/PowerMonitor_1_INT.c **** *
1379:Generated_Source\PSoC5/PowerMonitor_1_INT.c **** * Return:
1380:Generated_Source\PSoC5/PowerMonitor_1_INT.c **** *  void
1381:Generated_Source\PSoC5/PowerMonitor_1_INT.c **** *
1382:Generated_Source\PSoC5/PowerMonitor_1_INT.c **** * Theory:
1383:Generated_Source\PSoC5/PowerMonitor_1_INT.c **** *  Note the AMuxSeq routing is logical and predictable, EXCEPT that the fitter
1384:Generated_Source\PSoC5/PowerMonitor_1_INT.c **** *   currently disconnects the 2xVref reference at the PGA, not at the DSM(-)
1385:Generated_Source\PSoC5/PowerMonitor_1_INT.c **** *   as the schematic leads you to conclude.  This is handled here
1386:Generated_Source\PSoC5/PowerMonitor_1_INT.c **** *
1387:Generated_Source\PSoC5/PowerMonitor_1_INT.c **** * Calibration originally used the AMuxSeq component, but uses 3 AMuxSeq
1388:Generated_Source\PSoC5/PowerMonitor_1_INT.c **** *  input channels.  The AMuxSeq has a max of 32 channels and we want up to
1389:Generated_Source\PSoC5/PowerMonitor_1_INT.c **** *  16 rails, so do calibration routing outside the AMuxSeq.
1390:Generated_Source\PSoC5/PowerMonitor_1_INT.c **** *
1391:Generated_Source\PSoC5/PowerMonitor_1_INT.c **** *  This section MIGHT need occasional tweaking because it relies upon
1392:Generated_Source\PSoC5/PowerMonitor_1_INT.c **** *  knowledge of how CY Fitter works.  Although CY Fitter should be
1393:Generated_Source\PSoC5/PowerMonitor_1_INT.c **** *  constrained to a good rendering, it may still do unexpected things.
1394:Generated_Source\PSoC5/PowerMonitor_1_INT.c **** *  For example, it attaches 2048mV to DelSig(-) by leaving ABUSL1 on the
1395:Generated_Source\PSoC5/PowerMonitor_1_INT.c **** *  DelSig and controlling the PGA output switch.
1396:Generated_Source\PSoC5/PowerMonitor_1_INT.c **** *
1397:Generated_Source\PSoC5/PowerMonitor_1_INT.c **** *******************************************************************************/
1398:Generated_Source\PSoC5/PowerMonitor_1_INT.c **** static void PowerMonitor_1_SaveDsmRegsAndIsolate(void) 
1399:Generated_Source\PSoC5/PowerMonitor_1_INT.c **** {
ARM GAS  C:\Users\user\AppData\Local\Temp\ccpxa6kC.s 			page 26


  27              		.loc 1 1399 0
  28              		.cfi_startproc
  29              		@ args = 0, pretend = 0, frame = 0
  30              		@ frame_needed = 0, uses_anonymous_args = 0
  31              		@ link register save eliminated.
  32 0000 70B4     		push	{r4, r5, r6}
  33              		.cfi_def_cfa_offset 12
  34              		.cfi_offset 4, -12
  35              		.cfi_offset 5, -8
  36              		.cfi_offset 6, -4
1400:Generated_Source\PSoC5/PowerMonitor_1_INT.c ****     PowerMonitor_1_keep_CYREG_DSM0_SW0 = PowerMonitor_1_ADC_DSM_SW0_REG;
  37              		.loc 1 1400 0
  38 0002 0D4E     		ldr	r6, .L3
  39 0004 3278     		ldrb	r2, [r6]	@ zero_extendqisi2
  40 0006 0D4B     		ldr	r3, .L3+4
  41 0008 1A70     		strb	r2, [r3]
1401:Generated_Source\PSoC5/PowerMonitor_1_INT.c ****     PowerMonitor_1_keep_CYREG_DSM0_SW2 = PowerMonitor_1_ADC_DSM_SW2_REG;
  42              		.loc 1 1401 0
  43 000a 0D4D     		ldr	r5, .L3+8
  44 000c 2A78     		ldrb	r2, [r5]	@ zero_extendqisi2
  45 000e 5A70     		strb	r2, [r3, #1]
1402:Generated_Source\PSoC5/PowerMonitor_1_INT.c ****     PowerMonitor_1_keep_CYREG_DSM0_SW3 = PowerMonitor_1_ADC_DSM_SW3_REG;
  46              		.loc 1 1402 0
  47 0010 0C4C     		ldr	r4, .L3+12
  48 0012 2278     		ldrb	r2, [r4]	@ zero_extendqisi2
  49 0014 9A70     		strb	r2, [r3, #2]
1403:Generated_Source\PSoC5/PowerMonitor_1_INT.c ****     PowerMonitor_1_keep_CYREG_DSM0_SW4 = PowerMonitor_1_ADC_DSM_SW4_REG;
  50              		.loc 1 1403 0
  51 0016 0C48     		ldr	r0, .L3+16
  52 0018 0278     		ldrb	r2, [r0]	@ zero_extendqisi2
  53 001a DA70     		strb	r2, [r3, #3]
1404:Generated_Source\PSoC5/PowerMonitor_1_INT.c ****     PowerMonitor_1_keep_CYREG_DSM0_SW6 = PowerMonitor_1_ADC_DSM_SW6_REG;
  54              		.loc 1 1404 0
  55 001c 0B49     		ldr	r1, .L3+20
  56 001e 0A78     		ldrb	r2, [r1]	@ zero_extendqisi2
  57 0020 1A71     		strb	r2, [r3, #4]
1405:Generated_Source\PSoC5/PowerMonitor_1_INT.c ****     /***************************************************************************
1406:Generated_Source\PSoC5/PowerMonitor_1_INT.c ****     * Isolate/disconnect DSM inputs
1407:Generated_Source\PSoC5/PowerMonitor_1_INT.c ****     ***************************************************************************/
1408:Generated_Source\PSoC5/PowerMonitor_1_INT.c ****     PowerMonitor_1_ADC_DSM_SW0_REG = 0x00u;
  58              		.loc 1 1408 0
  59 0022 0022     		movs	r2, #0
  60 0024 3270     		strb	r2, [r6]
1409:Generated_Source\PSoC5/PowerMonitor_1_INT.c ****     PowerMonitor_1_ADC_DSM_SW2_REG = 0x00u;
  61              		.loc 1 1409 0
  62 0026 2A70     		strb	r2, [r5]
1410:Generated_Source\PSoC5/PowerMonitor_1_INT.c ****     PowerMonitor_1_ADC_DSM_SW3_REG = 0x00u;
  63              		.loc 1 1410 0
  64 0028 2270     		strb	r2, [r4]
1411:Generated_Source\PSoC5/PowerMonitor_1_INT.c ****     PowerMonitor_1_ADC_DSM_SW4_REG = 0x00u;
  65              		.loc 1 1411 0
  66 002a 0270     		strb	r2, [r0]
1412:Generated_Source\PSoC5/PowerMonitor_1_INT.c ****     PowerMonitor_1_ADC_DSM_SW6_REG = 0x00u;
  67              		.loc 1 1412 0
  68 002c 0A70     		strb	r2, [r1]
1413:Generated_Source\PSoC5/PowerMonitor_1_INT.c **** 
1414:Generated_Source\PSoC5/PowerMonitor_1_INT.c ****     /* Set the flag after writing ADC switching registers with new values for
ARM GAS  C:\Users\user\AppData\Local\Temp\ccpxa6kC.s 			page 27


1415:Generated_Source\PSoC5/PowerMonitor_1_INT.c ****        calibration. This will be used to restore the DSM switching registers
1416:Generated_Source\PSoC5/PowerMonitor_1_INT.c ****        soon after calibration */
1417:Generated_Source\PSoC5/PowerMonitor_1_INT.c ****     PowerMonitor_1_dsmRegRestorePend = PowerMonitor_1_CYTRUE;
  69              		.loc 1 1417 0
  70 002e 0122     		movs	r2, #1
  71 0030 5A71     		strb	r2, [r3, #5]
1418:Generated_Source\PSoC5/PowerMonitor_1_INT.c **** }
  72              		.loc 1 1418 0
  73 0032 70BC     		pop	{r4, r5, r6}
  74              		.cfi_restore 6
  75              		.cfi_restore 5
  76              		.cfi_restore 4
  77              		.cfi_def_cfa_offset 0
  78 0034 7047     		bx	lr
  79              	.L4:
  80 0036 00BF     		.align	2
  81              	.L3:
  82 0038 005B0040 		.word	1073765120
  83 003c 00000000 		.word	.LANCHOR0
  84 0040 025B0040 		.word	1073765122
  85 0044 035B0040 		.word	1073765123
  86 0048 045B0040 		.word	1073765124
  87 004c 065B0040 		.word	1073765126
  88              		.cfi_endproc
  89              	.LFE4:
  90              		.size	PowerMonitor_1_SaveDsmRegsAndIsolate, .-PowerMonitor_1_SaveDsmRegsAndIsolate
  91              		.section	.text.PowerMonitor_1_RestoreDsmRegs,"ax",%progbits
  92              		.align	2
  93              		.thumb
  94              		.thumb_func
  95              		.type	PowerMonitor_1_RestoreDsmRegs, %function
  96              	PowerMonitor_1_RestoreDsmRegs:
  97              	.LFB5:
1419:Generated_Source\PSoC5/PowerMonitor_1_INT.c **** 
1420:Generated_Source\PSoC5/PowerMonitor_1_INT.c **** 
1421:Generated_Source\PSoC5/PowerMonitor_1_INT.c **** /*******************************************************************************
1422:Generated_Source\PSoC5/PowerMonitor_1_INT.c **** * Function Name: PowerMonitor_1_RestoreDsmRegs()
1423:Generated_Source\PSoC5/PowerMonitor_1_INT.c **** ********************************************************************************
1424:Generated_Source\PSoC5/PowerMonitor_1_INT.c **** *
1425:Generated_Source\PSoC5/PowerMonitor_1_INT.c **** * Summary:
1426:Generated_Source\PSoC5/PowerMonitor_1_INT.c **** *  Replace DSM default switches as expected by AMuxSeq.  Does the inverse
1427:Generated_Source\PSoC5/PowerMonitor_1_INT.c **** *  of sameDsmRegsAndIsolate() when leaving calibration and resuming sampling.
1428:Generated_Source\PSoC5/PowerMonitor_1_INT.c **** *
1429:Generated_Source\PSoC5/PowerMonitor_1_INT.c **** * Parameters:
1430:Generated_Source\PSoC5/PowerMonitor_1_INT.c **** *  void
1431:Generated_Source\PSoC5/PowerMonitor_1_INT.c **** *
1432:Generated_Source\PSoC5/PowerMonitor_1_INT.c **** * Return:
1433:Generated_Source\PSoC5/PowerMonitor_1_INT.c **** *  void
1434:Generated_Source\PSoC5/PowerMonitor_1_INT.c **** *
1435:Generated_Source\PSoC5/PowerMonitor_1_INT.c **** * Theory:
1436:Generated_Source\PSoC5/PowerMonitor_1_INT.c **** *
1437:Generated_Source\PSoC5/PowerMonitor_1_INT.c **** * Side Effects:
1438:Generated_Source\PSoC5/PowerMonitor_1_INT.c **** *  Note the AMuxSeq routing is logical and predictable, EXCEPT that the fitter
1439:Generated_Source\PSoC5/PowerMonitor_1_INT.c **** *   currently disconnects the 2xVref reference at the PGA, not at the DSM(-)
1440:Generated_Source\PSoC5/PowerMonitor_1_INT.c **** *   as the schematic leads you to conclude.  This is handled here
1441:Generated_Source\PSoC5/PowerMonitor_1_INT.c **** *
1442:Generated_Source\PSoC5/PowerMonitor_1_INT.c **** *******************************************************************************/
ARM GAS  C:\Users\user\AppData\Local\Temp\ccpxa6kC.s 			page 28


1443:Generated_Source\PSoC5/PowerMonitor_1_INT.c **** static void PowerMonitor_1_RestoreDsmRegs(void) 
1444:Generated_Source\PSoC5/PowerMonitor_1_INT.c **** {
  98              		.loc 1 1444 0
  99              		.cfi_startproc
 100              		@ args = 0, pretend = 0, frame = 0
 101              		@ frame_needed = 0, uses_anonymous_args = 0
 102              		@ link register save eliminated.
 103 0000 F0B4     		push	{r4, r5, r6, r7}
 104              		.cfi_def_cfa_offset 16
 105              		.cfi_offset 4, -16
 106              		.cfi_offset 5, -12
 107              		.cfi_offset 6, -8
 108              		.cfi_offset 7, -4
1445:Generated_Source\PSoC5/PowerMonitor_1_INT.c ****     /* Isolate/disconnect DSM inputs BEFORE restoring connections */
1446:Generated_Source\PSoC5/PowerMonitor_1_INT.c ****     PowerMonitor_1_ADC_DSM_SW0_REG = 0x00u;
 109              		.loc 1 1446 0
 110 0002 0C4E     		ldr	r6, .L7
 111 0004 0022     		movs	r2, #0
 112 0006 3270     		strb	r2, [r6]
1447:Generated_Source\PSoC5/PowerMonitor_1_INT.c ****     PowerMonitor_1_ADC_DSM_SW2_REG = 0x00u;
 113              		.loc 1 1447 0
 114 0008 0B4D     		ldr	r5, .L7+4
 115 000a 2A70     		strb	r2, [r5]
1448:Generated_Source\PSoC5/PowerMonitor_1_INT.c ****     PowerMonitor_1_ADC_DSM_SW3_REG = 0x00u;
 116              		.loc 1 1448 0
 117 000c 0B4C     		ldr	r4, .L7+8
 118 000e 2270     		strb	r2, [r4]
1449:Generated_Source\PSoC5/PowerMonitor_1_INT.c ****     PowerMonitor_1_ADC_DSM_SW4_REG = 0x00u;
 119              		.loc 1 1449 0
 120 0010 0B48     		ldr	r0, .L7+12
 121 0012 0270     		strb	r2, [r0]
1450:Generated_Source\PSoC5/PowerMonitor_1_INT.c ****     PowerMonitor_1_ADC_DSM_SW6_REG = 0x00u;
 122              		.loc 1 1450 0
 123 0014 0B49     		ldr	r1, .L7+16
 124 0016 0A70     		strb	r2, [r1]
1451:Generated_Source\PSoC5/PowerMonitor_1_INT.c **** 
1452:Generated_Source\PSoC5/PowerMonitor_1_INT.c ****     /* Restore original DSM connnections */
1453:Generated_Source\PSoC5/PowerMonitor_1_INT.c ****     PowerMonitor_1_ADC_DSM_SW0_REG = PowerMonitor_1_keep_CYREG_DSM0_SW0;
 125              		.loc 1 1453 0
 126 0018 0B4B     		ldr	r3, .L7+20
 127 001a 1F78     		ldrb	r7, [r3]	@ zero_extendqisi2
 128 001c 3770     		strb	r7, [r6]
1454:Generated_Source\PSoC5/PowerMonitor_1_INT.c ****     PowerMonitor_1_ADC_DSM_SW2_REG = PowerMonitor_1_keep_CYREG_DSM0_SW2;
 129              		.loc 1 1454 0
 130 001e 5E78     		ldrb	r6, [r3, #1]	@ zero_extendqisi2
 131 0020 2E70     		strb	r6, [r5]
1455:Generated_Source\PSoC5/PowerMonitor_1_INT.c ****     PowerMonitor_1_ADC_DSM_SW3_REG = PowerMonitor_1_keep_CYREG_DSM0_SW3;
 132              		.loc 1 1455 0
 133 0022 9D78     		ldrb	r5, [r3, #2]	@ zero_extendqisi2
 134 0024 2570     		strb	r5, [r4]
1456:Generated_Source\PSoC5/PowerMonitor_1_INT.c ****     PowerMonitor_1_ADC_DSM_SW4_REG = PowerMonitor_1_keep_CYREG_DSM0_SW4;
 135              		.loc 1 1456 0
 136 0026 DC78     		ldrb	r4, [r3, #3]	@ zero_extendqisi2
 137 0028 0470     		strb	r4, [r0]
1457:Generated_Source\PSoC5/PowerMonitor_1_INT.c ****     PowerMonitor_1_ADC_DSM_SW6_REG = PowerMonitor_1_keep_CYREG_DSM0_SW6;
 138              		.loc 1 1457 0
 139 002a 1879     		ldrb	r0, [r3, #4]	@ zero_extendqisi2
ARM GAS  C:\Users\user\AppData\Local\Temp\ccpxa6kC.s 			page 29


 140 002c 0870     		strb	r0, [r1]
1458:Generated_Source\PSoC5/PowerMonitor_1_INT.c **** 
1459:Generated_Source\PSoC5/PowerMonitor_1_INT.c ****     /* Clear the flag after restoring ADC switching registers */
1460:Generated_Source\PSoC5/PowerMonitor_1_INT.c ****     PowerMonitor_1_dsmRegRestorePend = PowerMonitor_1_CYFALSE;
 141              		.loc 1 1460 0
 142 002e 5A71     		strb	r2, [r3, #5]
1461:Generated_Source\PSoC5/PowerMonitor_1_INT.c **** }
 143              		.loc 1 1461 0
 144 0030 F0BC     		pop	{r4, r5, r6, r7}
 145              		.cfi_restore 7
 146              		.cfi_restore 6
 147              		.cfi_restore 5
 148              		.cfi_restore 4
 149              		.cfi_def_cfa_offset 0
 150 0032 7047     		bx	lr
 151              	.L8:
 152              		.align	2
 153              	.L7:
 154 0034 005B0040 		.word	1073765120
 155 0038 025B0040 		.word	1073765122
 156 003c 035B0040 		.word	1073765123
 157 0040 045B0040 		.word	1073765124
 158 0044 065B0040 		.word	1073765126
 159 0048 00000000 		.word	.LANCHOR0
 160              		.cfi_endproc
 161              	.LFE5:
 162              		.size	PowerMonitor_1_RestoreDsmRegs, .-PowerMonitor_1_RestoreDsmRegs
 163              		.section	.text.PowerMonitor_1_GetMaxFilterOrder,"ax",%progbits
 164              		.align	2
 165              		.thumb
 166              		.thumb_func
 167              		.type	PowerMonitor_1_GetMaxFilterOrder, %function
 168              	PowerMonitor_1_GetMaxFilterOrder:
 169              	.LFB6:
1462:Generated_Source\PSoC5/PowerMonitor_1_INT.c **** 
1463:Generated_Source\PSoC5/PowerMonitor_1_INT.c **** 
1464:Generated_Source\PSoC5/PowerMonitor_1_INT.c **** /*******************************************************************************
1465:Generated_Source\PSoC5/PowerMonitor_1_INT.c **** * Function Name: PowerMonitor_1_GetMaxFilterOrder()
1466:Generated_Source\PSoC5/PowerMonitor_1_INT.c **** ********************************************************************************
1467:Generated_Source\PSoC5/PowerMonitor_1_INT.c **** *
1468:Generated_Source\PSoC5/PowerMonitor_1_INT.c **** * Summary:
1469:Generated_Source\PSoC5/PowerMonitor_1_INT.c **** *  Return maximun filter order (voltage, current, auxiliary)
1470:Generated_Source\PSoC5/PowerMonitor_1_INT.c **** *
1471:Generated_Source\PSoC5/PowerMonitor_1_INT.c **** * Parameters:
1472:Generated_Source\PSoC5/PowerMonitor_1_INT.c **** *  void
1473:Generated_Source\PSoC5/PowerMonitor_1_INT.c **** *
1474:Generated_Source\PSoC5/PowerMonitor_1_INT.c **** * Return:
1475:Generated_Source\PSoC5/PowerMonitor_1_INT.c **** *  maximun filter order
1476:Generated_Source\PSoC5/PowerMonitor_1_INT.c **** *
1477:Generated_Source\PSoC5/PowerMonitor_1_INT.c **** *******************************************************************************/
1478:Generated_Source\PSoC5/PowerMonitor_1_INT.c **** static uint8 PowerMonitor_1_GetMaxFilterOrder(void) 
1479:Generated_Source\PSoC5/PowerMonitor_1_INT.c **** {
 170              		.loc 1 1479 0
 171              		.cfi_startproc
 172              		@ args = 0, pretend = 0, frame = 0
 173              		@ frame_needed = 0, uses_anonymous_args = 0
 174              		@ link register save eliminated.
ARM GAS  C:\Users\user\AppData\Local\Temp\ccpxa6kC.s 			page 30


 175              	.LVL0:
1480:Generated_Source\PSoC5/PowerMonitor_1_INT.c ****     uint8 ret = PowerMonitor_1_VOLTAGE_FILTER_SIZE;
1481:Generated_Source\PSoC5/PowerMonitor_1_INT.c **** 
1482:Generated_Source\PSoC5/PowerMonitor_1_INT.c ****     #if (PowerMonitor_1_NUM_CURRENT_SOURCES > 0u)
1483:Generated_Source\PSoC5/PowerMonitor_1_INT.c ****         if(PowerMonitor_1_CURRENT_FILTER_SIZE > ret)
1484:Generated_Source\PSoC5/PowerMonitor_1_INT.c ****         {
1485:Generated_Source\PSoC5/PowerMonitor_1_INT.c ****             ret = PowerMonitor_1_CURRENT_FILTER_SIZE;
1486:Generated_Source\PSoC5/PowerMonitor_1_INT.c ****         }
1487:Generated_Source\PSoC5/PowerMonitor_1_INT.c ****     #endif /* PowerMonitor_1_NUM_CURRENT_SOURCES > 0u */
1488:Generated_Source\PSoC5/PowerMonitor_1_INT.c **** 
1489:Generated_Source\PSoC5/PowerMonitor_1_INT.c ****     #if (PowerMonitor_1_NUM_AUX_INPUTS > 0u)
1490:Generated_Source\PSoC5/PowerMonitor_1_INT.c ****         if(PowerMonitor_1_AUX_VOLTAGE_FILTER_SIZE > ret)
1491:Generated_Source\PSoC5/PowerMonitor_1_INT.c ****         {
1492:Generated_Source\PSoC5/PowerMonitor_1_INT.c ****             ret = PowerMonitor_1_AUX_VOLTAGE_FILTER_SIZE;
1493:Generated_Source\PSoC5/PowerMonitor_1_INT.c ****         }
1494:Generated_Source\PSoC5/PowerMonitor_1_INT.c ****     #endif /* PowerMonitor_1_NUM_AUX_INPUTS > 0u */
1495:Generated_Source\PSoC5/PowerMonitor_1_INT.c ****     return ret;
1496:Generated_Source\PSoC5/PowerMonitor_1_INT.c **** }
 176              		.loc 1 1496 0
 177 0000 1020     		movs	r0, #16
 178 0002 7047     		bx	lr
 179              		.cfi_endproc
 180              	.LFE6:
 181              		.size	PowerMonitor_1_GetMaxFilterOrder, .-PowerMonitor_1_GetMaxFilterOrder
 182              		.section	.text.PowerMonitor_1_Set_Current_Channel,"ax",%progbits
 183              		.align	2
 184              		.thumb
 185              		.thumb_func
 186              		.type	PowerMonitor_1_Set_Current_Channel, %function
 187              	PowerMonitor_1_Set_Current_Channel:
 188              	.LFB2:
 438:Generated_Source\PSoC5/PowerMonitor_1_INT.c ****         /* Check to see whether current type is differential or not. If it is
 189              		.loc 1 438 0
 190              		.cfi_startproc
 191              		@ args = 0, pretend = 0, frame = 0
 192              		@ frame_needed = 0, uses_anonymous_args = 0
 442:Generated_Source\PSoC5/PowerMonitor_1_INT.c ****         {
 193              		.loc 1 442 0
 194 0000 02E0     		b	.L11
 195              	.L12:
 444:Generated_Source\PSoC5/PowerMonitor_1_INT.c ****         }
 196              		.loc 1 444 0
 197 0002 0130     		adds	r0, r0, #1
 198 0004 244B     		ldr	r3, .L18
 199 0006 9871     		strb	r0, [r3, #6]
 200              	.L11:
 442:Generated_Source\PSoC5/PowerMonitor_1_INT.c ****         {
 201              		.loc 1 442 0
 202 0008 234B     		ldr	r3, .L18
 203 000a 9879     		ldrb	r0, [r3, #6]	@ zero_extendqisi2
 204 000c 234B     		ldr	r3, .L18+4
 205 000e 1B5C     		ldrb	r3, [r3, r0]	@ zero_extendqisi2
 206 0010 002B     		cmp	r3, #0
 207 0012 F6D0     		beq	.L12
 438:Generated_Source\PSoC5/PowerMonitor_1_INT.c ****         /* Check to see whether current type is differential or not. If it is
 208              		.loc 1 438 0
 209 0014 10B5     		push	{r4, lr}
ARM GAS  C:\Users\user\AppData\Local\Temp\ccpxa6kC.s 			page 31


 210              		.cfi_def_cfa_offset 8
 211              		.cfi_offset 4, -8
 212              		.cfi_offset 14, -4
 448:Generated_Source\PSoC5/PowerMonitor_1_INT.c ****         {
 213              		.loc 1 448 0
 214 0016 012B     		cmp	r3, #1
 215 0018 1DD1     		bne	.L13
 451:Generated_Source\PSoC5/PowerMonitor_1_INT.c ****             /* Select the proper AMux channels */
 216              		.loc 1 451 0
 217 001a 1F4C     		ldr	r4, .L18
 218 001c E071     		strb	r0, [r4, #7]
 453:Generated_Source\PSoC5/PowerMonitor_1_INT.c ****             PowerMonitor_1_PM_AMux_Current_FastSelect(PowerMonitor_1_amuxChan);
 219              		.loc 1 453 0
 220 001e FFF7FEFF 		bl	PowerMonitor_1_PM_AMux_Voltage_FastSelect
 221              	.LVL1:
 454:Generated_Source\PSoC5/PowerMonitor_1_INT.c ****             /* Change the ADC configuration */
 222              		.loc 1 454 0
 223 0022 E079     		ldrb	r0, [r4, #7]	@ zero_extendqisi2
 224 0024 FFF7FEFF 		bl	PowerMonitor_1_PM_AMux_Current_FastSelect
 225              	.LVL2:
 456:Generated_Source\PSoC5/PowerMonitor_1_INT.c ****         }
 226              		.loc 1 456 0
 227 0028 1D4B     		ldr	r3, .L18+8
 228 002a 1B78     		ldrb	r3, [r3]	@ zero_extendqisi2
 229 002c 022B     		cmp	r3, #2
 230 002e 0BD0     		beq	.L14
 456:Generated_Source\PSoC5/PowerMonitor_1_INT.c ****         }
 231              		.loc 1 456 0 is_stmt 0 discriminator 1
 232 0030 0220     		movs	r0, #2
 233 0032 1B4B     		ldr	r3, .L18+8
 234 0034 1870     		strb	r0, [r3]
 235 0036 0021     		movs	r1, #0
 236 0038 FFF7FEFF 		bl	PowerMonitor_1_ADC_SelectConfiguration
 237              	.LVL3:
 238 003c 1949     		ldr	r1, .L18+12
 239 003e 1D20     		movs	r0, #29
 240 0040 FFF7FEFF 		bl	CyIntSetVector
 241              	.LVL4:
 242 0044 FFF7FEFF 		bl	PowerMonitor_1_ADC_Start
 243              	.LVL5:
 244              	.L14:
 456:Generated_Source\PSoC5/PowerMonitor_1_INT.c ****         }
 245              		.loc 1 456 0 discriminator 3
 246 0048 134B     		ldr	r3, .L18
 247 004a 154A     		ldr	r2, .L18+8
 248 004c 1278     		ldrb	r2, [r2]	@ zero_extendqisi2
 249 004e 1A72     		strb	r2, [r3, #8]
 250 0050 0122     		movs	r2, #1
 251 0052 5A72     		strb	r2, [r3, #9]
 252 0054 10BD     		pop	{r4, pc}
 253              	.L13:
 461:Generated_Source\PSoC5/PowerMonitor_1_INT.c ****             /* Select the proper AMux channels */
 254              		.loc 1 461 0 is_stmt 1
 255 0056 2530     		adds	r0, r0, #37
 256 0058 C0B2     		uxtb	r0, r0
 257 005a 0F4B     		ldr	r3, .L18
 258 005c D871     		strb	r0, [r3, #7]
ARM GAS  C:\Users\user\AppData\Local\Temp\ccpxa6kC.s 			page 32


 463:Generated_Source\PSoC5/PowerMonitor_1_INT.c ****             PowerMonitor_1_PM_AMux_Current_FastSelect(PowerMonitor_1_PGA_OUT_CHAN);
 259              		.loc 1 463 0
 260 005e FFF7FEFF 		bl	PowerMonitor_1_PM_AMux_Voltage_FastSelect
 261              	.LVL6:
 464:Generated_Source\PSoC5/PowerMonitor_1_INT.c ****             /* Change the ADC configuration */
 262              		.loc 1 464 0
 263 0062 2520     		movs	r0, #37
 264 0064 FFF7FEFF 		bl	PowerMonitor_1_PM_AMux_Current_FastSelect
 265              	.LVL7:
 466:Generated_Source\PSoC5/PowerMonitor_1_INT.c ****         }
 266              		.loc 1 466 0
 267 0068 0D4B     		ldr	r3, .L18+8
 268 006a 1B78     		ldrb	r3, [r3]	@ zero_extendqisi2
 269 006c 012B     		cmp	r3, #1
 270 006e 0BD0     		beq	.L16
 466:Generated_Source\PSoC5/PowerMonitor_1_INT.c ****         }
 271              		.loc 1 466 0 is_stmt 0 discriminator 1
 272 0070 0120     		movs	r0, #1
 273 0072 0B4B     		ldr	r3, .L18+8
 274 0074 1870     		strb	r0, [r3]
 275 0076 0021     		movs	r1, #0
 276 0078 FFF7FEFF 		bl	PowerMonitor_1_ADC_SelectConfiguration
 277              	.LVL8:
 278 007c 0949     		ldr	r1, .L18+12
 279 007e 1D20     		movs	r0, #29
 280 0080 FFF7FEFF 		bl	CyIntSetVector
 281              	.LVL9:
 282 0084 FFF7FEFF 		bl	PowerMonitor_1_ADC_Start
 283              	.LVL10:
 284              	.L16:
 466:Generated_Source\PSoC5/PowerMonitor_1_INT.c ****         }
 285              		.loc 1 466 0 discriminator 3
 286 0088 034B     		ldr	r3, .L18
 287 008a 054A     		ldr	r2, .L18+8
 288 008c 1278     		ldrb	r2, [r2]	@ zero_extendqisi2
 289 008e 1A72     		strb	r2, [r3, #8]
 290 0090 0122     		movs	r2, #1
 291 0092 5A72     		strb	r2, [r3, #9]
 292 0094 10BD     		pop	{r4, pc}
 293              	.L19:
 294 0096 00BF     		.align	2
 295              	.L18:
 296 0098 00000000 		.word	.LANCHOR0
 297 009c 00000000 		.word	PowerMonitor_1_CurrentType
 298 00a0 00000000 		.word	.LANCHOR1
 299 00a4 00000000 		.word	PowerMonitor_1_ISR
 300              		.cfi_endproc
 301              	.LFE2:
 302              		.size	PowerMonitor_1_Set_Current_Channel, .-PowerMonitor_1_Set_Current_Channel
 303              		.section	.text.PowerMonitor_1_Set_First_Channel,"ax",%progbits
 304              		.align	2
 305              		.thumb
 306              		.thumb_func
 307              		.type	PowerMonitor_1_Set_First_Channel, %function
 308              	PowerMonitor_1_Set_First_Channel:
 309              	.LFB1:
 302:Generated_Source\PSoC5/PowerMonitor_1_INT.c ****     PowerMonitor_1_adcConvNow = PowerMonitor_1_ISR_STATE_0;
ARM GAS  C:\Users\user\AppData\Local\Temp\ccpxa6kC.s 			page 33


 310              		.loc 1 302 0 is_stmt 1
 311              		.cfi_startproc
 312              		@ args = 0, pretend = 0, frame = 0
 313              		@ frame_needed = 0, uses_anonymous_args = 0
 314 0000 08B5     		push	{r3, lr}
 315              		.cfi_def_cfa_offset 8
 316              		.cfi_offset 3, -8
 317              		.cfi_offset 14, -4
 303:Generated_Source\PSoC5/PowerMonitor_1_INT.c ****     PowerMonitor_1_adcConvNext = PowerMonitor_1_ISR_STATE_0 + 1;
 318              		.loc 1 303 0
 319 0002 224B     		ldr	r3, .L26
 320 0004 0022     		movs	r2, #0
 321 0006 1A70     		strb	r2, [r3]
 304:Generated_Source\PSoC5/PowerMonitor_1_INT.c ****     /* Update AmuxChan flag */
 322              		.loc 1 304 0
 323 0008 0121     		movs	r1, #1
 324 000a 214A     		ldr	r2, .L26+4
 325 000c 1170     		strb	r1, [r2]
 306:Generated_Source\PSoC5/PowerMonitor_1_INT.c ****     /* Select the proper AMux Channel */
 326              		.loc 1 306 0
 327 000e 1878     		ldrb	r0, [r3]	@ zero_extendqisi2
 328 0010 C0B2     		uxtb	r0, r0
 329 0012 204B     		ldr	r3, .L26+8
 330 0014 D871     		strb	r0, [r3, #7]
 308:Generated_Source\PSoC5/PowerMonitor_1_INT.c **** 
 331              		.loc 1 308 0
 332 0016 FFF7FEFF 		bl	PowerMonitor_1_PM_AMux_Voltage_FastSelect
 333              	.LVL11:
 310:Generated_Source\PSoC5/PowerMonitor_1_INT.c ****     {
 334              		.loc 1 310 0
 335 001a 1F4B     		ldr	r3, .L26+12
 336 001c 1B78     		ldrb	r3, [r3]	@ zero_extendqisi2
 337 001e CBB9     		cbnz	r3, .L21
 312:Generated_Source\PSoC5/PowerMonitor_1_INT.c ****         PowerMonitor_1_ADC_CONFIG_PUSH_NEW(PowerMonitor_1_SE_VOLTAGE_RANGE);
 338              		.loc 1 312 0
 339 0020 2520     		movs	r0, #37
 340 0022 FFF7FEFF 		bl	PowerMonitor_1_PM_AMux_Current_FastSelect
 341              	.LVL12:
 313:Generated_Source\PSoC5/PowerMonitor_1_INT.c ****     }
 342              		.loc 1 313 0
 343 0026 1D4B     		ldr	r3, .L26+16
 344 0028 1B78     		ldrb	r3, [r3]	@ zero_extendqisi2
 345 002a 012B     		cmp	r3, #1
 346 002c 0BD0     		beq	.L22
 313:Generated_Source\PSoC5/PowerMonitor_1_INT.c ****     }
 347              		.loc 1 313 0 is_stmt 0 discriminator 1
 348 002e 0120     		movs	r0, #1
 349 0030 1A4B     		ldr	r3, .L26+16
 350 0032 1870     		strb	r0, [r3]
 351 0034 0021     		movs	r1, #0
 352 0036 FFF7FEFF 		bl	PowerMonitor_1_ADC_SelectConfiguration
 353              	.LVL13:
 354 003a 1949     		ldr	r1, .L26+20
 355 003c 1D20     		movs	r0, #29
 356 003e FFF7FEFF 		bl	CyIntSetVector
 357              	.LVL14:
 358 0042 FFF7FEFF 		bl	PowerMonitor_1_ADC_Start
ARM GAS  C:\Users\user\AppData\Local\Temp\ccpxa6kC.s 			page 34


 359              	.LVL15:
 360              	.L22:
 313:Generated_Source\PSoC5/PowerMonitor_1_INT.c ****     }
 361              		.loc 1 313 0 discriminator 3
 362 0046 134B     		ldr	r3, .L26+8
 363 0048 144A     		ldr	r2, .L26+16
 364 004a 1278     		ldrb	r2, [r2]	@ zero_extendqisi2
 365 004c 1A72     		strb	r2, [r3, #8]
 366 004e 0122     		movs	r2, #1
 367 0050 5A72     		strb	r2, [r3, #9]
 368 0052 08BD     		pop	{r3, pc}
 369              	.L21:
 317:Generated_Source\PSoC5/PowerMonitor_1_INT.c ****         PowerMonitor_1_ADC_CONFIG_PUSH_NEW(PowerMonitor_1_RANGE_2048);
 370              		.loc 1 317 0 is_stmt 1
 371 0054 0F4B     		ldr	r3, .L26+8
 372 0056 D879     		ldrb	r0, [r3, #7]	@ zero_extendqisi2
 373 0058 FFF7FEFF 		bl	PowerMonitor_1_PM_AMux_Current_FastSelect
 374              	.LVL16:
 318:Generated_Source\PSoC5/PowerMonitor_1_INT.c ****     }
 375              		.loc 1 318 0
 376 005c 0F4B     		ldr	r3, .L26+16
 377 005e 1B78     		ldrb	r3, [r3]	@ zero_extendqisi2
 378 0060 012B     		cmp	r3, #1
 379 0062 0BD0     		beq	.L24
 318:Generated_Source\PSoC5/PowerMonitor_1_INT.c ****     }
 380              		.loc 1 318 0 is_stmt 0 discriminator 1
 381 0064 0120     		movs	r0, #1
 382 0066 0D4B     		ldr	r3, .L26+16
 383 0068 1870     		strb	r0, [r3]
 384 006a 0021     		movs	r1, #0
 385 006c FFF7FEFF 		bl	PowerMonitor_1_ADC_SelectConfiguration
 386              	.LVL17:
 387 0070 0B49     		ldr	r1, .L26+20
 388 0072 1D20     		movs	r0, #29
 389 0074 FFF7FEFF 		bl	CyIntSetVector
 390              	.LVL18:
 391 0078 FFF7FEFF 		bl	PowerMonitor_1_ADC_Start
 392              	.LVL19:
 393              	.L24:
 318:Generated_Source\PSoC5/PowerMonitor_1_INT.c ****     }
 394              		.loc 1 318 0 discriminator 3
 395 007c 054B     		ldr	r3, .L26+8
 396 007e 074A     		ldr	r2, .L26+16
 397 0080 1278     		ldrb	r2, [r2]	@ zero_extendqisi2
 398 0082 1A72     		strb	r2, [r3, #8]
 399 0084 0122     		movs	r2, #1
 400 0086 5A72     		strb	r2, [r3, #9]
 401 0088 08BD     		pop	{r3, pc}
 402              	.L27:
 403 008a 00BF     		.align	2
 404              	.L26:
 405 008c 00000000 		.word	PowerMonitor_1_adcConvNow
 406 0090 00000000 		.word	PowerMonitor_1_adcConvNext
 407 0094 00000000 		.word	.LANCHOR0
 408 0098 00000000 		.word	PowerMonitor_1_VoltageType
 409 009c 00000000 		.word	.LANCHOR1
 410 00a0 00000000 		.word	PowerMonitor_1_ISR
ARM GAS  C:\Users\user\AppData\Local\Temp\ccpxa6kC.s 			page 35


 411              		.cfi_endproc
 412              	.LFE1:
 413              		.size	PowerMonitor_1_Set_First_Channel, .-PowerMonitor_1_Set_First_Channel
 414              		.section	.text.PowerMonitor_1_ISR,"ax",%progbits
 415              		.align	2
 416              		.global	PowerMonitor_1_ISR
 417              		.thumb
 418              		.thumb_func
 419              		.type	PowerMonitor_1_ISR, %function
 420              	PowerMonitor_1_ISR:
 421              	.LFB3:
 490:Generated_Source\PSoC5/PowerMonitor_1_INT.c ****     #if(CY_PSOC3)
 422              		.loc 1 490 0 is_stmt 1
 423              		.cfi_startproc
 424              		@ args = 0, pretend = 0, frame = 0
 425              		@ frame_needed = 0, uses_anonymous_args = 0
 426 0000 70B5     		push	{r4, r5, r6, lr}
 427              		.cfi_def_cfa_offset 16
 428              		.cfi_offset 4, -16
 429              		.cfi_offset 5, -12
 430              		.cfi_offset 6, -8
 431              		.cfi_offset 14, -4
 432              	.LVL20:
 521:Generated_Source\PSoC5/PowerMonitor_1_INT.c **** 
 433              		.loc 1 521 0
 434 0002 FFF7FEFF 		bl	PowerMonitor_1_ADC_GetResult16
 435              	.LVL21:
 436 0006 0546     		mov	r5, r0
 437              	.LVL22:
 524:Generated_Source\PSoC5/PowerMonitor_1_INT.c ****     PowerMonitor_1_adcConvNow = PowerMonitor_1_adcConvNext;
 438              		.loc 1 524 0
 439 0008 9F49     		ldr	r1, .L82
 440 000a 0C78     		ldrb	r4, [r1]	@ zero_extendqisi2
 441 000c E4B2     		uxtb	r4, r4
 442              	.LVL23:
 525:Generated_Source\PSoC5/PowerMonitor_1_INT.c ****     PowerMonitor_1_adcConvNext++;
 443              		.loc 1 525 0
 444 000e 9F4A     		ldr	r2, .L82+4
 445 0010 1378     		ldrb	r3, [r2]	@ zero_extendqisi2
 446 0012 DBB2     		uxtb	r3, r3
 447 0014 0B70     		strb	r3, [r1]
 526:Generated_Source\PSoC5/PowerMonitor_1_INT.c ****     PowerMonitor_1_adcConvDoneConfig = PowerMonitor_1_adcConfig;
 448              		.loc 1 526 0
 449 0016 1378     		ldrb	r3, [r2]	@ zero_extendqisi2
 450 0018 0133     		adds	r3, r3, #1
 451 001a DBB2     		uxtb	r3, r3
 452 001c 1370     		strb	r3, [r2]
 527:Generated_Source\PSoC5/PowerMonitor_1_INT.c **** 
 453              		.loc 1 527 0
 454 001e 9C4B     		ldr	r3, .L82+8
 455 0020 1A78     		ldrb	r2, [r3]	@ zero_extendqisi2
 456 0022 5A70     		strb	r2, [r3, #1]
 530:Generated_Source\PSoC5/PowerMonitor_1_INT.c ****     {
 457              		.loc 1 530 0
 458 0024 9B4B     		ldr	r3, .L82+12
 459 0026 5B79     		ldrb	r3, [r3, #5]	@ zero_extendqisi2
 460 0028 012B     		cmp	r3, #1
ARM GAS  C:\Users\user\AppData\Local\Temp\ccpxa6kC.s 			page 36


 461 002a 01D1     		bne	.L29
 532:Generated_Source\PSoC5/PowerMonitor_1_INT.c ****     }
 462              		.loc 1 532 0
 463 002c FFF7FEFF 		bl	PowerMonitor_1_RestoreDsmRegs
 464              	.LVL24:
 465              	.L29:
 536:Generated_Source\PSoC5/PowerMonitor_1_INT.c ****     {
 466              		.loc 1 536 0
 467 0030 984B     		ldr	r3, .L82+12
 468 0032 5B7A     		ldrb	r3, [r3, #9]	@ zero_extendqisi2
 469 0034 012B     		cmp	r3, #1
 470 0036 13D1     		bne	.L30
 538:Generated_Source\PSoC5/PowerMonitor_1_INT.c ****     }
 471              		.loc 1 538 0
 472 0038 954B     		ldr	r3, .L82+8
 473 003a 1B78     		ldrb	r3, [r3]	@ zero_extendqisi2
 474 003c 954A     		ldr	r2, .L82+12
 475 003e 107A     		ldrb	r0, [r2, #8]	@ zero_extendqisi2
 476 0040 8342     		cmp	r3, r0
 477 0042 0AD0     		beq	.L31
 538:Generated_Source\PSoC5/PowerMonitor_1_INT.c ****     }
 478              		.loc 1 538 0 is_stmt 0 discriminator 1
 479 0044 924B     		ldr	r3, .L82+8
 480 0046 1870     		strb	r0, [r3]
 481 0048 0021     		movs	r1, #0
 482 004a FFF7FEFF 		bl	PowerMonitor_1_ADC_SelectConfiguration
 483              	.LVL25:
 484 004e 9249     		ldr	r1, .L82+16
 485 0050 1D20     		movs	r0, #29
 486 0052 FFF7FEFF 		bl	CyIntSetVector
 487              	.LVL26:
 488 0056 FFF7FEFF 		bl	PowerMonitor_1_ADC_Start
 489              	.LVL27:
 490              	.L31:
 538:Generated_Source\PSoC5/PowerMonitor_1_INT.c ****     }
 491              		.loc 1 538 0 discriminator 3
 492 005a 0022     		movs	r2, #0
 493 005c 8D4B     		ldr	r3, .L82+12
 494 005e 5A72     		strb	r2, [r3, #9]
 495              	.L30:
 545:Generated_Source\PSoC5/PowerMonitor_1_INT.c ****     {
 496              		.loc 1 545 0 is_stmt 1
 497 0060 894B     		ldr	r3, .L82
 498 0062 1B78     		ldrb	r3, [r3]	@ zero_extendqisi2
 499 0064 DBB2     		uxtb	r3, r3
 500 0066 8D4A     		ldr	r2, .L82+20
 501 0068 1178     		ldrb	r1, [r2]	@ zero_extendqisi2
 502 006a 8B42     		cmp	r3, r1
 503 006c 3DD2     		bcs	.L32
 547:Generated_Source\PSoC5/PowerMonitor_1_INT.c ****         /* Update AmuxChan flag */
 504              		.loc 1 547 0
 505 006e 864E     		ldr	r6, .L82
 506 0070 3078     		ldrb	r0, [r6]	@ zero_extendqisi2
 507 0072 FFF7FEFF 		bl	PowerMonitor_1_PM_AMux_Voltage_FastSelect
 508              	.LVL28:
 549:Generated_Source\PSoC5/PowerMonitor_1_INT.c ****         {
 509              		.loc 1 549 0
ARM GAS  C:\Users\user\AppData\Local\Temp\ccpxa6kC.s 			page 37


 510 0076 3378     		ldrb	r3, [r6]	@ zero_extendqisi2
 511 0078 DBB2     		uxtb	r3, r3
 512 007a 894A     		ldr	r2, .L82+24
 513 007c D35C     		ldrb	r3, [r2, r3]	@ zero_extendqisi2
 514 007e 012B     		cmp	r3, #1
 515 0080 19D1     		bne	.L33
 551:Generated_Source\PSoC5/PowerMonitor_1_INT.c ****             PowerMonitor_1_ADC_CONFIG_PUSH_NEW(PowerMonitor_1_RANGE_2048);
 516              		.loc 1 551 0
 517 0082 3078     		ldrb	r0, [r6]	@ zero_extendqisi2
 518 0084 FFF7FEFF 		bl	PowerMonitor_1_PM_AMux_Current_FastSelect
 519              	.LVL29:
 552:Generated_Source\PSoC5/PowerMonitor_1_INT.c ****         }
 520              		.loc 1 552 0
 521 0088 814B     		ldr	r3, .L82+8
 522 008a 1B78     		ldrb	r3, [r3]	@ zero_extendqisi2
 523 008c 012B     		cmp	r3, #1
 524 008e 0BD0     		beq	.L34
 552:Generated_Source\PSoC5/PowerMonitor_1_INT.c ****         }
 525              		.loc 1 552 0 is_stmt 0 discriminator 1
 526 0090 0120     		movs	r0, #1
 527 0092 7F4B     		ldr	r3, .L82+8
 528 0094 1870     		strb	r0, [r3]
 529 0096 0021     		movs	r1, #0
 530 0098 FFF7FEFF 		bl	PowerMonitor_1_ADC_SelectConfiguration
 531              	.LVL30:
 532 009c 7E49     		ldr	r1, .L82+16
 533 009e 1D20     		movs	r0, #29
 534 00a0 FFF7FEFF 		bl	CyIntSetVector
 535              	.LVL31:
 536 00a4 FFF7FEFF 		bl	PowerMonitor_1_ADC_Start
 537              	.LVL32:
 538              	.L34:
 552:Generated_Source\PSoC5/PowerMonitor_1_INT.c ****         }
 539              		.loc 1 552 0 discriminator 3
 540 00a8 7A4B     		ldr	r3, .L82+12
 541 00aa 794A     		ldr	r2, .L82+8
 542 00ac 1278     		ldrb	r2, [r2]	@ zero_extendqisi2
 543 00ae 1A72     		strb	r2, [r3, #8]
 544 00b0 0122     		movs	r2, #1
 545 00b2 5A72     		strb	r2, [r3, #9]
 546 00b4 6AE1     		b	.L35
 547              	.L33:
 556:Generated_Source\PSoC5/PowerMonitor_1_INT.c ****             PowerMonitor_1_ADC_CONFIG_PUSH_NEW(PowerMonitor_1_SE_VOLTAGE_RANGE);
 548              		.loc 1 556 0 is_stmt 1
 549 00b6 2520     		movs	r0, #37
 550 00b8 FFF7FEFF 		bl	PowerMonitor_1_PM_AMux_Current_FastSelect
 551              	.LVL33:
 557:Generated_Source\PSoC5/PowerMonitor_1_INT.c ****         }
 552              		.loc 1 557 0
 553 00bc 744B     		ldr	r3, .L82+8
 554 00be 1B78     		ldrb	r3, [r3]	@ zero_extendqisi2
 555 00c0 012B     		cmp	r3, #1
 556 00c2 0BD0     		beq	.L36
 557:Generated_Source\PSoC5/PowerMonitor_1_INT.c ****         }
 557              		.loc 1 557 0 is_stmt 0 discriminator 1
 558 00c4 0120     		movs	r0, #1
 559 00c6 724B     		ldr	r3, .L82+8
ARM GAS  C:\Users\user\AppData\Local\Temp\ccpxa6kC.s 			page 38


 560 00c8 1870     		strb	r0, [r3]
 561 00ca 0021     		movs	r1, #0
 562 00cc FFF7FEFF 		bl	PowerMonitor_1_ADC_SelectConfiguration
 563              	.LVL34:
 564 00d0 7149     		ldr	r1, .L82+16
 565 00d2 1D20     		movs	r0, #29
 566 00d4 FFF7FEFF 		bl	CyIntSetVector
 567              	.LVL35:
 568 00d8 FFF7FEFF 		bl	PowerMonitor_1_ADC_Start
 569              	.LVL36:
 570              	.L36:
 557:Generated_Source\PSoC5/PowerMonitor_1_INT.c ****         }
 571              		.loc 1 557 0 discriminator 3
 572 00dc 6D4B     		ldr	r3, .L82+12
 573 00de 6C4A     		ldr	r2, .L82+8
 574 00e0 1278     		ldrb	r2, [r2]	@ zero_extendqisi2
 575 00e2 1A72     		strb	r2, [r3, #8]
 576 00e4 0122     		movs	r2, #1
 577 00e6 5A72     		strb	r2, [r3, #9]
 578 00e8 50E1     		b	.L35
 579              	.L32:
 560:Generated_Source\PSoC5/PowerMonitor_1_INT.c ****     {
 580              		.loc 1 560 0 is_stmt 1
 581 00ea 674B     		ldr	r3, .L82
 582 00ec 1B78     		ldrb	r3, [r3]	@ zero_extendqisi2
 583 00ee DBB2     		uxtb	r3, r3
 584 00f0 9942     		cmp	r1, r3
 585 00f2 05D1     		bne	.L37
 564:Generated_Source\PSoC5/PowerMonitor_1_INT.c ****             PowerMonitor_1_Set_Current_Channel();
 586              		.loc 1 564 0
 587 00f4 0022     		movs	r2, #0
 588 00f6 674B     		ldr	r3, .L82+12
 589 00f8 9A71     		strb	r2, [r3, #6]
 565:Generated_Source\PSoC5/PowerMonitor_1_INT.c ****         #elif (PowerMonitor_1_NUM_AUX_INPUTS > 0)
 590              		.loc 1 565 0
 591 00fa FFF7FEFF 		bl	PowerMonitor_1_Set_Current_Channel
 592              	.LVL37:
 593 00fe 45E1     		b	.L35
 594              	.L37:
 576:Generated_Source\PSoC5/PowerMonitor_1_INT.c ****         {
 595              		.loc 1 576 0
 596 0100 614B     		ldr	r3, .L82
 597 0102 1B78     		ldrb	r3, [r3]	@ zero_extendqisi2
 598 0104 DBB2     		uxtb	r3, r3
 599 0106 674A     		ldr	r2, .L82+28
 600 0108 1278     		ldrb	r2, [r2]	@ zero_extendqisi2
 601 010a 9342     		cmp	r3, r2
 602 010c 02D1     		bne	.L38
 584:Generated_Source\PSoC5/PowerMonitor_1_INT.c ****             #endif /* (PowerMonitor_1_NUM_AUX_INPUTS > 0) */
 603              		.loc 1 584 0
 604 010e FFF7FEFF 		bl	PowerMonitor_1_Set_First_Channel
 605              	.LVL38:
 606 0112 3BE1     		b	.L35
 607              	.L38:
 587:Generated_Source\PSoC5/PowerMonitor_1_INT.c ****                  (PowerMonitor_1_adcConvNow < PowerMonitor_1_lastCurrentChan))
 608              		.loc 1 587 0
 609 0114 5C4B     		ldr	r3, .L82
ARM GAS  C:\Users\user\AppData\Local\Temp\ccpxa6kC.s 			page 39


 610 0116 1B78     		ldrb	r3, [r3]	@ zero_extendqisi2
 611 0118 DBB2     		uxtb	r3, r3
 612 011a 9942     		cmp	r1, r3
 613 011c 0BD2     		bcs	.L39
 588:Generated_Source\PSoC5/PowerMonitor_1_INT.c ****         {
 614              		.loc 1 588 0 discriminator 1
 615 011e 5A4B     		ldr	r3, .L82
 616 0120 1B78     		ldrb	r3, [r3]	@ zero_extendqisi2
 617 0122 DBB2     		uxtb	r3, r3
 587:Generated_Source\PSoC5/PowerMonitor_1_INT.c ****                  (PowerMonitor_1_adcConvNow < PowerMonitor_1_lastCurrentChan))
 618              		.loc 1 587 0 discriminator 1
 619 0124 9A42     		cmp	r2, r3
 620 0126 06D9     		bls	.L39
 590:Generated_Source\PSoC5/PowerMonitor_1_INT.c ****             PowerMonitor_1_Set_Current_Channel();
 621              		.loc 1 590 0
 622 0128 5A4A     		ldr	r2, .L82+12
 623 012a 9379     		ldrb	r3, [r2, #6]	@ zero_extendqisi2
 624 012c 0133     		adds	r3, r3, #1
 625 012e 9371     		strb	r3, [r2, #6]
 591:Generated_Source\PSoC5/PowerMonitor_1_INT.c ****         }
 626              		.loc 1 591 0
 627 0130 FFF7FEFF 		bl	PowerMonitor_1_Set_Current_Channel
 628              	.LVL39:
 629 0134 2AE1     		b	.L35
 630              	.L39:
 615:Generated_Source\PSoC5/PowerMonitor_1_INT.c ****     {
 631              		.loc 1 615 0
 632 0136 544B     		ldr	r3, .L82
 633 0138 1B78     		ldrb	r3, [r3]	@ zero_extendqisi2
 634 013a DBB2     		uxtb	r3, r3
 635 013c FF2B     		cmp	r3, #255
 636 013e 40F02581 		bne	.L35
 623:Generated_Source\PSoC5/PowerMonitor_1_INT.c **** 
 637              		.loc 1 623 0
 638 0142 594B     		ldr	r3, .L82+32
 639 0144 1B78     		ldrb	r3, [r3]	@ zero_extendqisi2
 640 0146 DBB2     		uxtb	r3, r3
 641 0148 504A     		ldr	r2, .L82+4
 642 014a 1370     		strb	r3, [r2]
 629:Generated_Source\PSoC5/PowerMonitor_1_INT.c ****         {
 643              		.loc 1 629 0
 644 014c 574B     		ldr	r3, .L82+36
 645 014e 1B78     		ldrb	r3, [r3]	@ zero_extendqisi2
 646 0150 DBB2     		uxtb	r3, r3
 647 0152 0A2B     		cmp	r3, #10
 648 0154 00F21A81 		bhi	.L35
 649 0158 DFE813F0 		tbh	[pc, r3, lsl #1]
 650              	.L41:
 651 015c 0B00     		.2byte	(.L40-.L41)/2
 652 015e 1800     		.2byte	(.L42-.L41)/2
 653 0160 3500     		.2byte	(.L43-.L41)/2
 654 0162 5700     		.2byte	(.L44-.L41)/2
 655 0164 7900     		.2byte	(.L45-.L41)/2
 656 0166 1801     		.2byte	(.L35-.L41)/2
 657 0168 1801     		.2byte	(.L35-.L41)/2
 658 016a 1801     		.2byte	(.L35-.L41)/2
 659 016c B800     		.2byte	(.L46-.L41)/2
ARM GAS  C:\Users\user\AppData\Local\Temp\ccpxa6kC.s 			page 40


 660 016e D500     		.2byte	(.L47-.L41)/2
 661 0170 F700     		.2byte	(.L48-.L41)/2
 662              		.p2align 1
 663              	.L40:
 635:Generated_Source\PSoC5/PowerMonitor_1_INT.c ****                 PowerMonitor_1_Set_First_Channel();
 664              		.loc 1 635 0
 665 0172 FFF7FEFF 		bl	PowerMonitor_1_ADC_Start
 666              	.LVL40:
 636:Generated_Source\PSoC5/PowerMonitor_1_INT.c ****                  /* Initialize local selection memory    */
 667              		.loc 1 636 0
 668 0176 FFF7FEFF 		bl	PowerMonitor_1_Set_First_Channel
 669              	.LVL41:
 638:Generated_Source\PSoC5/PowerMonitor_1_INT.c **** 
 670              		.loc 1 638 0
 671 017a 454B     		ldr	r3, .L82+8
 672 017c 1A78     		ldrb	r2, [r3]	@ zero_extendqisi2
 673 017e 5A70     		strb	r2, [r3, #1]
 641:Generated_Source\PSoC5/PowerMonitor_1_INT.c ****                 #if (PowerMonitor_1_DEFAULT_PGOOD_CONFIG == PowerMonitor_1_PGOOD_GLOBAL)
 674              		.loc 1 641 0
 675 0180 444B     		ldr	r3, .L82+12
 676 0182 0122     		movs	r2, #1
 677 0184 9A72     		strb	r2, [r3, #10]
 643:Generated_Source\PSoC5/PowerMonitor_1_INT.c ****                 #endif /* (PowerMonitor_1_DEFAULT_PGOOD_CONFIG == PowerMonitor_1_PGOOD_GLOBAL) */
 678              		.loc 1 643 0
 679 0186 0022     		movs	r2, #0
 680 0188 DA72     		strb	r2, [r3, #11]
 645:Generated_Source\PSoC5/PowerMonitor_1_INT.c **** 
 681              		.loc 1 645 0
 682 018a FFE0     		b	.L35
 683              	.L42:
 651:Generated_Source\PSoC5/PowerMonitor_1_INT.c ****                 PowerMonitor_1_SaveDsmRegsAndIsolate();
 684              		.loc 1 651 0
 685 018c 404B     		ldr	r3, .L82+8
 686 018e 1B78     		ldrb	r3, [r3]	@ zero_extendqisi2
 687 0190 404A     		ldr	r2, .L82+12
 688 0192 1372     		strb	r3, [r2, #8]
 689 0194 012B     		cmp	r3, #1
 690 0196 0BD0     		beq	.L49
 651:Generated_Source\PSoC5/PowerMonitor_1_INT.c ****                 PowerMonitor_1_SaveDsmRegsAndIsolate();
 691              		.loc 1 651 0 is_stmt 0 discriminator 1
 692 0198 0120     		movs	r0, #1
 693 019a 3D4B     		ldr	r3, .L82+8
 694 019c 1870     		strb	r0, [r3]
 695 019e 0021     		movs	r1, #0
 696 01a0 FFF7FEFF 		bl	PowerMonitor_1_ADC_SelectConfiguration
 697              	.LVL42:
 698 01a4 3C49     		ldr	r1, .L82+16
 699 01a6 1D20     		movs	r0, #29
 700 01a8 FFF7FEFF 		bl	CyIntSetVector
 701              	.LVL43:
 702 01ac FFF7FEFF 		bl	PowerMonitor_1_ADC_Start
 703              	.LVL44:
 704              	.L49:
 651:Generated_Source\PSoC5/PowerMonitor_1_INT.c ****                 PowerMonitor_1_SaveDsmRegsAndIsolate();
 705              		.loc 1 651 0 discriminator 3
 706 01b0 384E     		ldr	r6, .L82+12
 707 01b2 0123     		movs	r3, #1
ARM GAS  C:\Users\user\AppData\Local\Temp\ccpxa6kC.s 			page 41


 708 01b4 7372     		strb	r3, [r6, #9]
 652:Generated_Source\PSoC5/PowerMonitor_1_INT.c ****                 /* vn_vssa & vp_vssa    */
 709              		.loc 1 652 0 is_stmt 1 discriminator 3
 710 01b6 FFF7FEFF 		bl	PowerMonitor_1_SaveDsmRegsAndIsolate
 711              	.LVL45:
 654:Generated_Source\PSoC5/PowerMonitor_1_INT.c ****                 PowerMonitor_1_pCalStore = &PowerMonitor_1_adcZeroCalRawCfg1;
 712              		.loc 1 654 0 discriminator 3
 713 01ba 4422     		movs	r2, #68
 714 01bc 3C4B     		ldr	r3, .L82+40
 715 01be 1A70     		strb	r2, [r3]
 655:Generated_Source\PSoC5/PowerMonitor_1_INT.c ****                 break;
 716              		.loc 1 655 0 discriminator 3
 717 01c0 3C4B     		ldr	r3, .L82+44
 718 01c2 F360     		str	r3, [r6, #12]
 656:Generated_Source\PSoC5/PowerMonitor_1_INT.c **** 
 719              		.loc 1 656 0 discriminator 3
 720 01c4 E2E0     		b	.L35
 721              	.L43:
 662:Generated_Source\PSoC5/PowerMonitor_1_INT.c ****                 PowerMonitor_1_SaveDsmRegsAndIsolate();
 722              		.loc 1 662 0
 723 01c6 324B     		ldr	r3, .L82+8
 724 01c8 1B78     		ldrb	r3, [r3]	@ zero_extendqisi2
 725 01ca 324A     		ldr	r2, .L82+12
 726 01cc 1372     		strb	r3, [r2, #8]
 727 01ce 012B     		cmp	r3, #1
 728 01d0 0BD0     		beq	.L50
 662:Generated_Source\PSoC5/PowerMonitor_1_INT.c ****                 PowerMonitor_1_SaveDsmRegsAndIsolate();
 729              		.loc 1 662 0 is_stmt 0 discriminator 1
 730 01d2 0120     		movs	r0, #1
 731 01d4 2E4B     		ldr	r3, .L82+8
 732 01d6 1870     		strb	r0, [r3]
 733 01d8 0021     		movs	r1, #0
 734 01da FFF7FEFF 		bl	PowerMonitor_1_ADC_SelectConfiguration
 735              	.LVL46:
 736 01de 2E49     		ldr	r1, .L82+16
 737 01e0 1D20     		movs	r0, #29
 738 01e2 FFF7FEFF 		bl	CyIntSetVector
 739              	.LVL47:
 740 01e6 FFF7FEFF 		bl	PowerMonitor_1_ADC_Start
 741              	.LVL48:
 742              	.L50:
 662:Generated_Source\PSoC5/PowerMonitor_1_INT.c ****                 PowerMonitor_1_SaveDsmRegsAndIsolate();
 743              		.loc 1 662 0 discriminator 3
 744 01ea 2A4E     		ldr	r6, .L82+12
 745 01ec 0123     		movs	r3, #1
 746 01ee 7372     		strb	r3, [r6, #9]
 663:Generated_Source\PSoC5/PowerMonitor_1_INT.c ****                 /* vn_vref & vp_vssa  */
 747              		.loc 1 663 0 is_stmt 1 discriminator 3
 748 01f0 FFF7FEFF 		bl	PowerMonitor_1_SaveDsmRegsAndIsolate
 749              	.LVL49:
 665:Generated_Source\PSoC5/PowerMonitor_1_INT.c ****                 /*******************************************************************
 750              		.loc 1 665 0 discriminator 3
 751 01f4 2422     		movs	r2, #36
 752 01f6 2E4B     		ldr	r3, .L82+40
 753 01f8 1A70     		strb	r2, [r3]
 672:Generated_Source\PSoC5/PowerMonitor_1_INT.c ****                 PowerMonitor_1_pCalStore = &PowerMonitor_1_adcGainCalRawCfg1;
 754              		.loc 1 672 0 discriminator 3
ARM GAS  C:\Users\user\AppData\Local\Temp\ccpxa6kC.s 			page 42


 755 01fa 2F4A     		ldr	r2, .L82+48
 756 01fc 1378     		ldrb	r3, [r2]	@ zero_extendqisi2
 757 01fe 43F01003 		orr	r3, r3, #16
 758 0202 1370     		strb	r3, [r2]
 673:Generated_Source\PSoC5/PowerMonitor_1_INT.c ****                 break;
 759              		.loc 1 673 0 discriminator 3
 760 0204 2D4B     		ldr	r3, .L82+52
 761 0206 F360     		str	r3, [r6, #12]
 674:Generated_Source\PSoC5/PowerMonitor_1_INT.c **** 
 762              		.loc 1 674 0 discriminator 3
 763 0208 C0E0     		b	.L35
 764              	.L44:
 680:Generated_Source\PSoC5/PowerMonitor_1_INT.c ****                 PowerMonitor_1_SaveDsmRegsAndIsolate();
 765              		.loc 1 680 0
 766 020a 214B     		ldr	r3, .L82+8
 767 020c 1B78     		ldrb	r3, [r3]	@ zero_extendqisi2
 768 020e 214A     		ldr	r2, .L82+12
 769 0210 1372     		strb	r3, [r2, #8]
 770 0212 012B     		cmp	r3, #1
 771 0214 0BD0     		beq	.L51
 680:Generated_Source\PSoC5/PowerMonitor_1_INT.c ****                 PowerMonitor_1_SaveDsmRegsAndIsolate();
 772              		.loc 1 680 0 is_stmt 0 discriminator 1
 773 0216 0120     		movs	r0, #1
 774 0218 1D4B     		ldr	r3, .L82+8
 775 021a 1870     		strb	r0, [r3]
 776 021c 0021     		movs	r1, #0
 777 021e FFF7FEFF 		bl	PowerMonitor_1_ADC_SelectConfiguration
 778              	.LVL50:
 779 0222 1D49     		ldr	r1, .L82+16
 780 0224 1D20     		movs	r0, #29
 781 0226 FFF7FEFF 		bl	CyIntSetVector
 782              	.LVL51:
 783 022a FFF7FEFF 		bl	PowerMonitor_1_ADC_Start
 784              	.LVL52:
 785              	.L51:
 680:Generated_Source\PSoC5/PowerMonitor_1_INT.c ****                 PowerMonitor_1_SaveDsmRegsAndIsolate();
 786              		.loc 1 680 0 discriminator 3
 787 022e 194E     		ldr	r6, .L82+12
 788 0230 0123     		movs	r3, #1
 789 0232 7372     		strb	r3, [r6, #9]
 681:Generated_Source\PSoC5/PowerMonitor_1_INT.c ****                 /* vp_vssa              */
 790              		.loc 1 681 0 is_stmt 1 discriminator 3
 791 0234 FFF7FEFF 		bl	PowerMonitor_1_SaveDsmRegsAndIsolate
 792              	.LVL53:
 683:Generated_Source\PSoC5/PowerMonitor_1_INT.c ****                 /* VN = PGA             */
 793              		.loc 1 683 0 discriminator 3
 794 0238 0422     		movs	r2, #4
 795 023a 1D4B     		ldr	r3, .L82+40
 796 023c 1A70     		strb	r2, [r3]
 686:Generated_Source\PSoC5/PowerMonitor_1_INT.c ****                 /* pga out to abus1     */
 797              		.loc 1 686 0 discriminator 3
 798 023e 0223     		movs	r3, #2
 799 0240 1F4A     		ldr	r2, .L82+56
 800 0242 1370     		strb	r3, [r2]
 688:Generated_Source\PSoC5/PowerMonitor_1_INT.c ****                 PowerMonitor_1_pCalStore = &PowerMonitor_1_adcSCCalRawCfg1;
 801              		.loc 1 688 0 discriminator 3
 802 0244 FC3A     		subs	r2, r2, #252
ARM GAS  C:\Users\user\AppData\Local\Temp\ccpxa6kC.s 			page 43


 803 0246 1370     		strb	r3, [r2]
 689:Generated_Source\PSoC5/PowerMonitor_1_INT.c ****                 break;
 804              		.loc 1 689 0 discriminator 3
 805 0248 1E4B     		ldr	r3, .L82+60
 806 024a F360     		str	r3, [r6, #12]
 690:Generated_Source\PSoC5/PowerMonitor_1_INT.c **** 
 807              		.loc 1 690 0 discriminator 3
 808 024c 9EE0     		b	.L35
 809              	.L45:
 696:Generated_Source\PSoC5/PowerMonitor_1_INT.c ****                 PowerMonitor_1_SaveDsmRegsAndIsolate();
 810              		.loc 1 696 0
 811 024e 104B     		ldr	r3, .L82+8
 812 0250 1B78     		ldrb	r3, [r3]	@ zero_extendqisi2
 813 0252 104A     		ldr	r2, .L82+12
 814 0254 1372     		strb	r3, [r2, #8]
 815 0256 022B     		cmp	r3, #2
 816 0258 0BD0     		beq	.L52
 696:Generated_Source\PSoC5/PowerMonitor_1_INT.c ****                 PowerMonitor_1_SaveDsmRegsAndIsolate();
 817              		.loc 1 696 0 is_stmt 0 discriminator 1
 818 025a 0220     		movs	r0, #2
 819 025c 0C4B     		ldr	r3, .L82+8
 820 025e 1870     		strb	r0, [r3]
 821 0260 0021     		movs	r1, #0
 822 0262 FFF7FEFF 		bl	PowerMonitor_1_ADC_SelectConfiguration
 823              	.LVL54:
 824 0266 0C49     		ldr	r1, .L82+16
 825 0268 1D20     		movs	r0, #29
 826 026a FFF7FEFF 		bl	CyIntSetVector
 827              	.LVL55:
 828 026e FFF7FEFF 		bl	PowerMonitor_1_ADC_Start
 829              	.LVL56:
 830              	.L52:
 696:Generated_Source\PSoC5/PowerMonitor_1_INT.c ****                 PowerMonitor_1_SaveDsmRegsAndIsolate();
 831              		.loc 1 696 0 discriminator 3
 832 0272 084E     		ldr	r6, .L82+12
 833 0274 0123     		movs	r3, #1
 834 0276 7372     		strb	r3, [r6, #9]
 697:Generated_Source\PSoC5/PowerMonitor_1_INT.c ****                 /* vn_vssa + vp_vssa    */
 835              		.loc 1 697 0 is_stmt 1 discriminator 3
 836 0278 FFF7FEFF 		bl	PowerMonitor_1_SaveDsmRegsAndIsolate
 837              	.LVL57:
 699:Generated_Source\PSoC5/PowerMonitor_1_INT.c ****                 PowerMonitor_1_pCalStore = &PowerMonitor_1_adcZeroCalRawCfg2;
 838              		.loc 1 699 0 discriminator 3
 839 027c 4422     		movs	r2, #68
 840 027e 0C4B     		ldr	r3, .L82+40
 841 0280 1A70     		strb	r2, [r3]
 700:Generated_Source\PSoC5/PowerMonitor_1_INT.c ****                 break;
 842              		.loc 1 700 0 discriminator 3
 843 0282 114B     		ldr	r3, .L82+64
 844 0284 F360     		str	r3, [r6, #12]
 701:Generated_Source\PSoC5/PowerMonitor_1_INT.c **** 
 845              		.loc 1 701 0 discriminator 3
 846 0286 81E0     		b	.L35
 847              	.L83:
 848              		.align	2
 849              	.L82:
 850 0288 00000000 		.word	PowerMonitor_1_adcConvNow
ARM GAS  C:\Users\user\AppData\Local\Temp\ccpxa6kC.s 			page 44


 851 028c 00000000 		.word	PowerMonitor_1_adcConvNext
 852 0290 00000000 		.word	.LANCHOR1
 853 0294 00000000 		.word	.LANCHOR0
 854 0298 00000000 		.word	PowerMonitor_1_ISR
 855 029c 00000000 		.word	PowerMonitor_1_lastVoltageChan
 856 02a0 00000000 		.word	PowerMonitor_1_VoltageType
 857 02a4 00000000 		.word	PowerMonitor_1_lastCurrentChan
 858 02a8 00000000 		.word	PowerMonitor_1_adcConvNextPreCal
 859 02ac 00000000 		.word	PowerMonitor_1_adcConvCalType
 860 02b0 035B0040 		.word	1073765123
 861 02b4 00000000 		.word	PowerMonitor_1_adcZeroCalRawCfg1
 862 02b8 95580040 		.word	1073764501
 863 02bc 00000000 		.word	PowerMonitor_1_adcGainCalRawCfg1
 864 02c0 065B0040 		.word	1073765126
 865 02c4 00000000 		.word	PowerMonitor_1_adcSCCalRawCfg1
 866 02c8 00000000 		.word	PowerMonitor_1_adcZeroCalRawCfg2
 867              	.L46:
 731:Generated_Source\PSoC5/PowerMonitor_1_INT.c ****                 PowerMonitor_1_SaveDsmRegsAndIsolate();
 868              		.loc 1 731 0
 869 02cc 8E4B     		ldr	r3, .L84
 870 02ce 1B78     		ldrb	r3, [r3]	@ zero_extendqisi2
 871 02d0 8E4A     		ldr	r2, .L84+4
 872 02d2 1372     		strb	r3, [r2, #8]
 873 02d4 042B     		cmp	r3, #4
 874 02d6 0BD0     		beq	.L53
 731:Generated_Source\PSoC5/PowerMonitor_1_INT.c ****                 PowerMonitor_1_SaveDsmRegsAndIsolate();
 875              		.loc 1 731 0 is_stmt 0 discriminator 1
 876 02d8 0420     		movs	r0, #4
 877 02da 8B4B     		ldr	r3, .L84
 878 02dc 1870     		strb	r0, [r3]
 879 02de 0021     		movs	r1, #0
 880 02e0 FFF7FEFF 		bl	PowerMonitor_1_ADC_SelectConfiguration
 881              	.LVL58:
 882 02e4 8A49     		ldr	r1, .L84+8
 883 02e6 1D20     		movs	r0, #29
 884 02e8 FFF7FEFF 		bl	CyIntSetVector
 885              	.LVL59:
 886 02ec FFF7FEFF 		bl	PowerMonitor_1_ADC_Start
 887              	.LVL60:
 888              	.L53:
 731:Generated_Source\PSoC5/PowerMonitor_1_INT.c ****                 PowerMonitor_1_SaveDsmRegsAndIsolate();
 889              		.loc 1 731 0 discriminator 3
 890 02f0 864E     		ldr	r6, .L84+4
 891 02f2 0123     		movs	r3, #1
 892 02f4 7372     		strb	r3, [r6, #9]
 732:Generated_Source\PSoC5/PowerMonitor_1_INT.c ****                 /* vn_vssa + vp_vssa    */
 893              		.loc 1 732 0 is_stmt 1 discriminator 3
 894 02f6 FFF7FEFF 		bl	PowerMonitor_1_SaveDsmRegsAndIsolate
 895              	.LVL61:
 734:Generated_Source\PSoC5/PowerMonitor_1_INT.c ****                 PowerMonitor_1_pCalStore = &PowerMonitor_1_adcZeroCalRawCfg3;
 896              		.loc 1 734 0 discriminator 3
 897 02fa 4422     		movs	r2, #68
 898 02fc 854B     		ldr	r3, .L84+12
 899 02fe 1A70     		strb	r2, [r3]
 735:Generated_Source\PSoC5/PowerMonitor_1_INT.c ****                 break;
 900              		.loc 1 735 0 discriminator 3
 901 0300 854B     		ldr	r3, .L84+16
ARM GAS  C:\Users\user\AppData\Local\Temp\ccpxa6kC.s 			page 45


 902 0302 F360     		str	r3, [r6, #12]
 736:Generated_Source\PSoC5/PowerMonitor_1_INT.c **** 
 903              		.loc 1 736 0 discriminator 3
 904 0304 42E0     		b	.L35
 905              	.L47:
 742:Generated_Source\PSoC5/PowerMonitor_1_INT.c ****                 PowerMonitor_1_SaveDsmRegsAndIsolate();
 906              		.loc 1 742 0
 907 0306 804B     		ldr	r3, .L84
 908 0308 1B78     		ldrb	r3, [r3]	@ zero_extendqisi2
 909 030a 804A     		ldr	r2, .L84+4
 910 030c 1372     		strb	r3, [r2, #8]
 911 030e 042B     		cmp	r3, #4
 912 0310 0BD0     		beq	.L54
 742:Generated_Source\PSoC5/PowerMonitor_1_INT.c ****                 PowerMonitor_1_SaveDsmRegsAndIsolate();
 913              		.loc 1 742 0 is_stmt 0 discriminator 1
 914 0312 0420     		movs	r0, #4
 915 0314 7C4B     		ldr	r3, .L84
 916 0316 1870     		strb	r0, [r3]
 917 0318 0021     		movs	r1, #0
 918 031a FFF7FEFF 		bl	PowerMonitor_1_ADC_SelectConfiguration
 919              	.LVL62:
 920 031e 7C49     		ldr	r1, .L84+8
 921 0320 1D20     		movs	r0, #29
 922 0322 FFF7FEFF 		bl	CyIntSetVector
 923              	.LVL63:
 924 0326 FFF7FEFF 		bl	PowerMonitor_1_ADC_Start
 925              	.LVL64:
 926              	.L54:
 742:Generated_Source\PSoC5/PowerMonitor_1_INT.c ****                 PowerMonitor_1_SaveDsmRegsAndIsolate();
 927              		.loc 1 742 0 discriminator 3
 928 032a 784E     		ldr	r6, .L84+4
 929 032c 0123     		movs	r3, #1
 930 032e 7372     		strb	r3, [r6, #9]
 743:Generated_Source\PSoC5/PowerMonitor_1_INT.c ****                 /* vn_vref + vp_vssa  */
 931              		.loc 1 743 0 is_stmt 1 discriminator 3
 932 0330 FFF7FEFF 		bl	PowerMonitor_1_SaveDsmRegsAndIsolate
 933              	.LVL65:
 745:Generated_Source\PSoC5/PowerMonitor_1_INT.c ****                 /* S12 ON so can read Vref */
 934              		.loc 1 745 0 discriminator 3
 935 0334 2422     		movs	r2, #36
 936 0336 774B     		ldr	r3, .L84+12
 937 0338 1A70     		strb	r2, [r3]
 747:Generated_Source\PSoC5/PowerMonitor_1_INT.c ****                 PowerMonitor_1_pCalStore = &PowerMonitor_1_adcGainCalRawCfg3;
 938              		.loc 1 747 0 discriminator 3
 939 033a 784A     		ldr	r2, .L84+20
 940 033c 1378     		ldrb	r3, [r2]	@ zero_extendqisi2
 941 033e 43F01003 		orr	r3, r3, #16
 942 0342 1370     		strb	r3, [r2]
 748:Generated_Source\PSoC5/PowerMonitor_1_INT.c ****                 break;
 943              		.loc 1 748 0 discriminator 3
 944 0344 764B     		ldr	r3, .L84+24
 945 0346 F360     		str	r3, [r6, #12]
 749:Generated_Source\PSoC5/PowerMonitor_1_INT.c **** 
 946              		.loc 1 749 0 discriminator 3
 947 0348 20E0     		b	.L35
 948              	.L48:
 755:Generated_Source\PSoC5/PowerMonitor_1_INT.c ****                 PowerMonitor_1_SaveDsmRegsAndIsolate();
ARM GAS  C:\Users\user\AppData\Local\Temp\ccpxa6kC.s 			page 46


 949              		.loc 1 755 0
 950 034a 6F4B     		ldr	r3, .L84
 951 034c 1B78     		ldrb	r3, [r3]	@ zero_extendqisi2
 952 034e 6F4A     		ldr	r2, .L84+4
 953 0350 1372     		strb	r3, [r2, #8]
 954 0352 042B     		cmp	r3, #4
 955 0354 0BD0     		beq	.L55
 755:Generated_Source\PSoC5/PowerMonitor_1_INT.c ****                 PowerMonitor_1_SaveDsmRegsAndIsolate();
 956              		.loc 1 755 0 is_stmt 0 discriminator 1
 957 0356 0420     		movs	r0, #4
 958 0358 6B4B     		ldr	r3, .L84
 959 035a 1870     		strb	r0, [r3]
 960 035c 0021     		movs	r1, #0
 961 035e FFF7FEFF 		bl	PowerMonitor_1_ADC_SelectConfiguration
 962              	.LVL66:
 963 0362 6B49     		ldr	r1, .L84+8
 964 0364 1D20     		movs	r0, #29
 965 0366 FFF7FEFF 		bl	CyIntSetVector
 966              	.LVL67:
 967 036a FFF7FEFF 		bl	PowerMonitor_1_ADC_Start
 968              	.LVL68:
 969              	.L55:
 755:Generated_Source\PSoC5/PowerMonitor_1_INT.c ****                 PowerMonitor_1_SaveDsmRegsAndIsolate();
 970              		.loc 1 755 0 discriminator 3
 971 036e 674E     		ldr	r6, .L84+4
 972 0370 0123     		movs	r3, #1
 973 0372 7372     		strb	r3, [r6, #9]
 756:Generated_Source\PSoC5/PowerMonitor_1_INT.c ****                 /* vp_vssa              */
 974              		.loc 1 756 0 is_stmt 1 discriminator 3
 975 0374 FFF7FEFF 		bl	PowerMonitor_1_SaveDsmRegsAndIsolate
 976              	.LVL69:
 758:Generated_Source\PSoC5/PowerMonitor_1_INT.c ****                 /* VN = PGA             */
 977              		.loc 1 758 0 discriminator 3
 978 0378 0422     		movs	r2, #4
 979 037a 664B     		ldr	r3, .L84+12
 980 037c 1A70     		strb	r2, [r3]
 761:Generated_Source\PSoC5/PowerMonitor_1_INT.c ****                 /* pga out to abus1     */
 981              		.loc 1 761 0 discriminator 3
 982 037e 0223     		movs	r3, #2
 983 0380 684A     		ldr	r2, .L84+28
 984 0382 1370     		strb	r3, [r2]
 763:Generated_Source\PSoC5/PowerMonitor_1_INT.c ****                 PowerMonitor_1_pCalStore = &PowerMonitor_1_adcSCCalRawCfg3;
 985              		.loc 1 763 0 discriminator 3
 986 0384 FC3A     		subs	r2, r2, #252
 987 0386 1370     		strb	r3, [r2]
 764:Generated_Source\PSoC5/PowerMonitor_1_INT.c ****                 break;
 988              		.loc 1 764 0 discriminator 3
 989 0388 674B     		ldr	r3, .L84+32
 990 038a F360     		str	r3, [r6, #12]
 991              	.L35:
 776:Generated_Source\PSoC5/PowerMonitor_1_INT.c **** 
 992              		.loc 1 776 0
 993 038c FFF7FEFF 		bl	PowerMonitor_1_ADC_StartConvert
 994              	.LVL70:
 779:Generated_Source\PSoC5/PowerMonitor_1_INT.c ****     {
 995              		.loc 1 779 0
 996 0390 FF2C     		cmp	r4, #255
ARM GAS  C:\Users\user\AppData\Local\Temp\ccpxa6kC.s 			page 47


 997 0392 5DD0     		beq	.L56
 787:Generated_Source\PSoC5/PowerMonitor_1_INT.c ****         {
 998              		.loc 1 787 0
 999 0394 5C4B     		ldr	r3, .L84
 1000 0396 5B78     		ldrb	r3, [r3, #1]	@ zero_extendqisi2
 1001 0398 022B     		cmp	r3, #2
 1002 039a 0AD1     		bne	.L57
 789:Generated_Source\PSoC5/PowerMonitor_1_INT.c ****             {
 1003              		.loc 1 789 0
 1004 039c 634B     		ldr	r3, .L84+36
 1005 039e 1B78     		ldrb	r3, [r3]	@ zero_extendqisi2
 1006 03a0 9C42     		cmp	r4, r3
 1007 03a2 01D2     		bcs	.L58
 791:Generated_Source\PSoC5/PowerMonitor_1_INT.c ****             }
 1008              		.loc 1 791 0
 1009 03a4 6D42     		negs	r5, r5
 1010              	.LVL71:
 1011 03a6 2DB2     		sxth	r5, r5
 1012              	.LVL72:
 1013              	.L58:
 793:Generated_Source\PSoC5/PowerMonitor_1_INT.c ****         }
 1014              		.loc 1 793 0
 1015 03a8 614B     		ldr	r3, .L84+40
 1016 03aa 1888     		ldrh	r0, [r3]
 1017 03ac 281A     		subs	r0, r5, r0
 1018 03ae 00B2     		sxth	r0, r0
 1019              	.LVL73:
 1020 03b0 0AE0     		b	.L59
 1021              	.LVL74:
 1022              	.L57:
 798:Generated_Source\PSoC5/PowerMonitor_1_INT.c ****             {
 1023              		.loc 1 798 0
 1024 03b2 012B     		cmp	r3, #1
 1025 03b4 04D1     		bne	.L60
 800:Generated_Source\PSoC5/PowerMonitor_1_INT.c ****             }
 1026              		.loc 1 800 0
 1027 03b6 5F4B     		ldr	r3, .L84+44
 1028 03b8 1888     		ldrh	r0, [r3]
 1029 03ba 281A     		subs	r0, r5, r0
 1030 03bc 00B2     		sxth	r0, r0
 1031              	.LVL75:
 1032 03be 03E0     		b	.L59
 1033              	.LVL76:
 1034              	.L60:
 804:Generated_Source\PSoC5/PowerMonitor_1_INT.c ****             }
 1035              		.loc 1 804 0
 1036 03c0 5D4B     		ldr	r3, .L84+48
 1037 03c2 1888     		ldrh	r0, [r3]
 1038 03c4 281A     		subs	r0, r5, r0
 1039 03c6 00B2     		sxth	r0, r0
 1040              	.LVL77:
 1041              	.L59:
 808:Generated_Source\PSoC5/PowerMonitor_1_INT.c ****         {
 1042              		.loc 1 808 0
 1043 03c8 032C     		cmp	r4, #3
 1044 03ca 4DD8     		bhi	.L76
 1045              	.LVL78:
ARM GAS  C:\Users\user\AppData\Local\Temp\ccpxa6kC.s 			page 48


 1046              	.LBB2:
 819:Generated_Source\PSoC5/PowerMonitor_1_INT.c ****             {
 1047              		.loc 1 819 0
 1048 03cc 5B4B     		ldr	r3, .L84+52
 1049 03ce 1B78     		ldrb	r3, [r3]	@ zero_extendqisi2
 1050 03d0 9C42     		cmp	r4, r3
 1051 03d2 14D2     		bcs	.L62
 821:Generated_Source\PSoC5/PowerMonitor_1_INT.c ****                 Idx = psCtl->idx;
 1052              		.loc 1 821 0
 1053 03d4 5A4B     		ldr	r3, .L84+56
 1054 03d6 03EBC401 		add	r1, r3, r4, lsl #3
 1055              	.LVL79:
 822:Generated_Source\PSoC5/PowerMonitor_1_INT.c ****                 pAdcFilt = &PowerMonitor_1_voltFilt[convDone].rawVoltage[Idx];
 1056              		.loc 1 822 0
 1057 03da 13F83430 		ldrb	r3, [r3, r4, lsl #3]	@ zero_extendqisi2
 1058 03de DBB2     		uxtb	r3, r3
 1059              	.LVL80:
 823:Generated_Source\PSoC5/PowerMonitor_1_INT.c ****                 #if (PowerMonitor_1_DEFAULT_VFILTER_TYPE == PowerMonitor_1_FILTER_TYPE_NONE)
 1060              		.loc 1 823 0
 1061 03e0 03EB0415 		add	r5, r3, r4, lsl #4
 1062 03e4 574A     		ldr	r2, .L84+60
 1063 03e6 02EB4505 		add	r5, r2, r5, lsl #1
 1064              	.LVL81:
 827:Generated_Source\PSoC5/PowerMonitor_1_INT.c ****                 #endif /* (PowerMonitor_1_DEFAULT_VFILTER_TYPE == PowerMonitor_1_FILTER_TYPE_NONE) 
 1065              		.loc 1 827 0
 1066 03ea 0E2B     		cmp	r3, #14
 1067 03ec 02D8     		bhi	.L77
 827:Generated_Source\PSoC5/PowerMonitor_1_INT.c ****                 #endif /* (PowerMonitor_1_DEFAULT_VFILTER_TYPE == PowerMonitor_1_FILTER_TYPE_NONE) 
 1068              		.loc 1 827 0 is_stmt 0 discriminator 1
 1069 03ee 0133     		adds	r3, r3, #1
 1070              	.LVL82:
 1071 03f0 DBB2     		uxtb	r3, r3
 1072              	.LVL83:
 1073 03f2 00E0     		b	.L63
 1074              	.LVL84:
 1075              	.L77:
 827:Generated_Source\PSoC5/PowerMonitor_1_INT.c ****                 #endif /* (PowerMonitor_1_DEFAULT_VFILTER_TYPE == PowerMonitor_1_FILTER_TYPE_NONE) 
 1076              		.loc 1 827 0
 1077 03f4 0023     		movs	r3, #0
 1078              	.LVL85:
 1079              	.L63:
 827:Generated_Source\PSoC5/PowerMonitor_1_INT.c ****                 #endif /* (PowerMonitor_1_DEFAULT_VFILTER_TYPE == PowerMonitor_1_FILTER_TYPE_NONE) 
 1080              		.loc 1 827 0 discriminator 4
 1081 03f6 524A     		ldr	r2, .L84+56
 1082 03f8 02F83430 		strb	r3, [r2, r4, lsl #3]
 1083 03fc 20E0     		b	.L64
 1084              	.LVL86:
 1085              	.L62:
 831:Generated_Source\PSoC5/PowerMonitor_1_INT.c ****                          (convDone < PowerMonitor_1_lastCurrentChan))
 1086              		.loc 1 831 0 is_stmt 1
 1087 03fe 9C42     		cmp	r4, r3
 1088 0400 19D3     		bcc	.L78
 832:Generated_Source\PSoC5/PowerMonitor_1_INT.c ****                 {
 1089              		.loc 1 832 0 discriminator 1
 1090 0402 4A4A     		ldr	r2, .L84+36
 1091 0404 1278     		ldrb	r2, [r2]	@ zero_extendqisi2
 831:Generated_Source\PSoC5/PowerMonitor_1_INT.c ****                          (convDone < PowerMonitor_1_lastCurrentChan))
ARM GAS  C:\Users\user\AppData\Local\Temp\ccpxa6kC.s 			page 49


 1092              		.loc 1 831 0 discriminator 1
 1093 0406 9442     		cmp	r4, r2
 1094 0408 18D2     		bcs	.L79
 834:Generated_Source\PSoC5/PowerMonitor_1_INT.c ****                     Idx = psCtl->idx;
 1095              		.loc 1 834 0
 1096 040a E31A     		subs	r3, r4, r3
 1097 040c 4E4A     		ldr	r2, .L84+64
 1098 040e 02EBC301 		add	r1, r2, r3, lsl #3
 1099              	.LVL87:
 835:Generated_Source\PSoC5/PowerMonitor_1_INT.c ****                     pAdcFilt = &PowerMonitor_1_ampFilt[convDone - PowerMonitor_1_lastVoltageChan].r
 1100              		.loc 1 835 0
 1101 0412 12F83320 		ldrb	r2, [r2, r3, lsl #3]	@ zero_extendqisi2
 1102 0416 D2B2     		uxtb	r2, r2
 1103              	.LVL88:
 836:Generated_Source\PSoC5/PowerMonitor_1_INT.c ****                     #if (PowerMonitor_1_DEFAULT_CFILTER_TYPE == PowerMonitor_1_FILTER_TYPE_NONE)
 1104              		.loc 1 836 0
 1105 0418 02EB0316 		add	r6, r2, r3, lsl #4
 1106 041c 4B4D     		ldr	r5, .L84+68
 1107 041e 05EB4605 		add	r5, r5, r6, lsl #1
 1108              	.LVL89:
 840:Generated_Source\PSoC5/PowerMonitor_1_INT.c ****                     #endif /* (PowerMonitor_1_DEFAULT_CFILTER_TYPE == PowerMonitor_1_FILTER_TYPE_NO
 1109              		.loc 1 840 0
 1110 0422 0E2A     		cmp	r2, #14
 1111 0424 02D8     		bhi	.L80
 840:Generated_Source\PSoC5/PowerMonitor_1_INT.c ****                     #endif /* (PowerMonitor_1_DEFAULT_CFILTER_TYPE == PowerMonitor_1_FILTER_TYPE_NO
 1112              		.loc 1 840 0 is_stmt 0 discriminator 1
 1113 0426 0132     		adds	r2, r2, #1
 1114              	.LVL90:
 1115 0428 D2B2     		uxtb	r2, r2
 1116              	.LVL91:
 1117 042a 00E0     		b	.L65
 1118              	.LVL92:
 1119              	.L80:
 840:Generated_Source\PSoC5/PowerMonitor_1_INT.c ****                     #endif /* (PowerMonitor_1_DEFAULT_CFILTER_TYPE == PowerMonitor_1_FILTER_TYPE_NO
 1120              		.loc 1 840 0
 1121 042c 0022     		movs	r2, #0
 1122              	.LVL93:
 1123              	.L65:
 840:Generated_Source\PSoC5/PowerMonitor_1_INT.c ****                     #endif /* (PowerMonitor_1_DEFAULT_CFILTER_TYPE == PowerMonitor_1_FILTER_TYPE_NO
 1124              		.loc 1 840 0 discriminator 4
 1125 042e 464E     		ldr	r6, .L84+64
 1126 0430 06F83320 		strb	r2, [r6, r3, lsl #3]
 1127 0434 04E0     		b	.L64
 1128              	.LVL94:
 1129              	.L78:
 817:Generated_Source\PSoC5/PowerMonitor_1_INT.c **** 
 1130              		.loc 1 817 0 is_stmt 1
 1131 0436 4249     		ldr	r1, .L84+56
 816:Generated_Source\PSoC5/PowerMonitor_1_INT.c ****             psCtl = &PowerMonitor_1_voltCtl[0u];
 1132              		.loc 1 816 0
 1133 0438 424D     		ldr	r5, .L84+60
 1134 043a 01E0     		b	.L64
 1135              	.L79:
 817:Generated_Source\PSoC5/PowerMonitor_1_INT.c **** 
 1136              		.loc 1 817 0
 1137 043c 4049     		ldr	r1, .L84+56
 816:Generated_Source\PSoC5/PowerMonitor_1_INT.c ****             psCtl = &PowerMonitor_1_voltCtl[0u];
ARM GAS  C:\Users\user\AppData\Local\Temp\ccpxa6kC.s 			page 50


 1138              		.loc 1 816 0
 1139 043e 414D     		ldr	r5, .L84+60
 1140              	.LVL95:
 1141              	.L64:
 861:Generated_Source\PSoC5/PowerMonitor_1_INT.c ****             rawFiltVal -= *pAdcFilt;
 1142              		.loc 1 861 0
 1143 0440 4B68     		ldr	r3, [r1, #4]
 1144              	.LVL96:
 862:Generated_Source\PSoC5/PowerMonitor_1_INT.c ****             rawFiltVal += rawVal;
 1145              		.loc 1 862 0
 1146 0442 2A88     		ldrh	r2, [r5]
 1147 0444 12B2     		sxth	r2, r2
 1148 0446 9A1A     		subs	r2, r3, r2
 1149              	.LVL97:
 863:Generated_Source\PSoC5/PowerMonitor_1_INT.c ****             psCtl->filtVal = rawFiltVal;
 1150              		.loc 1 863 0
 1151 0448 0244     		add	r2, r2, r0
 1152              	.LVL98:
 864:Generated_Source\PSoC5/PowerMonitor_1_INT.c **** 
 1153              		.loc 1 864 0
 1154 044a 4A60     		str	r2, [r1, #4]
 869:Generated_Source\PSoC5/PowerMonitor_1_INT.c ****         }
 1155              		.loc 1 869 0
 1156 044c 2880     		strh	r0, [r5]	@ movhi
 1157              	.LBE2:
 1158 044e 0CE0     		b	.L61
 1159              	.LVL99:
 1160              	.L56:
 889:Generated_Source\PSoC5/PowerMonitor_1_INT.c ****         {
 1161              		.loc 1 889 0
 1162 0450 2E4B     		ldr	r3, .L84+4
 1163 0452 9B7A     		ldrb	r3, [r3, #10]	@ zero_extendqisi2
 1164 0454 23B9     		cbnz	r3, .L66
 892:Generated_Source\PSoC5/PowerMonitor_1_INT.c ****         }
 1165              		.loc 1 892 0
 1166 0456 2D4B     		ldr	r3, .L84+4
 1167 0458 DB68     		ldr	r3, [r3, #12]
 1168 045a 1D80     		strh	r5, [r3]	@ movhi
 497:Generated_Source\PSoC5/PowerMonitor_1_INT.c ****     #if (PowerMonitor_1_NUM_CURRENT_SOURCES > 0u)
 1169              		.loc 1 497 0
 1170 045c 0022     		movs	r2, #0
 1171 045e 04E0     		b	.L61
 1172              	.L66:
 896:Generated_Source\PSoC5/PowerMonitor_1_INT.c ****         }
 1173              		.loc 1 896 0
 1174 0460 0022     		movs	r2, #0
 1175 0462 2A4B     		ldr	r3, .L84+4
 1176 0464 9A72     		strb	r2, [r3, #10]
 1177 0466 00E0     		b	.L61
 1178              	.LVL100:
 1179              	.L76:
 497:Generated_Source\PSoC5/PowerMonitor_1_INT.c ****     #if (PowerMonitor_1_NUM_CURRENT_SOURCES > 0u)
 1180              		.loc 1 497 0
 1181 0468 0022     		movs	r2, #0
 1182              	.LVL101:
 1183              	.L61:
 908:Generated_Source\PSoC5/PowerMonitor_1_INT.c ****     {
ARM GAS  C:\Users\user\AppData\Local\Temp\ccpxa6kC.s 			page 51


 1184              		.loc 1 908 0
 1185 046a 394B     		ldr	r3, .L84+72
 1186 046c 1B78     		ldrb	r3, [r3]	@ zero_extendqisi2
 1187 046e DBB2     		uxtb	r3, r3
 1188 0470 012B     		cmp	r3, #1
 1189 0472 40F01581 		bne	.L67
 910:Generated_Source\PSoC5/PowerMonitor_1_INT.c ****         {
 1190              		.loc 1 910 0
 1191 0476 2D4B     		ldr	r3, .L84+36
 1192 0478 1B78     		ldrb	r3, [r3]	@ zero_extendqisi2
 1193 047a 9C42     		cmp	r4, r3
 1194 047c 80F00781 		bcs	.L68
 912:Generated_Source\PSoC5/PowerMonitor_1_INT.c ****             {
 1195              		.loc 1 912 0
 1196 0480 344B     		ldr	r3, .L84+76
 1197 0482 1B78     		ldrb	r3, [r3]	@ zero_extendqisi2
 1198 0484 012B     		cmp	r3, #1
 1199 0486 40F09780 		bne	.L69
 914:Generated_Source\PSoC5/PowerMonitor_1_INT.c ****                 {
 1200              		.loc 1 914 0
 1201 048a 2C4B     		ldr	r3, .L84+52
 1202 048c 1B78     		ldrb	r3, [r3]	@ zero_extendqisi2
 1203 048e 9C42     		cmp	r4, r3
 1204 0490 6ED2     		bcs	.L70
 916:Generated_Source\PSoC5/PowerMonitor_1_INT.c ****                     {
 1205              		.loc 1 916 0
 1206 0492 314B     		ldr	r3, .L84+80
 1207 0494 1B68     		ldr	r3, [r3]
 1208 0496 E340     		lsrs	r3, r3, r4
 1209 0498 13F0010F 		tst	r3, #1
 1210 049c 00F08C80 		beq	.L69
 918:Generated_Source\PSoC5/PowerMonitor_1_INT.c ****                         {
 1211              		.loc 1 918 0
 1212 04a0 2E4B     		ldr	r3, .L84+84
 1213 04a2 1B78     		ldrb	r3, [r3]	@ zero_extendqisi2
 1214 04a4 13F0010F 		tst	r3, #1
 1215 04a8 13D0     		beq	.L71
 920:Generated_Source\PSoC5/PowerMonitor_1_INT.c ****                             {
 1216              		.loc 1 920 0
 1217 04aa 04EB4401 		add	r1, r4, r4, lsl #1
 1218 04ae CB00     		lsls	r3, r1, #3
 1219 04b0 2B49     		ldr	r1, .L84+88
 1220 04b2 0B44     		add	r3, r3, r1
 1221 04b4 5B68     		ldr	r3, [r3, #4]
 1222 04b6 9A42     		cmp	r2, r3
 1223 04b8 0BDD     		ble	.L71
 923:Generated_Source\PSoC5/PowerMonitor_1_INT.c ****                                 PowerMonitor_1_OVWarnStatus |= (1ul << convDone);
 1224              		.loc 1 923 0
 1225 04ba 2A49     		ldr	r1, .L84+92
 1226 04bc 0B78     		ldrb	r3, [r1]	@ zero_extendqisi2
 1227 04be 43F00103 		orr	r3, r3, #1
 1228 04c2 0B70     		strb	r3, [r1]
 924:Generated_Source\PSoC5/PowerMonitor_1_INT.c ****                                 #if !defined( \
 1229              		.loc 1 924 0
 1230 04c4 0123     		movs	r3, #1
 1231 04c6 03FA04F1 		lsl	r1, r3, r4
 1232 04ca 2748     		ldr	r0, .L84+96
ARM GAS  C:\Users\user\AppData\Local\Temp\ccpxa6kC.s 			page 52


 1233 04cc 0368     		ldr	r3, [r0]
 1234 04ce 0B43     		orrs	r3, r3, r1
 1235 04d0 0360     		str	r3, [r0]
 1236              	.L71:
 933:Generated_Source\PSoC5/PowerMonitor_1_INT.c ****                         {
 1237              		.loc 1 933 0
 1238 04d2 224B     		ldr	r3, .L84+84
 1239 04d4 1B78     		ldrb	r3, [r3]	@ zero_extendqisi2
 1240 04d6 13F0020F 		tst	r3, #2
 1241 04da 6DD0     		beq	.L69
 935:Generated_Source\PSoC5/PowerMonitor_1_INT.c ****                             {
 1242              		.loc 1 935 0
 1243 04dc 04EB4401 		add	r1, r4, r4, lsl #1
 1244 04e0 CB00     		lsls	r3, r1, #3
 1245 04e2 1F49     		ldr	r1, .L84+88
 1246 04e4 0B44     		add	r3, r3, r1
 1247 04e6 9B68     		ldr	r3, [r3, #8]
 1248 04e8 9A42     		cmp	r2, r3
 1249 04ea 65DA     		bge	.L69
 938:Generated_Source\PSoC5/PowerMonitor_1_INT.c ****                                 PowerMonitor_1_UVWarnStatus |= (1ul << convDone);
 1250              		.loc 1 938 0
 1251 04ec 1D49     		ldr	r1, .L84+92
 1252 04ee 0B78     		ldrb	r3, [r1]	@ zero_extendqisi2
 1253 04f0 43F00203 		orr	r3, r3, #2
 1254 04f4 0B70     		strb	r3, [r1]
 939:Generated_Source\PSoC5/PowerMonitor_1_INT.c ****                                 #if !defined( \
 1255              		.loc 1 939 0
 1256 04f6 0123     		movs	r3, #1
 1257 04f8 03FA04F1 		lsl	r1, r3, r4
 1258 04fc 1B48     		ldr	r0, .L84+100
 1259 04fe 0368     		ldr	r3, [r0]
 1260 0500 0B43     		orrs	r3, r3, r1
 1261 0502 0360     		str	r3, [r0]
 1262 0504 58E0     		b	.L69
 1263              	.L85:
 1264 0506 00BF     		.align	2
 1265              	.L84:
 1266 0508 00000000 		.word	.LANCHOR1
 1267 050c 00000000 		.word	.LANCHOR0
 1268 0510 00000000 		.word	PowerMonitor_1_ISR
 1269 0514 035B0040 		.word	1073765123
 1270 0518 00000000 		.word	PowerMonitor_1_adcZeroCalRawCfg3
 1271 051c 95580040 		.word	1073764501
 1272 0520 00000000 		.word	PowerMonitor_1_adcGainCalRawCfg3
 1273 0524 065B0040 		.word	1073765126
 1274 0528 00000000 		.word	PowerMonitor_1_adcSCCalRawCfg3
 1275 052c 00000000 		.word	PowerMonitor_1_lastCurrentChan
 1276 0530 00000000 		.word	PowerMonitor_1_adcZeroCfg2
 1277 0534 00000000 		.word	PowerMonitor_1_adcZeroCfg1
 1278 0538 00000000 		.word	PowerMonitor_1_adcZeroCfg3
 1279 053c 00000000 		.word	PowerMonitor_1_lastVoltageChan
 1280 0540 00000000 		.word	PowerMonitor_1_voltCtl
 1281 0544 00000000 		.word	PowerMonitor_1_voltFilt
 1282 0548 00000000 		.word	PowerMonitor_1_ampCtl
 1283 054c 00000000 		.word	PowerMonitor_1_ampFilt
 1284 0550 00000000 		.word	PowerMonitor_1_PMoutEn
 1285 0554 00000000 		.word	PowerMonitor_1_warnEnable
ARM GAS  C:\Users\user\AppData\Local\Temp\ccpxa6kC.s 			page 53


 1286 0558 00000000 		.word	PowerMonitor_1_warnMask
 1287 055c 00000000 		.word	PowerMonitor_1_warnSources
 1288 0560 00000000 		.word	PowerMonitor_1_warnWin
 1289 0564 00000000 		.word	PowerMonitor_1_warnSourceStatus
 1290 0568 00000000 		.word	PowerMonitor_1_OVWarnStatus
 1291 056c 00000000 		.word	PowerMonitor_1_UVWarnStatus
 1292              	.L70:
 953:Generated_Source\PSoC5/PowerMonitor_1_INT.c ****                         /* Get the actual current channel number */
 1293              		.loc 1 953 0
 1294 0570 E31A     		subs	r3, r4, r3
 1295 0572 DBB2     		uxtb	r3, r3
 1296              	.LVL102:
 955:Generated_Source\PSoC5/PowerMonitor_1_INT.c ****                         /* Converter number is not zero based. So left shift count should
 1297              		.loc 1 955 0
 1298 0574 5849     		ldr	r1, .L86
 1299 0576 C95C     		ldrb	r1, [r1, r3]	@ zero_extendqisi2
 1300              	.LVL103:
 958:Generated_Source\PSoC5/PowerMonitor_1_INT.c ****                         {
 1301              		.loc 1 958 0
 1302 0578 584B     		ldr	r3, .L86+4
 1303 057a 1B68     		ldr	r3, [r3]
 1304 057c 0139     		subs	r1, r1, #1
 1305              	.LVL104:
 1306 057e CB40     		lsrs	r3, r3, r1
 1307 0580 13F0010F 		tst	r3, #1
 1308 0584 18D0     		beq	.L69
 960:Generated_Source\PSoC5/PowerMonitor_1_INT.c ****                             {
 1309              		.loc 1 960 0
 1310 0586 564B     		ldr	r3, .L86+8
 1311 0588 1B78     		ldrb	r3, [r3]	@ zero_extendqisi2
 1312 058a 13F0040F 		tst	r3, #4
 1313 058e 13D0     		beq	.L69
 962:Generated_Source\PSoC5/PowerMonitor_1_INT.c ****                                 {
 1314              		.loc 1 962 0
 1315 0590 01EB4100 		add	r0, r1, r1, lsl #1
 1316 0594 C300     		lsls	r3, r0, #3
 1317 0596 5348     		ldr	r0, .L86+12
 1318 0598 0344     		add	r3, r3, r0
 1319 059a DB68     		ldr	r3, [r3, #12]
 1320 059c 9A42     		cmp	r2, r3
 1321 059e 0BDD     		ble	.L69
 965:Generated_Source\PSoC5/PowerMonitor_1_INT.c ****                                     PowerMonitor_1_OCWarnStatus |= (1ul << (iChanNum - 1u));
 1322              		.loc 1 965 0
 1323 05a0 5148     		ldr	r0, .L86+16
 1324 05a2 0378     		ldrb	r3, [r0]	@ zero_extendqisi2
 1325 05a4 43F00403 		orr	r3, r3, #4
 1326 05a8 0370     		strb	r3, [r0]
 966:Generated_Source\PSoC5/PowerMonitor_1_INT.c ****                                     #if !defined(\
 1327              		.loc 1 966 0
 1328 05aa 0123     		movs	r3, #1
 1329 05ac 03FA01F1 		lsl	r1, r3, r1
 1330              	.LVL105:
 1331 05b0 4E48     		ldr	r0, .L86+20
 1332 05b2 0368     		ldr	r3, [r0]
 1333 05b4 0B43     		orrs	r3, r3, r1
 1334 05b6 0360     		str	r3, [r0]
 1335              	.LVL106:
ARM GAS  C:\Users\user\AppData\Local\Temp\ccpxa6kC.s 			page 54


 1336              	.L69:
 979:Generated_Source\PSoC5/PowerMonitor_1_INT.c ****             {
 1337              		.loc 1 979 0
 1338 05b8 4D4B     		ldr	r3, .L86+24
 1339 05ba 1B78     		ldrb	r3, [r3]	@ zero_extendqisi2
 1340 05bc 012B     		cmp	r3, #1
 1341 05be 66D1     		bne	.L68
 981:Generated_Source\PSoC5/PowerMonitor_1_INT.c ****                 {
 1342              		.loc 1 981 0
 1343 05c0 4C4B     		ldr	r3, .L86+28
 1344 05c2 1B78     		ldrb	r3, [r3]	@ zero_extendqisi2
 1345 05c4 9C42     		cmp	r4, r3
 1346 05c6 3CD2     		bcs	.L72
 983:Generated_Source\PSoC5/PowerMonitor_1_INT.c ****                     {
 1347              		.loc 1 983 0
 1348 05c8 4B4B     		ldr	r3, .L86+32
 1349 05ca 1B68     		ldr	r3, [r3]
 1350 05cc E340     		lsrs	r3, r3, r4
 1351 05ce 13F0010F 		tst	r3, #1
 1352 05d2 5CD0     		beq	.L68
 985:Generated_Source\PSoC5/PowerMonitor_1_INT.c ****                         {
 1353              		.loc 1 985 0
 1354 05d4 494B     		ldr	r3, .L86+36
 1355 05d6 1B78     		ldrb	r3, [r3]	@ zero_extendqisi2
 1356 05d8 13F0010F 		tst	r3, #1
 1357 05dc 15D0     		beq	.L73
 987:Generated_Source\PSoC5/PowerMonitor_1_INT.c ****                             {
 1358              		.loc 1 987 0
 1359 05de 04EB4401 		add	r1, r4, r4, lsl #1
 1360 05e2 CB00     		lsls	r3, r1, #3
 1361 05e4 4649     		ldr	r1, .L86+40
 1362 05e6 0B44     		add	r3, r3, r1
 1363 05e8 5B68     		ldr	r3, [r3, #4]
 1364 05ea 9A42     		cmp	r2, r3
 1365 05ec 0DDD     		ble	.L73
 990:Generated_Source\PSoC5/PowerMonitor_1_INT.c ****                                 PowerMonitor_1_OVFaultStatus |= (1ul << convDone);
 1366              		.loc 1 990 0
 1367 05ee 4549     		ldr	r1, .L86+44
 1368 05f0 0B78     		ldrb	r3, [r1]	@ zero_extendqisi2
 1369 05f2 43F00103 		orr	r3, r3, #1
 1370 05f6 0B70     		strb	r3, [r1]
 991:Generated_Source\PSoC5/PowerMonitor_1_INT.c ****                                 #if !defined(\
 1371              		.loc 1 991 0
 1372 05f8 0121     		movs	r1, #1
 1373 05fa 01FA04F5 		lsl	r5, r1, r4
 1374 05fe 4248     		ldr	r0, .L86+48
 1375 0600 0368     		ldr	r3, [r0]
 1376 0602 2B43     		orrs	r3, r3, r5
 1377 0604 0360     		str	r3, [r0]
 999:Generated_Source\PSoC5/PowerMonitor_1_INT.c ****                                 #else
 1378              		.loc 1 999 0
 1379 0606 414B     		ldr	r3, .L86+52
 1380 0608 D972     		strb	r1, [r3, #11]
 1381              	.L73:
1006:Generated_Source\PSoC5/PowerMonitor_1_INT.c ****                         {
 1382              		.loc 1 1006 0
 1383 060a 3C4B     		ldr	r3, .L86+36
ARM GAS  C:\Users\user\AppData\Local\Temp\ccpxa6kC.s 			page 55


 1384 060c 1B78     		ldrb	r3, [r3]	@ zero_extendqisi2
 1385 060e 13F0020F 		tst	r3, #2
 1386 0612 3CD0     		beq	.L68
1008:Generated_Source\PSoC5/PowerMonitor_1_INT.c ****                             {
 1387              		.loc 1 1008 0
 1388 0614 04EB4401 		add	r1, r4, r4, lsl #1
 1389 0618 CB00     		lsls	r3, r1, #3
 1390 061a 3949     		ldr	r1, .L86+40
 1391 061c 0B44     		add	r3, r3, r1
 1392 061e 9B68     		ldr	r3, [r3, #8]
 1393 0620 9A42     		cmp	r2, r3
 1394 0622 34DA     		bge	.L68
1011:Generated_Source\PSoC5/PowerMonitor_1_INT.c ****                                 PowerMonitor_1_UVFaultStatus |= (1ul << convDone);
 1395              		.loc 1 1011 0
 1396 0624 374A     		ldr	r2, .L86+44
 1397              	.LVL107:
 1398 0626 1378     		ldrb	r3, [r2]	@ zero_extendqisi2
 1399 0628 43F00203 		orr	r3, r3, #2
 1400 062c 1370     		strb	r3, [r2]
1012:Generated_Source\PSoC5/PowerMonitor_1_INT.c ****                                 #if !defined(\
 1401              		.loc 1 1012 0
 1402 062e 0122     		movs	r2, #1
 1403 0630 02FA04F0 		lsl	r0, r2, r4
 1404 0634 3649     		ldr	r1, .L86+56
 1405 0636 0B68     		ldr	r3, [r1]
 1406 0638 0343     		orrs	r3, r3, r0
 1407 063a 0B60     		str	r3, [r1]
1020:Generated_Source\PSoC5/PowerMonitor_1_INT.c ****                                 #else
 1408              		.loc 1 1020 0
 1409 063c 334B     		ldr	r3, .L86+52
 1410 063e DA72     		strb	r2, [r3, #11]
 1411 0640 25E0     		b	.L68
 1412              	.LVL108:
 1413              	.L72:
1032:Generated_Source\PSoC5/PowerMonitor_1_INT.c ****                         /* Get the actual current channel number */
 1414              		.loc 1 1032 0
 1415 0642 E31A     		subs	r3, r4, r3
 1416 0644 DBB2     		uxtb	r3, r3
 1417              	.LVL109:
1034:Generated_Source\PSoC5/PowerMonitor_1_INT.c ****                         /* Converter number is not zero based. So left shitcount should be converte
 1418              		.loc 1 1034 0
 1419 0646 2449     		ldr	r1, .L86
 1420 0648 CB5C     		ldrb	r3, [r1, r3]	@ zero_extendqisi2
 1421              	.LVL110:
1036:Generated_Source\PSoC5/PowerMonitor_1_INT.c ****                         {
 1422              		.loc 1 1036 0
 1423 064a 2B49     		ldr	r1, .L86+32
 1424 064c 0968     		ldr	r1, [r1]
 1425 064e 013B     		subs	r3, r3, #1
 1426              	.LVL111:
 1427 0650 D940     		lsrs	r1, r1, r3
 1428 0652 11F0010F 		tst	r1, #1
 1429 0656 1AD0     		beq	.L68
1038:Generated_Source\PSoC5/PowerMonitor_1_INT.c ****                             {
 1430              		.loc 1 1038 0
 1431 0658 2849     		ldr	r1, .L86+36
 1432 065a 0978     		ldrb	r1, [r1]	@ zero_extendqisi2
ARM GAS  C:\Users\user\AppData\Local\Temp\ccpxa6kC.s 			page 56


 1433 065c 11F0040F 		tst	r1, #4
 1434 0660 15D0     		beq	.L68
1040:Generated_Source\PSoC5/PowerMonitor_1_INT.c ****                                 {
 1435              		.loc 1 1040 0
 1436 0662 03EB4300 		add	r0, r3, r3, lsl #1
 1437 0666 C100     		lsls	r1, r0, #3
 1438 0668 2548     		ldr	r0, .L86+40
 1439 066a 0144     		add	r1, r1, r0
 1440 066c C968     		ldr	r1, [r1, #12]
 1441 066e 8A42     		cmp	r2, r1
 1442 0670 0DDD     		ble	.L68
1043:Generated_Source\PSoC5/PowerMonitor_1_INT.c ****                                     PowerMonitor_1_OCFaultStatus |= (1ul << (iChanNum - 1u));
 1443              		.loc 1 1043 0
 1444 0672 2449     		ldr	r1, .L86+44
 1445 0674 0A78     		ldrb	r2, [r1]	@ zero_extendqisi2
 1446              	.LVL112:
 1447 0676 42F00402 		orr	r2, r2, #4
 1448 067a 0A70     		strb	r2, [r1]
1044:Generated_Source\PSoC5/PowerMonitor_1_INT.c ****                                     #if !defined(\
 1449              		.loc 1 1044 0
 1450 067c 0121     		movs	r1, #1
 1451 067e 01FA03F3 		lsl	r3, r1, r3
 1452              	.LVL113:
 1453 0682 2448     		ldr	r0, .L86+60
 1454 0684 0268     		ldr	r2, [r0]
 1455 0686 1343     		orrs	r3, r3, r2
 1456 0688 0360     		str	r3, [r0]
1052:Generated_Source\PSoC5/PowerMonitor_1_INT.c ****                                     #else
 1457              		.loc 1 1052 0
 1458 068a 204B     		ldr	r3, .L86+52
 1459 068c D972     		strb	r1, [r3, #11]
 1460              	.LVL114:
 1461              	.L68:
1267:Generated_Source\PSoC5/PowerMonitor_1_INT.c ****             {
 1462              		.loc 1 1267 0
 1463 068e 032C     		cmp	r4, #3
 1464 0690 21D1     		bne	.L28
1269:Generated_Source\PSoC5/PowerMonitor_1_INT.c ****                 {
 1465              		.loc 1 1269 0
 1466 0692 1E4B     		ldr	r3, .L86+52
 1467 0694 DB7A     		ldrb	r3, [r3, #11]	@ zero_extendqisi2
 1468 0696 F3B1     		cbz	r3, .L28
1295:Generated_Source\PSoC5/PowerMonitor_1_INT.c ****                     /* Clear Pgood Signal */
 1469              		.loc 1 1295 0
 1470 0698 0022     		movs	r2, #0
 1471 069a 1C4B     		ldr	r3, .L86+52
 1472 069c DA72     		strb	r2, [r3, #11]
 1473 069e 70BD     		pop	{r4, r5, r6, pc}
 1474              	.LVL115:
 1475              	.L67:
1336:Generated_Source\PSoC5/PowerMonitor_1_INT.c ****         {
 1476              		.loc 1 1336 0
 1477 06a0 1D4B     		ldr	r3, .L86+64
 1478 06a2 1B78     		ldrb	r3, [r3]	@ zero_extendqisi2
 1479 06a4 013B     		subs	r3, r3, #1
 1480 06a6 9C42     		cmp	r4, r3
 1481 06a8 15D1     		bne	.L28
ARM GAS  C:\Users\user\AppData\Local\Temp\ccpxa6kC.s 			page 57


1338:Generated_Source\PSoC5/PowerMonitor_1_INT.c ****             {
 1482              		.loc 1 1338 0
 1483 06aa 1C4B     		ldr	r3, .L86+68
 1484 06ac 1B78     		ldrb	r3, [r3]	@ zero_extendqisi2
 1485 06ae 13F0FF0F 		tst	r3, #255
 1486 06b2 04D0     		beq	.L75
1340:Generated_Source\PSoC5/PowerMonitor_1_INT.c ****             }
 1487              		.loc 1 1340 0
 1488 06b4 194A     		ldr	r2, .L86+68
 1489              	.LVL116:
 1490 06b6 1378     		ldrb	r3, [r2]	@ zero_extendqisi2
 1491 06b8 013B     		subs	r3, r3, #1
 1492 06ba DBB2     		uxtb	r3, r3
 1493 06bc 1370     		strb	r3, [r2]
 1494              	.L75:
1342:Generated_Source\PSoC5/PowerMonitor_1_INT.c ****             {
 1495              		.loc 1 1342 0
 1496 06be 184B     		ldr	r3, .L86+72
 1497 06c0 1B78     		ldrb	r3, [r3]	@ zero_extendqisi2
 1498 06c2 012B     		cmp	r3, #1
 1499 06c4 07D1     		bne	.L28
1342:Generated_Source\PSoC5/PowerMonitor_1_INT.c ****             {
 1500              		.loc 1 1342 0 is_stmt 0 discriminator 1
 1501 06c6 154B     		ldr	r3, .L86+68
 1502 06c8 1B78     		ldrb	r3, [r3]	@ zero_extendqisi2
 1503 06ca 13F0FF0F 		tst	r3, #255
 1504 06ce 02D1     		bne	.L28
1344:Generated_Source\PSoC5/PowerMonitor_1_INT.c ****             }
 1505              		.loc 1 1344 0 is_stmt 1
 1506 06d0 0122     		movs	r2, #1
 1507 06d2 144B     		ldr	r3, .L86+76
 1508 06d4 1A70     		strb	r2, [r3]
 1509              	.L28:
 1510 06d6 70BD     		pop	{r4, r5, r6, pc}
 1511              	.LVL117:
 1512              	.L87:
 1513              		.align	2
 1514              	.L86:
 1515 06d8 00000000 		.word	PowerMonitor_1_ActiveCurrentChan
 1516 06dc 00000000 		.word	PowerMonitor_1_warnMask
 1517 06e0 00000000 		.word	PowerMonitor_1_warnSources
 1518 06e4 00000000 		.word	PowerMonitor_1_warnWin
 1519 06e8 00000000 		.word	PowerMonitor_1_warnSourceStatus
 1520 06ec 00000000 		.word	PowerMonitor_1_OCWarnStatus
 1521 06f0 00000000 		.word	PowerMonitor_1_faultEnable
 1522 06f4 00000000 		.word	PowerMonitor_1_lastVoltageChan
 1523 06f8 00000000 		.word	PowerMonitor_1_faultMask
 1524 06fc 00000000 		.word	PowerMonitor_1_faultSources
 1525 0700 00000000 		.word	PowerMonitor_1_faultWin
 1526 0704 00000000 		.word	PowerMonitor_1_faultSourceStatus
 1527 0708 00000000 		.word	PowerMonitor_1_OVFaultStatus
 1528 070c 00000000 		.word	.LANCHOR0
 1529 0710 00000000 		.word	PowerMonitor_1_UVFaultStatus
 1530 0714 00000000 		.word	PowerMonitor_1_OCFaultStatus
 1531 0718 00000000 		.word	PowerMonitor_1_maxChannels
 1532 071c 00000000 		.word	PowerMonitor_1_adcStartFalseCnt
 1533 0720 00000000 		.word	PowerMonitor_1_initThreshold
ARM GAS  C:\Users\user\AppData\Local\Temp\ccpxa6kC.s 			page 58


 1534 0724 00000000 		.word	PowerMonitor_1_PMoutEn
 1535              		.cfi_endproc
 1536              	.LFE3:
 1537              		.size	PowerMonitor_1_ISR, .-PowerMonitor_1_ISR
 1538              		.section	.text.PowerMonitor_1_IsrStart,"ax",%progbits
 1539              		.align	2
 1540              		.global	PowerMonitor_1_IsrStart
 1541              		.thumb
 1542              		.thumb_func
 1543              		.type	PowerMonitor_1_IsrStart, %function
 1544              	PowerMonitor_1_IsrStart:
 1545              	.LFB0:
 268:Generated_Source\PSoC5/PowerMonitor_1_INT.c ****     /* Disable and set the interrupt priority */
 1546              		.loc 1 268 0
 1547              		.cfi_startproc
 1548              		@ args = 0, pretend = 0, frame = 0
 1549              		@ frame_needed = 0, uses_anonymous_args = 0
 1550 0000 10B5     		push	{r4, lr}
 1551              		.cfi_def_cfa_offset 8
 1552              		.cfi_offset 4, -8
 1553              		.cfi_offset 14, -4
 270:Generated_Source\PSoC5/PowerMonitor_1_INT.c ****     CyIntSetPriority  (PowerMonitor_1_IRQ__INTC_NUMBER, PowerMonitor_1_IRQ_INTC_PRIOR_NUMBER);
 1554              		.loc 1 270 0
 1555 0002 4FF00054 		mov	r4, #536870912
 1556 0006 0F4B     		ldr	r3, .L90
 1557 0008 1C60     		str	r4, [r3]
 271:Generated_Source\PSoC5/PowerMonitor_1_INT.c **** 
 1558              		.loc 1 271 0
 1559 000a 0721     		movs	r1, #7
 1560 000c 1D20     		movs	r0, #29
 1561 000e FFF7FEFF 		bl	CyIntSetPriority
 1562              	.LVL118:
 274:Generated_Source\PSoC5/PowerMonitor_1_INT.c ****     PowerMonitor_1_PMoutEn            = PowerMonitor_1_CYFALSE;
 1563              		.loc 1 274 0
 1564 0012 FFF7FEFF 		bl	PowerMonitor_1_GetMaxFilterOrder
 1565              	.LVL119:
 1566 0016 0C4B     		ldr	r3, .L90+4
 1567 0018 1870     		strb	r0, [r3]
 275:Generated_Source\PSoC5/PowerMonitor_1_INT.c ****     PowerMonitor_1_adcConvNow         = PowerMonitor_1_STATE_CAL;
 1568              		.loc 1 275 0
 1569 001a 0023     		movs	r3, #0
 1570 001c 0B4A     		ldr	r2, .L90+8
 1571 001e 1370     		strb	r3, [r2]
 276:Generated_Source\PSoC5/PowerMonitor_1_INT.c ****     PowerMonitor_1_adcConvNext        = PowerMonitor_1_STATE_CAL;
 1572              		.loc 1 276 0
 1573 0020 FF22     		movs	r2, #255
 1574 0022 0B49     		ldr	r1, .L90+12
 1575 0024 0A70     		strb	r2, [r1]
 277:Generated_Source\PSoC5/PowerMonitor_1_INT.c ****     PowerMonitor_1_adcConvCalType     = PowerMonitor_1_CAL_START;
 1576              		.loc 1 277 0
 1577 0026 0B49     		ldr	r1, .L90+16
 1578 0028 0A70     		strb	r2, [r1]
 278:Generated_Source\PSoC5/PowerMonitor_1_INT.c **** 
 1579              		.loc 1 278 0
 1580 002a 0B4A     		ldr	r2, .L90+20
 1581 002c 1370     		strb	r3, [r2]
 281:Generated_Source\PSoC5/PowerMonitor_1_INT.c ****     CyIntSetPending   (PowerMonitor_1_IRQ__INTC_NUMBER);
ARM GAS  C:\Users\user\AppData\Local\Temp\ccpxa6kC.s 			page 59


 1582              		.loc 1 281 0
 1583 002e 0B49     		ldr	r1, .L90+24
 1584 0030 1D20     		movs	r0, #29
 1585 0032 FFF7FEFF 		bl	CyIntSetVector
 1586              	.LVL120:
 282:Generated_Source\PSoC5/PowerMonitor_1_INT.c ****     PowerMonitor_1_IntEnable       (PowerMonitor_1_IRQ__INTC_NUMBER);
 1587              		.loc 1 282 0
 1588 0036 0A4B     		ldr	r3, .L90+28
 1589 0038 1C60     		str	r4, [r3]
 283:Generated_Source\PSoC5/PowerMonitor_1_INT.c **** }
 1590              		.loc 1 283 0
 1591 003a A3F58073 		sub	r3, r3, #256
 1592 003e 1C60     		str	r4, [r3]
 1593 0040 10BD     		pop	{r4, pc}
 1594              	.L91:
 1595 0042 00BF     		.align	2
 1596              	.L90:
 1597 0044 80E100E0 		.word	-536813184
 1598 0048 00000000 		.word	PowerMonitor_1_adcStartFalseCnt
 1599 004c 00000000 		.word	PowerMonitor_1_PMoutEn
 1600 0050 00000000 		.word	PowerMonitor_1_adcConvNow
 1601 0054 00000000 		.word	PowerMonitor_1_adcConvNext
 1602 0058 00000000 		.word	PowerMonitor_1_adcConvCalType
 1603 005c 00000000 		.word	PowerMonitor_1_ISR
 1604 0060 00E200E0 		.word	-536813056
 1605              		.cfi_endproc
 1606              	.LFE0:
 1607              		.size	PowerMonitor_1_IsrStart, .-PowerMonitor_1_IsrStart
 1608              		.global	PowerMonitor_1_pCalStore
 1609              		.global	PowerMonitor_1_index
 1610              		.comm	PowerMonitor_1_lastAuxVoltChan,1,1
 1611              		.comm	PowerMonitor_1_lastCurrentChan,1,1
 1612              		.comm	PowerMonitor_1_lastVoltageChan,1,1
 1613              		.comm	PowerMonitor_1_faultWin,48,4
 1614              		.comm	PowerMonitor_1_warnWin,48,4
 1615              		.comm	PowerMonitor_1_ampCtl,16,4
 1616              		.comm	PowerMonitor_1_ampFilt,64,4
 1617              		.comm	PowerMonitor_1_voltCtl,16,4
 1618              		.comm	PowerMonitor_1_voltFilt,64,4
 1619              		.comm	PowerMonitor_1_adcSCCalRawCfg3,2,2
 1620              		.comm	PowerMonitor_1_adcGainCalRawCfg3,2,2
 1621              		.comm	PowerMonitor_1_adcZeroCalRawCfg3,2,2
 1622              		.comm	PowerMonitor_1_adcGainCalRawCfg2b,2,2
 1623              		.comm	PowerMonitor_1_adcGainCalRawCfg2a,2,2
 1624              		.comm	PowerMonitor_1_adcZeroCalRawCfg2,2,2
 1625              		.comm	PowerMonitor_1_adcSCCalRawCfg1,2,2
 1626              		.comm	PowerMonitor_1_adcGainCalRawCfg1,2,2
 1627              		.comm	PowerMonitor_1_adcZeroCalRawCfg1,2,2
 1628              		.comm	PowerMonitor_1_maxChannels,1,1
 1629              		.comm	PowerMonitor_1_adcConvCalType,1,1
 1630              		.comm	PowerMonitor_1_adcConvNextPreCal,1,1
 1631              		.comm	PowerMonitor_1_adcConvNext,1,1
 1632              		.comm	PowerMonitor_1_adcConvNow,1,1
 1633              		.comm	PowerMonitor_1_PMoutEn,1,1
 1634              		.comm	PowerMonitor_1_adcStartFalseCnt,1,1
 1635              		.data
 1636              		.set	.LANCHOR1,. + 0
ARM GAS  C:\Users\user\AppData\Local\Temp\ccpxa6kC.s 			page 60


 1637              		.type	PowerMonitor_1_adcConfig, %object
 1638              		.size	PowerMonitor_1_adcConfig, 1
 1639              	PowerMonitor_1_adcConfig:
 1640 0000 FF       		.byte	-1
 1641              		.type	PowerMonitor_1_adcConvDoneConfig, %object
 1642              		.size	PowerMonitor_1_adcConvDoneConfig, 1
 1643              	PowerMonitor_1_adcConvDoneConfig:
 1644 0001 FF       		.byte	-1
 1645              		.bss
 1646              		.align	2
 1647              		.set	.LANCHOR0,. + 0
 1648              		.type	PowerMonitor_1_keep_CYREG_DSM0_SW0, %object
 1649              		.size	PowerMonitor_1_keep_CYREG_DSM0_SW0, 1
 1650              	PowerMonitor_1_keep_CYREG_DSM0_SW0:
 1651 0000 00       		.space	1
 1652              		.type	PowerMonitor_1_keep_CYREG_DSM0_SW2, %object
 1653              		.size	PowerMonitor_1_keep_CYREG_DSM0_SW2, 1
 1654              	PowerMonitor_1_keep_CYREG_DSM0_SW2:
 1655 0001 00       		.space	1
 1656              		.type	PowerMonitor_1_keep_CYREG_DSM0_SW3, %object
 1657              		.size	PowerMonitor_1_keep_CYREG_DSM0_SW3, 1
 1658              	PowerMonitor_1_keep_CYREG_DSM0_SW3:
 1659 0002 00       		.space	1
 1660              		.type	PowerMonitor_1_keep_CYREG_DSM0_SW4, %object
 1661              		.size	PowerMonitor_1_keep_CYREG_DSM0_SW4, 1
 1662              	PowerMonitor_1_keep_CYREG_DSM0_SW4:
 1663 0003 00       		.space	1
 1664              		.type	PowerMonitor_1_keep_CYREG_DSM0_SW6, %object
 1665              		.size	PowerMonitor_1_keep_CYREG_DSM0_SW6, 1
 1666              	PowerMonitor_1_keep_CYREG_DSM0_SW6:
 1667 0004 00       		.space	1
 1668              		.type	PowerMonitor_1_dsmRegRestorePend, %object
 1669              		.size	PowerMonitor_1_dsmRegRestorePend, 1
 1670              	PowerMonitor_1_dsmRegRestorePend:
 1671 0005 00       		.space	1
 1672              		.type	PowerMonitor_1_index, %object
 1673              		.size	PowerMonitor_1_index, 1
 1674              	PowerMonitor_1_index:
 1675 0006 00       		.space	1
 1676              		.type	PowerMonitor_1_amuxChan, %object
 1677              		.size	PowerMonitor_1_amuxChan, 1
 1678              	PowerMonitor_1_amuxChan:
 1679 0007 00       		.space	1
 1680              		.type	PowerMonitor_1_adcConfigCalPush, %object
 1681              		.size	PowerMonitor_1_adcConfigCalPush, 1
 1682              	PowerMonitor_1_adcConfigCalPush:
 1683 0008 00       		.space	1
 1684              		.type	PowerMonitor_1_adcCfgPopPend, %object
 1685              		.size	PowerMonitor_1_adcCfgPopPend, 1
 1686              	PowerMonitor_1_adcCfgPopPend:
 1687 0009 00       		.space	1
 1688              		.type	PowerMonitor_1_justReset, %object
 1689              		.size	PowerMonitor_1_justReset, 1
 1690              	PowerMonitor_1_justReset:
 1691 000a 00       		.space	1
 1692              		.type	PowerMonitor_1_faultDetected, %object
 1693              		.size	PowerMonitor_1_faultDetected, 1
ARM GAS  C:\Users\user\AppData\Local\Temp\ccpxa6kC.s 			page 61


 1694              	PowerMonitor_1_faultDetected:
 1695 000b 00       		.space	1
 1696              		.type	PowerMonitor_1_pCalStore, %object
 1697              		.size	PowerMonitor_1_pCalStore, 4
 1698              	PowerMonitor_1_pCalStore:
 1699 000c 00000000 		.space	4
 1700              		.text
 1701              	.Letext0:
 1702              		.file 2 "Generated_Source\\PSoC5\\cytypes.h"
 1703              		.file 3 "Generated_Source\\PSoC5\\PowerMonitor_1.h"
 1704              		.file 4 "Generated_Source\\PSoC5\\PowerMonitor_1_PM_AMux_Voltage.h"
 1705              		.file 5 "Generated_Source\\PSoC5\\PowerMonitor_1_PM_AMux_Current.h"
 1706              		.file 6 "Generated_Source\\PSoC5\\PowerMonitor_1_ADC.h"
 1707              		.file 7 "Generated_Source\\PSoC5\\CyLib.h"
 1708              		.section	.debug_info,"",%progbits
 1709              	.Ldebug_info0:
 1710 0000 4C0C0000 		.4byte	0xc4c
 1711 0004 0400     		.2byte	0x4
 1712 0006 00000000 		.4byte	.Ldebug_abbrev0
 1713 000a 04       		.byte	0x4
 1714 000b 01       		.uleb128 0x1
 1715 000c BA030000 		.4byte	.LASF122
 1716 0010 0C       		.byte	0xc
 1717 0011 69080000 		.4byte	.LASF123
 1718 0015 58020000 		.4byte	.LASF124
 1719 0019 00000000 		.4byte	.Ldebug_ranges0+0
 1720 001d 00000000 		.4byte	0
 1721 0021 00000000 		.4byte	.Ldebug_line0
 1722 0025 02       		.uleb128 0x2
 1723 0026 01       		.byte	0x1
 1724 0027 06       		.byte	0x6
 1725 0028 350B0000 		.4byte	.LASF0
 1726 002c 02       		.uleb128 0x2
 1727 002d 01       		.byte	0x1
 1728 002e 08       		.byte	0x8
 1729 002f 850A0000 		.4byte	.LASF1
 1730 0033 02       		.uleb128 0x2
 1731 0034 02       		.byte	0x2
 1732 0035 05       		.byte	0x5
 1733 0036 2D080000 		.4byte	.LASF2
 1734 003a 02       		.uleb128 0x2
 1735 003b 02       		.byte	0x2
 1736 003c 07       		.byte	0x7
 1737 003d 480B0000 		.4byte	.LASF3
 1738 0041 02       		.uleb128 0x2
 1739 0042 04       		.byte	0x4
 1740 0043 05       		.byte	0x5
 1741 0044 37080000 		.4byte	.LASF4
 1742 0048 02       		.uleb128 0x2
 1743 0049 04       		.byte	0x4
 1744 004a 07       		.byte	0x7
 1745 004b 8E090000 		.4byte	.LASF5
 1746 004f 02       		.uleb128 0x2
 1747 0050 08       		.byte	0x8
 1748 0051 05       		.byte	0x5
 1749 0052 76060000 		.4byte	.LASF6
 1750 0056 02       		.uleb128 0x2
ARM GAS  C:\Users\user\AppData\Local\Temp\ccpxa6kC.s 			page 62


 1751 0057 08       		.byte	0x8
 1752 0058 07       		.byte	0x7
 1753 0059 0A030000 		.4byte	.LASF7
 1754 005d 03       		.uleb128 0x3
 1755 005e 04       		.byte	0x4
 1756 005f 05       		.byte	0x5
 1757 0060 696E7400 		.ascii	"int\000"
 1758 0064 02       		.uleb128 0x2
 1759 0065 04       		.byte	0x4
 1760 0066 07       		.byte	0x7
 1761 0067 87000000 		.4byte	.LASF8
 1762 006b 04       		.uleb128 0x4
 1763 006c A60B0000 		.4byte	.LASF9
 1764 0070 02       		.byte	0x2
 1765 0071 9201     		.2byte	0x192
 1766 0073 2C000000 		.4byte	0x2c
 1767 0077 04       		.uleb128 0x4
 1768 0078 97050000 		.4byte	.LASF10
 1769 007c 02       		.byte	0x2
 1770 007d 9301     		.2byte	0x193
 1771 007f 3A000000 		.4byte	0x3a
 1772 0083 04       		.uleb128 0x4
 1773 0084 F8060000 		.4byte	.LASF11
 1774 0088 02       		.byte	0x2
 1775 0089 9401     		.2byte	0x194
 1776 008b 48000000 		.4byte	0x48
 1777 008f 04       		.uleb128 0x4
 1778 0090 CB000000 		.4byte	.LASF12
 1779 0094 02       		.byte	0x2
 1780 0095 9601     		.2byte	0x196
 1781 0097 33000000 		.4byte	0x33
 1782 009b 04       		.uleb128 0x4
 1783 009c C6010000 		.4byte	.LASF13
 1784 00a0 02       		.byte	0x2
 1785 00a1 9701     		.2byte	0x197
 1786 00a3 41000000 		.4byte	0x41
 1787 00a7 02       		.uleb128 0x2
 1788 00a8 04       		.byte	0x4
 1789 00a9 04       		.byte	0x4
 1790 00aa C0010000 		.4byte	.LASF14
 1791 00ae 02       		.uleb128 0x2
 1792 00af 08       		.byte	0x8
 1793 00b0 04       		.byte	0x4
 1794 00b1 AC0B0000 		.4byte	.LASF15
 1795 00b5 02       		.uleb128 0x2
 1796 00b6 01       		.byte	0x1
 1797 00b7 08       		.byte	0x8
 1798 00b8 92050000 		.4byte	.LASF16
 1799 00bc 04       		.uleb128 0x4
 1800 00bd FB000000 		.4byte	.LASF17
 1801 00c1 02       		.byte	0x2
 1802 00c2 3C02     		.2byte	0x23c
 1803 00c4 C8000000 		.4byte	0xc8
 1804 00c8 05       		.uleb128 0x5
 1805 00c9 6B000000 		.4byte	0x6b
 1806 00cd 04       		.uleb128 0x4
 1807 00ce D6070000 		.4byte	.LASF18
ARM GAS  C:\Users\user\AppData\Local\Temp\ccpxa6kC.s 			page 63


 1808 00d2 02       		.byte	0x2
 1809 00d3 3E02     		.2byte	0x23e
 1810 00d5 D9000000 		.4byte	0xd9
 1811 00d9 05       		.uleb128 0x5
 1812 00da 83000000 		.4byte	0x83
 1813 00de 02       		.uleb128 0x2
 1814 00df 08       		.byte	0x8
 1815 00e0 04       		.byte	0x4
 1816 00e1 AA070000 		.4byte	.LASF19
 1817 00e5 02       		.uleb128 0x2
 1818 00e6 04       		.byte	0x4
 1819 00e7 07       		.byte	0x7
 1820 00e8 85090000 		.4byte	.LASF20
 1821 00ec 06       		.uleb128 0x6
 1822 00ed 08       		.byte	0x8
 1823 00ee 03       		.byte	0x3
 1824 00ef 2E       		.byte	0x2e
 1825 00f0 0D010000 		.4byte	0x10d
 1826 00f4 07       		.uleb128 0x7
 1827 00f5 69647800 		.ascii	"idx\000"
 1828 00f9 03       		.byte	0x3
 1829 00fa 30       		.byte	0x30
 1830 00fb C8000000 		.4byte	0xc8
 1831 00ff 00       		.byte	0
 1832 0100 08       		.uleb128 0x8
 1833 0101 7D0A0000 		.4byte	.LASF21
 1834 0105 03       		.byte	0x3
 1835 0106 31       		.byte	0x31
 1836 0107 0D010000 		.4byte	0x10d
 1837 010b 04       		.byte	0x4
 1838 010c 00       		.byte	0
 1839 010d 05       		.uleb128 0x5
 1840 010e 9B000000 		.4byte	0x9b
 1841 0112 09       		.uleb128 0x9
 1842 0113 85010000 		.4byte	.LASF22
 1843 0117 03       		.byte	0x3
 1844 0118 32       		.byte	0x32
 1845 0119 EC000000 		.4byte	0xec
 1846 011d 06       		.uleb128 0x6
 1847 011e 18       		.byte	0x18
 1848 011f 03       		.byte	0x3
 1849 0120 39       		.byte	0x39
 1850 0121 7A010000 		.4byte	0x17a
 1851 0125 08       		.uleb128 0x8
 1852 0126 7A030000 		.4byte	.LASF23
 1853 012a 03       		.byte	0x3
 1854 012b 3B       		.byte	0x3b
 1855 012c 6B000000 		.4byte	0x6b
 1856 0130 00       		.byte	0
 1857 0131 08       		.uleb128 0x8
 1858 0132 5D030000 		.4byte	.LASF24
 1859 0136 03       		.byte	0x3
 1860 0137 3C       		.byte	0x3c
 1861 0138 9B000000 		.4byte	0x9b
 1862 013c 04       		.byte	0x4
 1863 013d 08       		.uleb128 0x8
 1864 013e AB040000 		.4byte	.LASF25
ARM GAS  C:\Users\user\AppData\Local\Temp\ccpxa6kC.s 			page 64


 1865 0142 03       		.byte	0x3
 1866 0143 3D       		.byte	0x3d
 1867 0144 9B000000 		.4byte	0x9b
 1868 0148 08       		.byte	0x8
 1869 0149 08       		.uleb128 0x8
 1870 014a 2F0C0000 		.4byte	.LASF26
 1871 014e 03       		.byte	0x3
 1872 014f 3E       		.byte	0x3e
 1873 0150 9B000000 		.4byte	0x9b
 1874 0154 0C       		.byte	0xc
 1875 0155 08       		.uleb128 0x8
 1876 0156 170A0000 		.4byte	.LASF27
 1877 015a 03       		.byte	0x3
 1878 015b 3F       		.byte	0x3f
 1879 015c 77000000 		.4byte	0x77
 1880 0160 10       		.byte	0x10
 1881 0161 08       		.uleb128 0x8
 1882 0162 DC070000 		.4byte	.LASF28
 1883 0166 03       		.byte	0x3
 1884 0167 40       		.byte	0x40
 1885 0168 77000000 		.4byte	0x77
 1886 016c 12       		.byte	0x12
 1887 016d 08       		.uleb128 0x8
 1888 016e FF060000 		.4byte	.LASF29
 1889 0172 03       		.byte	0x3
 1890 0173 41       		.byte	0x41
 1891 0174 A7000000 		.4byte	0xa7
 1892 0178 14       		.byte	0x14
 1893 0179 00       		.byte	0
 1894 017a 09       		.uleb128 0x9
 1895 017b C40A0000 		.4byte	.LASF30
 1896 017f 03       		.byte	0x3
 1897 0180 42       		.byte	0x42
 1898 0181 1D010000 		.4byte	0x11d
 1899 0185 06       		.uleb128 0x6
 1900 0186 18       		.byte	0x18
 1901 0187 03       		.byte	0x3
 1902 0188 46       		.byte	0x46
 1903 0189 E2010000 		.4byte	0x1e2
 1904 018d 08       		.uleb128 0x8
 1905 018e 7A030000 		.4byte	.LASF23
 1906 0192 03       		.byte	0x3
 1907 0193 48       		.byte	0x48
 1908 0194 6B000000 		.4byte	0x6b
 1909 0198 00       		.byte	0
 1910 0199 08       		.uleb128 0x8
 1911 019a 780B0000 		.4byte	.LASF31
 1912 019e 03       		.byte	0x3
 1913 019f 49       		.byte	0x49
 1914 01a0 9B000000 		.4byte	0x9b
 1915 01a4 04       		.byte	0x4
 1916 01a5 08       		.uleb128 0x8
 1917 01a6 72000000 		.4byte	.LASF32
 1918 01aa 03       		.byte	0x3
 1919 01ab 4A       		.byte	0x4a
 1920 01ac 9B000000 		.4byte	0x9b
 1921 01b0 08       		.byte	0x8
ARM GAS  C:\Users\user\AppData\Local\Temp\ccpxa6kC.s 			page 65


 1922 01b1 08       		.uleb128 0x8
 1923 01b2 54080000 		.4byte	.LASF33
 1924 01b6 03       		.byte	0x3
 1925 01b7 4B       		.byte	0x4b
 1926 01b8 9B000000 		.4byte	0x9b
 1927 01bc 0C       		.byte	0xc
 1928 01bd 08       		.uleb128 0x8
 1929 01be 40080000 		.4byte	.LASF34
 1930 01c2 03       		.byte	0x3
 1931 01c3 4C       		.byte	0x4c
 1932 01c4 77000000 		.4byte	0x77
 1933 01c8 10       		.byte	0x10
 1934 01c9 08       		.uleb128 0x8
 1935 01ca C1090000 		.4byte	.LASF35
 1936 01ce 03       		.byte	0x3
 1937 01cf 4D       		.byte	0x4d
 1938 01d0 77000000 		.4byte	0x77
 1939 01d4 12       		.byte	0x12
 1940 01d5 08       		.uleb128 0x8
 1941 01d6 C5020000 		.4byte	.LASF36
 1942 01da 03       		.byte	0x3
 1943 01db 4E       		.byte	0x4e
 1944 01dc A7000000 		.4byte	0xa7
 1945 01e0 14       		.byte	0x14
 1946 01e1 00       		.byte	0
 1947 01e2 09       		.uleb128 0x9
 1948 01e3 E20A0000 		.4byte	.LASF37
 1949 01e7 03       		.byte	0x3
 1950 01e8 4F       		.byte	0x4f
 1951 01e9 85010000 		.4byte	0x185
 1952 01ed 06       		.uleb128 0x6
 1953 01ee 20       		.byte	0x20
 1954 01ef 01       		.byte	0x1
 1955 01f0 4D       		.byte	0x4d
 1956 01f1 02020000 		.4byte	0x202
 1957 01f5 08       		.uleb128 0x8
 1958 01f6 4F000000 		.4byte	.LASF38
 1959 01fa 01       		.byte	0x1
 1960 01fb 50       		.byte	0x50
 1961 01fc 17020000 		.4byte	0x217
 1962 0200 00       		.byte	0
 1963 0201 00       		.byte	0
 1964 0202 0A       		.uleb128 0xa
 1965 0203 12020000 		.4byte	0x212
 1966 0207 12020000 		.4byte	0x212
 1967 020b 0B       		.uleb128 0xb
 1968 020c E5000000 		.4byte	0xe5
 1969 0210 0F       		.byte	0xf
 1970 0211 00       		.byte	0
 1971 0212 05       		.uleb128 0x5
 1972 0213 8F000000 		.4byte	0x8f
 1973 0217 05       		.uleb128 0x5
 1974 0218 02020000 		.4byte	0x202
 1975 021c 09       		.uleb128 0x9
 1976 021d FC080000 		.4byte	.LASF39
 1977 0221 01       		.byte	0x1
 1978 0222 51       		.byte	0x51
ARM GAS  C:\Users\user\AppData\Local\Temp\ccpxa6kC.s 			page 66


 1979 0223 ED010000 		.4byte	0x1ed
 1980 0227 06       		.uleb128 0x6
 1981 0228 20       		.byte	0x20
 1982 0229 01       		.byte	0x1
 1983 022a 60       		.byte	0x60
 1984 022b 3C020000 		.4byte	0x23c
 1985 022f 08       		.uleb128 0x8
 1986 0230 4F000000 		.4byte	.LASF38
 1987 0234 01       		.byte	0x1
 1988 0235 63       		.byte	0x63
 1989 0236 3C020000 		.4byte	0x23c
 1990 023a 00       		.byte	0
 1991 023b 00       		.byte	0
 1992 023c 05       		.uleb128 0x5
 1993 023d 02020000 		.4byte	0x202
 1994 0241 09       		.uleb128 0x9
 1995 0242 66070000 		.4byte	.LASF40
 1996 0246 01       		.byte	0x1
 1997 0247 64       		.byte	0x64
 1998 0248 27020000 		.4byte	0x227
 1999 024c 0C       		.uleb128 0xc
 2000 024d DA040000 		.4byte	.LASF41
 2001 0251 01       		.byte	0x1
 2002 0252 7605     		.2byte	0x576
 2003 0254 00000000 		.4byte	.LFB4
 2004 0258 50000000 		.4byte	.LFE4-.LFB4
 2005 025c 01       		.uleb128 0x1
 2006 025d 9C       		.byte	0x9c
 2007 025e 0C       		.uleb128 0xc
 2008 025f 95080000 		.4byte	.LASF42
 2009 0263 01       		.byte	0x1
 2010 0264 A305     		.2byte	0x5a3
 2011 0266 00000000 		.4byte	.LFB5
 2012 026a 4C000000 		.4byte	.LFE5-.LFB5
 2013 026e 01       		.uleb128 0x1
 2014 026f 9C       		.byte	0x9c
 2015 0270 0D       		.uleb128 0xd
 2016 0271 A0090000 		.4byte	.LASF125
 2017 0275 01       		.byte	0x1
 2018 0276 C605     		.2byte	0x5c6
 2019 0278 6B000000 		.4byte	0x6b
 2020 027c 00000000 		.4byte	.LFB6
 2021 0280 04000000 		.4byte	.LFE6-.LFB6
 2022 0284 01       		.uleb128 0x1
 2023 0285 9C       		.byte	0x9c
 2024 0286 98020000 		.4byte	0x298
 2025 028a 0E       		.uleb128 0xe
 2026 028b 72657400 		.ascii	"ret\000"
 2027 028f 01       		.byte	0x1
 2028 0290 C805     		.2byte	0x5c8
 2029 0292 6B000000 		.4byte	0x6b
 2030 0296 10       		.byte	0x10
 2031 0297 00       		.byte	0
 2032 0298 0F       		.uleb128 0xf
 2033 0299 2A0A0000 		.4byte	.LASF43
 2034 029d 01       		.byte	0x1
 2035 029e B501     		.2byte	0x1b5
ARM GAS  C:\Users\user\AppData\Local\Temp\ccpxa6kC.s 			page 67


 2036 02a0 00000000 		.4byte	.LFB2
 2037 02a4 A8000000 		.4byte	.LFE2-.LFB2
 2038 02a8 01       		.uleb128 0x1
 2039 02a9 9C       		.byte	0x9c
 2040 02aa 58030000 		.4byte	0x358
 2041 02ae 10       		.uleb128 0x10
 2042 02af 22000000 		.4byte	.LVL1
 2043 02b3 F70B0000 		.4byte	0xbf7
 2044 02b7 10       		.uleb128 0x10
 2045 02b8 28000000 		.4byte	.LVL2
 2046 02bc 020C0000 		.4byte	0xc02
 2047 02c0 11       		.uleb128 0x11
 2048 02c1 3C000000 		.4byte	.LVL3
 2049 02c5 0D0C0000 		.4byte	0xc0d
 2050 02c9 D8020000 		.4byte	0x2d8
 2051 02cd 12       		.uleb128 0x12
 2052 02ce 01       		.uleb128 0x1
 2053 02cf 50       		.byte	0x50
 2054 02d0 01       		.uleb128 0x1
 2055 02d1 32       		.byte	0x32
 2056 02d2 12       		.uleb128 0x12
 2057 02d3 01       		.uleb128 0x1
 2058 02d4 51       		.byte	0x51
 2059 02d5 01       		.uleb128 0x1
 2060 02d6 30       		.byte	0x30
 2061 02d7 00       		.byte	0
 2062 02d8 11       		.uleb128 0x11
 2063 02d9 44000000 		.4byte	.LVL4
 2064 02dd 180C0000 		.4byte	0xc18
 2065 02e1 F4020000 		.4byte	0x2f4
 2066 02e5 12       		.uleb128 0x12
 2067 02e6 01       		.uleb128 0x1
 2068 02e7 50       		.byte	0x50
 2069 02e8 01       		.uleb128 0x1
 2070 02e9 4D       		.byte	0x4d
 2071 02ea 12       		.uleb128 0x12
 2072 02eb 01       		.uleb128 0x1
 2073 02ec 51       		.byte	0x51
 2074 02ed 05       		.uleb128 0x5
 2075 02ee 03       		.byte	0x3
 2076 02ef 00000000 		.4byte	PowerMonitor_1_ISR
 2077 02f3 00       		.byte	0
 2078 02f4 10       		.uleb128 0x10
 2079 02f5 48000000 		.4byte	.LVL5
 2080 02f9 230C0000 		.4byte	0xc23
 2081 02fd 10       		.uleb128 0x10
 2082 02fe 62000000 		.4byte	.LVL6
 2083 0302 F70B0000 		.4byte	0xbf7
 2084 0306 11       		.uleb128 0x11
 2085 0307 68000000 		.4byte	.LVL7
 2086 030b 020C0000 		.4byte	0xc02
 2087 030f 1A030000 		.4byte	0x31a
 2088 0313 12       		.uleb128 0x12
 2089 0314 01       		.uleb128 0x1
 2090 0315 50       		.byte	0x50
 2091 0316 02       		.uleb128 0x2
 2092 0317 08       		.byte	0x8
ARM GAS  C:\Users\user\AppData\Local\Temp\ccpxa6kC.s 			page 68


 2093 0318 25       		.byte	0x25
 2094 0319 00       		.byte	0
 2095 031a 11       		.uleb128 0x11
 2096 031b 7C000000 		.4byte	.LVL8
 2097 031f 0D0C0000 		.4byte	0xc0d
 2098 0323 32030000 		.4byte	0x332
 2099 0327 12       		.uleb128 0x12
 2100 0328 01       		.uleb128 0x1
 2101 0329 50       		.byte	0x50
 2102 032a 01       		.uleb128 0x1
 2103 032b 31       		.byte	0x31
 2104 032c 12       		.uleb128 0x12
 2105 032d 01       		.uleb128 0x1
 2106 032e 51       		.byte	0x51
 2107 032f 01       		.uleb128 0x1
 2108 0330 30       		.byte	0x30
 2109 0331 00       		.byte	0
 2110 0332 11       		.uleb128 0x11
 2111 0333 84000000 		.4byte	.LVL9
 2112 0337 180C0000 		.4byte	0xc18
 2113 033b 4E030000 		.4byte	0x34e
 2114 033f 12       		.uleb128 0x12
 2115 0340 01       		.uleb128 0x1
 2116 0341 50       		.byte	0x50
 2117 0342 01       		.uleb128 0x1
 2118 0343 4D       		.byte	0x4d
 2119 0344 12       		.uleb128 0x12
 2120 0345 01       		.uleb128 0x1
 2121 0346 51       		.byte	0x51
 2122 0347 05       		.uleb128 0x5
 2123 0348 03       		.byte	0x3
 2124 0349 00000000 		.4byte	PowerMonitor_1_ISR
 2125 034d 00       		.byte	0
 2126 034e 10       		.uleb128 0x10
 2127 034f 88000000 		.4byte	.LVL10
 2128 0353 230C0000 		.4byte	0xc23
 2129 0357 00       		.byte	0
 2130 0358 0F       		.uleb128 0xf
 2131 0359 1F090000 		.4byte	.LASF44
 2132 035d 01       		.byte	0x1
 2133 035e 2D01     		.2byte	0x12d
 2134 0360 00000000 		.4byte	.LFB1
 2135 0364 A4000000 		.4byte	.LFE1-.LFB1
 2136 0368 01       		.uleb128 0x1
 2137 0369 9C       		.byte	0x9c
 2138 036a 0F040000 		.4byte	0x40f
 2139 036e 10       		.uleb128 0x10
 2140 036f 1A000000 		.4byte	.LVL11
 2141 0373 F70B0000 		.4byte	0xbf7
 2142 0377 11       		.uleb128 0x11
 2143 0378 26000000 		.4byte	.LVL12
 2144 037c 020C0000 		.4byte	0xc02
 2145 0380 8B030000 		.4byte	0x38b
 2146 0384 12       		.uleb128 0x12
 2147 0385 01       		.uleb128 0x1
 2148 0386 50       		.byte	0x50
 2149 0387 02       		.uleb128 0x2
ARM GAS  C:\Users\user\AppData\Local\Temp\ccpxa6kC.s 			page 69


 2150 0388 08       		.byte	0x8
 2151 0389 25       		.byte	0x25
 2152 038a 00       		.byte	0
 2153 038b 11       		.uleb128 0x11
 2154 038c 3A000000 		.4byte	.LVL13
 2155 0390 0D0C0000 		.4byte	0xc0d
 2156 0394 A3030000 		.4byte	0x3a3
 2157 0398 12       		.uleb128 0x12
 2158 0399 01       		.uleb128 0x1
 2159 039a 50       		.byte	0x50
 2160 039b 01       		.uleb128 0x1
 2161 039c 31       		.byte	0x31
 2162 039d 12       		.uleb128 0x12
 2163 039e 01       		.uleb128 0x1
 2164 039f 51       		.byte	0x51
 2165 03a0 01       		.uleb128 0x1
 2166 03a1 30       		.byte	0x30
 2167 03a2 00       		.byte	0
 2168 03a3 11       		.uleb128 0x11
 2169 03a4 42000000 		.4byte	.LVL14
 2170 03a8 180C0000 		.4byte	0xc18
 2171 03ac BF030000 		.4byte	0x3bf
 2172 03b0 12       		.uleb128 0x12
 2173 03b1 01       		.uleb128 0x1
 2174 03b2 50       		.byte	0x50
 2175 03b3 01       		.uleb128 0x1
 2176 03b4 4D       		.byte	0x4d
 2177 03b5 12       		.uleb128 0x12
 2178 03b6 01       		.uleb128 0x1
 2179 03b7 51       		.byte	0x51
 2180 03b8 05       		.uleb128 0x5
 2181 03b9 03       		.byte	0x3
 2182 03ba 00000000 		.4byte	PowerMonitor_1_ISR
 2183 03be 00       		.byte	0
 2184 03bf 10       		.uleb128 0x10
 2185 03c0 46000000 		.4byte	.LVL15
 2186 03c4 230C0000 		.4byte	0xc23
 2187 03c8 10       		.uleb128 0x10
 2188 03c9 5C000000 		.4byte	.LVL16
 2189 03cd 020C0000 		.4byte	0xc02
 2190 03d1 11       		.uleb128 0x11
 2191 03d2 70000000 		.4byte	.LVL17
 2192 03d6 0D0C0000 		.4byte	0xc0d
 2193 03da E9030000 		.4byte	0x3e9
 2194 03de 12       		.uleb128 0x12
 2195 03df 01       		.uleb128 0x1
 2196 03e0 50       		.byte	0x50
 2197 03e1 01       		.uleb128 0x1
 2198 03e2 31       		.byte	0x31
 2199 03e3 12       		.uleb128 0x12
 2200 03e4 01       		.uleb128 0x1
 2201 03e5 51       		.byte	0x51
 2202 03e6 01       		.uleb128 0x1
 2203 03e7 30       		.byte	0x30
 2204 03e8 00       		.byte	0
 2205 03e9 11       		.uleb128 0x11
 2206 03ea 78000000 		.4byte	.LVL18
ARM GAS  C:\Users\user\AppData\Local\Temp\ccpxa6kC.s 			page 70


 2207 03ee 180C0000 		.4byte	0xc18
 2208 03f2 05040000 		.4byte	0x405
 2209 03f6 12       		.uleb128 0x12
 2210 03f7 01       		.uleb128 0x1
 2211 03f8 50       		.byte	0x50
 2212 03f9 01       		.uleb128 0x1
 2213 03fa 4D       		.byte	0x4d
 2214 03fb 12       		.uleb128 0x12
 2215 03fc 01       		.uleb128 0x1
 2216 03fd 51       		.byte	0x51
 2217 03fe 05       		.uleb128 0x5
 2218 03ff 03       		.byte	0x3
 2219 0400 00000000 		.4byte	PowerMonitor_1_ISR
 2220 0404 00       		.byte	0
 2221 0405 10       		.uleb128 0x10
 2222 0406 7C000000 		.4byte	.LVL19
 2223 040a 230C0000 		.4byte	0xc23
 2224 040e 00       		.byte	0
 2225 040f 13       		.uleb128 0x13
 2226 0410 D8020000 		.4byte	.LASF51
 2227 0414 01       		.byte	0x1
 2228 0415 E901     		.2byte	0x1e9
 2229 0417 00000000 		.4byte	.LFB3
 2230 041b 28070000 		.4byte	.LFE3-.LFB3
 2231 041f 01       		.uleb128 0x1
 2232 0420 9C       		.byte	0x9c
 2233 0421 AE070000 		.4byte	0x7ae
 2234 0425 14       		.uleb128 0x14
 2235 0426 410B0000 		.4byte	.LASF45
 2236 042a 01       		.byte	0x1
 2237 042b EF01     		.2byte	0x1ef
 2238 042d 8F000000 		.4byte	0x8f
 2239 0431 00000000 		.4byte	.LLST0
 2240 0435 14       		.uleb128 0x14
 2241 0436 48040000 		.4byte	.LASF46
 2242 043a 01       		.byte	0x1
 2243 043b F001     		.2byte	0x1f0
 2244 043d 6B000000 		.4byte	0x6b
 2245 0441 6B000000 		.4byte	.LLST1
 2246 0445 14       		.uleb128 0x14
 2247 0446 40090000 		.4byte	.LASF47
 2248 044a 01       		.byte	0x1
 2249 044b F101     		.2byte	0x1f1
 2250 044d 9B000000 		.4byte	0x9b
 2251 0451 7E000000 		.4byte	.LLST2
 2252 0455 14       		.uleb128 0x14
 2253 0456 71030000 		.4byte	.LASF48
 2254 045a 01       		.byte	0x1
 2255 045b F301     		.2byte	0x1f3
 2256 045d 6B000000 		.4byte	0x6b
 2257 0461 D5000000 		.4byte	.LLST3
 2258 0465 15       		.uleb128 0x15
 2259 0466 CC030000 		.4byte	.LBB2
 2260 046a 82000000 		.4byte	.LBE2-.LBB2
 2261 046e A3040000 		.4byte	0x4a3
 2262 0472 16       		.uleb128 0x16
 2263 0473 49647800 		.ascii	"Idx\000"
ARM GAS  C:\Users\user\AppData\Local\Temp\ccpxa6kC.s 			page 71


 2264 0477 01       		.byte	0x1
 2265 0478 2B03     		.2byte	0x32b
 2266 047a 6B000000 		.4byte	0x6b
 2267 047e 18010000 		.4byte	.LLST4
 2268 0482 14       		.uleb128 0x14
 2269 0483 EF070000 		.4byte	.LASF49
 2270 0487 01       		.byte	0x1
 2271 0488 2C03     		.2byte	0x32c
 2272 048a AE070000 		.4byte	0x7ae
 2273 048e 8A010000 		.4byte	.LLST5
 2274 0492 14       		.uleb128 0x14
 2275 0493 D6060000 		.4byte	.LASF50
 2276 0497 01       		.byte	0x1
 2277 0498 2D03     		.2byte	0x32d
 2278 049a B4070000 		.4byte	0x7b4
 2279 049e E3010000 		.4byte	.LLST6
 2280 04a2 00       		.byte	0
 2281 04a3 10       		.uleb128 0x10
 2282 04a4 06000000 		.4byte	.LVL21
 2283 04a8 2E0C0000 		.4byte	0xc2e
 2284 04ac 10       		.uleb128 0x10
 2285 04ad 30000000 		.4byte	.LVL24
 2286 04b1 5E020000 		.4byte	0x25e
 2287 04b5 11       		.uleb128 0x11
 2288 04b6 4E000000 		.4byte	.LVL25
 2289 04ba 0D0C0000 		.4byte	0xc0d
 2290 04be C8040000 		.4byte	0x4c8
 2291 04c2 12       		.uleb128 0x12
 2292 04c3 01       		.uleb128 0x1
 2293 04c4 51       		.byte	0x51
 2294 04c5 01       		.uleb128 0x1
 2295 04c6 30       		.byte	0x30
 2296 04c7 00       		.byte	0
 2297 04c8 11       		.uleb128 0x11
 2298 04c9 56000000 		.4byte	.LVL26
 2299 04cd 180C0000 		.4byte	0xc18
 2300 04d1 E4040000 		.4byte	0x4e4
 2301 04d5 12       		.uleb128 0x12
 2302 04d6 01       		.uleb128 0x1
 2303 04d7 50       		.byte	0x50
 2304 04d8 01       		.uleb128 0x1
 2305 04d9 4D       		.byte	0x4d
 2306 04da 12       		.uleb128 0x12
 2307 04db 01       		.uleb128 0x1
 2308 04dc 51       		.byte	0x51
 2309 04dd 05       		.uleb128 0x5
 2310 04de 03       		.byte	0x3
 2311 04df 00000000 		.4byte	PowerMonitor_1_ISR
 2312 04e3 00       		.byte	0
 2313 04e4 10       		.uleb128 0x10
 2314 04e5 5A000000 		.4byte	.LVL27
 2315 04e9 230C0000 		.4byte	0xc23
 2316 04ed 10       		.uleb128 0x10
 2317 04ee 76000000 		.4byte	.LVL28
 2318 04f2 F70B0000 		.4byte	0xbf7
 2319 04f6 10       		.uleb128 0x10
 2320 04f7 88000000 		.4byte	.LVL29
ARM GAS  C:\Users\user\AppData\Local\Temp\ccpxa6kC.s 			page 72


 2321 04fb 020C0000 		.4byte	0xc02
 2322 04ff 11       		.uleb128 0x11
 2323 0500 9C000000 		.4byte	.LVL30
 2324 0504 0D0C0000 		.4byte	0xc0d
 2325 0508 17050000 		.4byte	0x517
 2326 050c 12       		.uleb128 0x12
 2327 050d 01       		.uleb128 0x1
 2328 050e 50       		.byte	0x50
 2329 050f 01       		.uleb128 0x1
 2330 0510 31       		.byte	0x31
 2331 0511 12       		.uleb128 0x12
 2332 0512 01       		.uleb128 0x1
 2333 0513 51       		.byte	0x51
 2334 0514 01       		.uleb128 0x1
 2335 0515 30       		.byte	0x30
 2336 0516 00       		.byte	0
 2337 0517 11       		.uleb128 0x11
 2338 0518 A4000000 		.4byte	.LVL31
 2339 051c 180C0000 		.4byte	0xc18
 2340 0520 33050000 		.4byte	0x533
 2341 0524 12       		.uleb128 0x12
 2342 0525 01       		.uleb128 0x1
 2343 0526 50       		.byte	0x50
 2344 0527 01       		.uleb128 0x1
 2345 0528 4D       		.byte	0x4d
 2346 0529 12       		.uleb128 0x12
 2347 052a 01       		.uleb128 0x1
 2348 052b 51       		.byte	0x51
 2349 052c 05       		.uleb128 0x5
 2350 052d 03       		.byte	0x3
 2351 052e 00000000 		.4byte	PowerMonitor_1_ISR
 2352 0532 00       		.byte	0
 2353 0533 10       		.uleb128 0x10
 2354 0534 A8000000 		.4byte	.LVL32
 2355 0538 230C0000 		.4byte	0xc23
 2356 053c 11       		.uleb128 0x11
 2357 053d BC000000 		.4byte	.LVL33
 2358 0541 020C0000 		.4byte	0xc02
 2359 0545 50050000 		.4byte	0x550
 2360 0549 12       		.uleb128 0x12
 2361 054a 01       		.uleb128 0x1
 2362 054b 50       		.byte	0x50
 2363 054c 02       		.uleb128 0x2
 2364 054d 08       		.byte	0x8
 2365 054e 25       		.byte	0x25
 2366 054f 00       		.byte	0
 2367 0550 11       		.uleb128 0x11
 2368 0551 D0000000 		.4byte	.LVL34
 2369 0555 0D0C0000 		.4byte	0xc0d
 2370 0559 68050000 		.4byte	0x568
 2371 055d 12       		.uleb128 0x12
 2372 055e 01       		.uleb128 0x1
 2373 055f 50       		.byte	0x50
 2374 0560 01       		.uleb128 0x1
 2375 0561 31       		.byte	0x31
 2376 0562 12       		.uleb128 0x12
 2377 0563 01       		.uleb128 0x1
ARM GAS  C:\Users\user\AppData\Local\Temp\ccpxa6kC.s 			page 73


 2378 0564 51       		.byte	0x51
 2379 0565 01       		.uleb128 0x1
 2380 0566 30       		.byte	0x30
 2381 0567 00       		.byte	0
 2382 0568 11       		.uleb128 0x11
 2383 0569 D8000000 		.4byte	.LVL35
 2384 056d 180C0000 		.4byte	0xc18
 2385 0571 84050000 		.4byte	0x584
 2386 0575 12       		.uleb128 0x12
 2387 0576 01       		.uleb128 0x1
 2388 0577 50       		.byte	0x50
 2389 0578 01       		.uleb128 0x1
 2390 0579 4D       		.byte	0x4d
 2391 057a 12       		.uleb128 0x12
 2392 057b 01       		.uleb128 0x1
 2393 057c 51       		.byte	0x51
 2394 057d 05       		.uleb128 0x5
 2395 057e 03       		.byte	0x3
 2396 057f 00000000 		.4byte	PowerMonitor_1_ISR
 2397 0583 00       		.byte	0
 2398 0584 10       		.uleb128 0x10
 2399 0585 DC000000 		.4byte	.LVL36
 2400 0589 230C0000 		.4byte	0xc23
 2401 058d 10       		.uleb128 0x10
 2402 058e FE000000 		.4byte	.LVL37
 2403 0592 98020000 		.4byte	0x298
 2404 0596 10       		.uleb128 0x10
 2405 0597 12010000 		.4byte	.LVL38
 2406 059b 58030000 		.4byte	0x358
 2407 059f 10       		.uleb128 0x10
 2408 05a0 34010000 		.4byte	.LVL39
 2409 05a4 98020000 		.4byte	0x298
 2410 05a8 10       		.uleb128 0x10
 2411 05a9 76010000 		.4byte	.LVL40
 2412 05ad 230C0000 		.4byte	0xc23
 2413 05b1 10       		.uleb128 0x10
 2414 05b2 7A010000 		.4byte	.LVL41
 2415 05b6 58030000 		.4byte	0x358
 2416 05ba 11       		.uleb128 0x11
 2417 05bb A4010000 		.4byte	.LVL42
 2418 05bf 0D0C0000 		.4byte	0xc0d
 2419 05c3 D2050000 		.4byte	0x5d2
 2420 05c7 12       		.uleb128 0x12
 2421 05c8 01       		.uleb128 0x1
 2422 05c9 50       		.byte	0x50
 2423 05ca 01       		.uleb128 0x1
 2424 05cb 31       		.byte	0x31
 2425 05cc 12       		.uleb128 0x12
 2426 05cd 01       		.uleb128 0x1
 2427 05ce 51       		.byte	0x51
 2428 05cf 01       		.uleb128 0x1
 2429 05d0 30       		.byte	0x30
 2430 05d1 00       		.byte	0
 2431 05d2 11       		.uleb128 0x11
 2432 05d3 AC010000 		.4byte	.LVL43
 2433 05d7 180C0000 		.4byte	0xc18
 2434 05db EE050000 		.4byte	0x5ee
ARM GAS  C:\Users\user\AppData\Local\Temp\ccpxa6kC.s 			page 74


 2435 05df 12       		.uleb128 0x12
 2436 05e0 01       		.uleb128 0x1
 2437 05e1 50       		.byte	0x50
 2438 05e2 01       		.uleb128 0x1
 2439 05e3 4D       		.byte	0x4d
 2440 05e4 12       		.uleb128 0x12
 2441 05e5 01       		.uleb128 0x1
 2442 05e6 51       		.byte	0x51
 2443 05e7 05       		.uleb128 0x5
 2444 05e8 03       		.byte	0x3
 2445 05e9 00000000 		.4byte	PowerMonitor_1_ISR
 2446 05ed 00       		.byte	0
 2447 05ee 10       		.uleb128 0x10
 2448 05ef B0010000 		.4byte	.LVL44
 2449 05f3 230C0000 		.4byte	0xc23
 2450 05f7 10       		.uleb128 0x10
 2451 05f8 BA010000 		.4byte	.LVL45
 2452 05fc 4C020000 		.4byte	0x24c
 2453 0600 11       		.uleb128 0x11
 2454 0601 DE010000 		.4byte	.LVL46
 2455 0605 0D0C0000 		.4byte	0xc0d
 2456 0609 18060000 		.4byte	0x618
 2457 060d 12       		.uleb128 0x12
 2458 060e 01       		.uleb128 0x1
 2459 060f 50       		.byte	0x50
 2460 0610 01       		.uleb128 0x1
 2461 0611 31       		.byte	0x31
 2462 0612 12       		.uleb128 0x12
 2463 0613 01       		.uleb128 0x1
 2464 0614 51       		.byte	0x51
 2465 0615 01       		.uleb128 0x1
 2466 0616 30       		.byte	0x30
 2467 0617 00       		.byte	0
 2468 0618 11       		.uleb128 0x11
 2469 0619 E6010000 		.4byte	.LVL47
 2470 061d 180C0000 		.4byte	0xc18
 2471 0621 34060000 		.4byte	0x634
 2472 0625 12       		.uleb128 0x12
 2473 0626 01       		.uleb128 0x1
 2474 0627 50       		.byte	0x50
 2475 0628 01       		.uleb128 0x1
 2476 0629 4D       		.byte	0x4d
 2477 062a 12       		.uleb128 0x12
 2478 062b 01       		.uleb128 0x1
 2479 062c 51       		.byte	0x51
 2480 062d 05       		.uleb128 0x5
 2481 062e 03       		.byte	0x3
 2482 062f 00000000 		.4byte	PowerMonitor_1_ISR
 2483 0633 00       		.byte	0
 2484 0634 10       		.uleb128 0x10
 2485 0635 EA010000 		.4byte	.LVL48
 2486 0639 230C0000 		.4byte	0xc23
 2487 063d 10       		.uleb128 0x10
 2488 063e F4010000 		.4byte	.LVL49
 2489 0642 4C020000 		.4byte	0x24c
 2490 0646 11       		.uleb128 0x11
 2491 0647 22020000 		.4byte	.LVL50
ARM GAS  C:\Users\user\AppData\Local\Temp\ccpxa6kC.s 			page 75


 2492 064b 0D0C0000 		.4byte	0xc0d
 2493 064f 5E060000 		.4byte	0x65e
 2494 0653 12       		.uleb128 0x12
 2495 0654 01       		.uleb128 0x1
 2496 0655 50       		.byte	0x50
 2497 0656 01       		.uleb128 0x1
 2498 0657 31       		.byte	0x31
 2499 0658 12       		.uleb128 0x12
 2500 0659 01       		.uleb128 0x1
 2501 065a 51       		.byte	0x51
 2502 065b 01       		.uleb128 0x1
 2503 065c 30       		.byte	0x30
 2504 065d 00       		.byte	0
 2505 065e 11       		.uleb128 0x11
 2506 065f 2A020000 		.4byte	.LVL51
 2507 0663 180C0000 		.4byte	0xc18
 2508 0667 7A060000 		.4byte	0x67a
 2509 066b 12       		.uleb128 0x12
 2510 066c 01       		.uleb128 0x1
 2511 066d 50       		.byte	0x50
 2512 066e 01       		.uleb128 0x1
 2513 066f 4D       		.byte	0x4d
 2514 0670 12       		.uleb128 0x12
 2515 0671 01       		.uleb128 0x1
 2516 0672 51       		.byte	0x51
 2517 0673 05       		.uleb128 0x5
 2518 0674 03       		.byte	0x3
 2519 0675 00000000 		.4byte	PowerMonitor_1_ISR
 2520 0679 00       		.byte	0
 2521 067a 10       		.uleb128 0x10
 2522 067b 2E020000 		.4byte	.LVL52
 2523 067f 230C0000 		.4byte	0xc23
 2524 0683 10       		.uleb128 0x10
 2525 0684 38020000 		.4byte	.LVL53
 2526 0688 4C020000 		.4byte	0x24c
 2527 068c 11       		.uleb128 0x11
 2528 068d 66020000 		.4byte	.LVL54
 2529 0691 0D0C0000 		.4byte	0xc0d
 2530 0695 A4060000 		.4byte	0x6a4
 2531 0699 12       		.uleb128 0x12
 2532 069a 01       		.uleb128 0x1
 2533 069b 50       		.byte	0x50
 2534 069c 01       		.uleb128 0x1
 2535 069d 32       		.byte	0x32
 2536 069e 12       		.uleb128 0x12
 2537 069f 01       		.uleb128 0x1
 2538 06a0 51       		.byte	0x51
 2539 06a1 01       		.uleb128 0x1
 2540 06a2 30       		.byte	0x30
 2541 06a3 00       		.byte	0
 2542 06a4 11       		.uleb128 0x11
 2543 06a5 6E020000 		.4byte	.LVL55
 2544 06a9 180C0000 		.4byte	0xc18
 2545 06ad C0060000 		.4byte	0x6c0
 2546 06b1 12       		.uleb128 0x12
 2547 06b2 01       		.uleb128 0x1
 2548 06b3 50       		.byte	0x50
ARM GAS  C:\Users\user\AppData\Local\Temp\ccpxa6kC.s 			page 76


 2549 06b4 01       		.uleb128 0x1
 2550 06b5 4D       		.byte	0x4d
 2551 06b6 12       		.uleb128 0x12
 2552 06b7 01       		.uleb128 0x1
 2553 06b8 51       		.byte	0x51
 2554 06b9 05       		.uleb128 0x5
 2555 06ba 03       		.byte	0x3
 2556 06bb 00000000 		.4byte	PowerMonitor_1_ISR
 2557 06bf 00       		.byte	0
 2558 06c0 10       		.uleb128 0x10
 2559 06c1 72020000 		.4byte	.LVL56
 2560 06c5 230C0000 		.4byte	0xc23
 2561 06c9 10       		.uleb128 0x10
 2562 06ca 7C020000 		.4byte	.LVL57
 2563 06ce 4C020000 		.4byte	0x24c
 2564 06d2 11       		.uleb128 0x11
 2565 06d3 E4020000 		.4byte	.LVL58
 2566 06d7 0D0C0000 		.4byte	0xc0d
 2567 06db EA060000 		.4byte	0x6ea
 2568 06df 12       		.uleb128 0x12
 2569 06e0 01       		.uleb128 0x1
 2570 06e1 50       		.byte	0x50
 2571 06e2 01       		.uleb128 0x1
 2572 06e3 34       		.byte	0x34
 2573 06e4 12       		.uleb128 0x12
 2574 06e5 01       		.uleb128 0x1
 2575 06e6 51       		.byte	0x51
 2576 06e7 01       		.uleb128 0x1
 2577 06e8 30       		.byte	0x30
 2578 06e9 00       		.byte	0
 2579 06ea 11       		.uleb128 0x11
 2580 06eb EC020000 		.4byte	.LVL59
 2581 06ef 180C0000 		.4byte	0xc18
 2582 06f3 06070000 		.4byte	0x706
 2583 06f7 12       		.uleb128 0x12
 2584 06f8 01       		.uleb128 0x1
 2585 06f9 50       		.byte	0x50
 2586 06fa 01       		.uleb128 0x1
 2587 06fb 4D       		.byte	0x4d
 2588 06fc 12       		.uleb128 0x12
 2589 06fd 01       		.uleb128 0x1
 2590 06fe 51       		.byte	0x51
 2591 06ff 05       		.uleb128 0x5
 2592 0700 03       		.byte	0x3
 2593 0701 00000000 		.4byte	PowerMonitor_1_ISR
 2594 0705 00       		.byte	0
 2595 0706 10       		.uleb128 0x10
 2596 0707 F0020000 		.4byte	.LVL60
 2597 070b 230C0000 		.4byte	0xc23
 2598 070f 10       		.uleb128 0x10
 2599 0710 FA020000 		.4byte	.LVL61
 2600 0714 4C020000 		.4byte	0x24c
 2601 0718 11       		.uleb128 0x11
 2602 0719 1E030000 		.4byte	.LVL62
 2603 071d 0D0C0000 		.4byte	0xc0d
 2604 0721 30070000 		.4byte	0x730
 2605 0725 12       		.uleb128 0x12
ARM GAS  C:\Users\user\AppData\Local\Temp\ccpxa6kC.s 			page 77


 2606 0726 01       		.uleb128 0x1
 2607 0727 50       		.byte	0x50
 2608 0728 01       		.uleb128 0x1
 2609 0729 34       		.byte	0x34
 2610 072a 12       		.uleb128 0x12
 2611 072b 01       		.uleb128 0x1
 2612 072c 51       		.byte	0x51
 2613 072d 01       		.uleb128 0x1
 2614 072e 30       		.byte	0x30
 2615 072f 00       		.byte	0
 2616 0730 11       		.uleb128 0x11
 2617 0731 26030000 		.4byte	.LVL63
 2618 0735 180C0000 		.4byte	0xc18
 2619 0739 4C070000 		.4byte	0x74c
 2620 073d 12       		.uleb128 0x12
 2621 073e 01       		.uleb128 0x1
 2622 073f 50       		.byte	0x50
 2623 0740 01       		.uleb128 0x1
 2624 0741 4D       		.byte	0x4d
 2625 0742 12       		.uleb128 0x12
 2626 0743 01       		.uleb128 0x1
 2627 0744 51       		.byte	0x51
 2628 0745 05       		.uleb128 0x5
 2629 0746 03       		.byte	0x3
 2630 0747 00000000 		.4byte	PowerMonitor_1_ISR
 2631 074b 00       		.byte	0
 2632 074c 10       		.uleb128 0x10
 2633 074d 2A030000 		.4byte	.LVL64
 2634 0751 230C0000 		.4byte	0xc23
 2635 0755 10       		.uleb128 0x10
 2636 0756 34030000 		.4byte	.LVL65
 2637 075a 4C020000 		.4byte	0x24c
 2638 075e 11       		.uleb128 0x11
 2639 075f 62030000 		.4byte	.LVL66
 2640 0763 0D0C0000 		.4byte	0xc0d
 2641 0767 76070000 		.4byte	0x776
 2642 076b 12       		.uleb128 0x12
 2643 076c 01       		.uleb128 0x1
 2644 076d 50       		.byte	0x50
 2645 076e 01       		.uleb128 0x1
 2646 076f 34       		.byte	0x34
 2647 0770 12       		.uleb128 0x12
 2648 0771 01       		.uleb128 0x1
 2649 0772 51       		.byte	0x51
 2650 0773 01       		.uleb128 0x1
 2651 0774 30       		.byte	0x30
 2652 0775 00       		.byte	0
 2653 0776 11       		.uleb128 0x11
 2654 0777 6A030000 		.4byte	.LVL67
 2655 077b 180C0000 		.4byte	0xc18
 2656 077f 92070000 		.4byte	0x792
 2657 0783 12       		.uleb128 0x12
 2658 0784 01       		.uleb128 0x1
 2659 0785 50       		.byte	0x50
 2660 0786 01       		.uleb128 0x1
 2661 0787 4D       		.byte	0x4d
 2662 0788 12       		.uleb128 0x12
ARM GAS  C:\Users\user\AppData\Local\Temp\ccpxa6kC.s 			page 78


 2663 0789 01       		.uleb128 0x1
 2664 078a 51       		.byte	0x51
 2665 078b 05       		.uleb128 0x5
 2666 078c 03       		.byte	0x3
 2667 078d 00000000 		.4byte	PowerMonitor_1_ISR
 2668 0791 00       		.byte	0
 2669 0792 10       		.uleb128 0x10
 2670 0793 6E030000 		.4byte	.LVL68
 2671 0797 230C0000 		.4byte	0xc23
 2672 079b 10       		.uleb128 0x10
 2673 079c 78030000 		.4byte	.LVL69
 2674 07a0 4C020000 		.4byte	0x24c
 2675 07a4 10       		.uleb128 0x10
 2676 07a5 90030000 		.4byte	.LVL70
 2677 07a9 390C0000 		.4byte	0xc39
 2678 07ad 00       		.byte	0
 2679 07ae 17       		.uleb128 0x17
 2680 07af 04       		.byte	0x4
 2681 07b0 12020000 		.4byte	0x212
 2682 07b4 17       		.uleb128 0x17
 2683 07b5 04       		.byte	0x4
 2684 07b6 12010000 		.4byte	0x112
 2685 07ba 13       		.uleb128 0x13
 2686 07bb AC0A0000 		.4byte	.LASF52
 2687 07bf 01       		.byte	0x1
 2688 07c0 0B01     		.2byte	0x10b
 2689 07c2 00000000 		.4byte	.LFB0
 2690 07c6 64000000 		.4byte	.LFE0-.LFB0
 2691 07ca 01       		.uleb128 0x1
 2692 07cb 9C       		.byte	0x9c
 2693 07cc 0A080000 		.4byte	0x80a
 2694 07d0 11       		.uleb128 0x11
 2695 07d1 12000000 		.4byte	.LVL118
 2696 07d5 440C0000 		.4byte	0xc44
 2697 07d9 E8070000 		.4byte	0x7e8
 2698 07dd 12       		.uleb128 0x12
 2699 07de 01       		.uleb128 0x1
 2700 07df 50       		.byte	0x50
 2701 07e0 01       		.uleb128 0x1
 2702 07e1 4D       		.byte	0x4d
 2703 07e2 12       		.uleb128 0x12
 2704 07e3 01       		.uleb128 0x1
 2705 07e4 51       		.byte	0x51
 2706 07e5 01       		.uleb128 0x1
 2707 07e6 37       		.byte	0x37
 2708 07e7 00       		.byte	0
 2709 07e8 10       		.uleb128 0x10
 2710 07e9 16000000 		.4byte	.LVL119
 2711 07ed 70020000 		.4byte	0x270
 2712 07f1 18       		.uleb128 0x18
 2713 07f2 36000000 		.4byte	.LVL120
 2714 07f6 180C0000 		.4byte	0xc18
 2715 07fa 12       		.uleb128 0x12
 2716 07fb 01       		.uleb128 0x1
 2717 07fc 50       		.byte	0x50
 2718 07fd 01       		.uleb128 0x1
 2719 07fe 4D       		.byte	0x4d
ARM GAS  C:\Users\user\AppData\Local\Temp\ccpxa6kC.s 			page 79


 2720 07ff 12       		.uleb128 0x12
 2721 0800 01       		.uleb128 0x1
 2722 0801 51       		.byte	0x51
 2723 0802 05       		.uleb128 0x5
 2724 0803 03       		.byte	0x3
 2725 0804 00000000 		.4byte	PowerMonitor_1_ISR
 2726 0808 00       		.byte	0
 2727 0809 00       		.byte	0
 2728 080a 19       		.uleb128 0x19
 2729 080b CC010000 		.4byte	.LASF53
 2730 080f 01       		.byte	0x1
 2731 0810 9A       		.byte	0x9a
 2732 0811 6B000000 		.4byte	0x6b
 2733 0815 05       		.uleb128 0x5
 2734 0816 03       		.byte	0x3
 2735 0817 00000000 		.4byte	PowerMonitor_1_keep_CYREG_DSM0_SW0
 2736 081b 19       		.uleb128 0x19
 2737 081c EF010000 		.4byte	.LASF54
 2738 0820 01       		.byte	0x1
 2739 0821 9B       		.byte	0x9b
 2740 0822 6B000000 		.4byte	0x6b
 2741 0826 05       		.uleb128 0x5
 2742 0827 03       		.byte	0x3
 2743 0828 01000000 		.4byte	PowerMonitor_1_keep_CYREG_DSM0_SW2
 2744 082c 19       		.uleb128 0x19
 2745 082d 12020000 		.4byte	.LASF55
 2746 0831 01       		.byte	0x1
 2747 0832 9D       		.byte	0x9d
 2748 0833 6B000000 		.4byte	0x6b
 2749 0837 05       		.uleb128 0x5
 2750 0838 03       		.byte	0x3
 2751 0839 02000000 		.4byte	PowerMonitor_1_keep_CYREG_DSM0_SW3
 2752 083d 19       		.uleb128 0x19
 2753 083e 35020000 		.4byte	.LASF56
 2754 0842 01       		.byte	0x1
 2755 0843 9E       		.byte	0x9e
 2756 0844 6B000000 		.4byte	0x6b
 2757 0848 05       		.uleb128 0x5
 2758 0849 03       		.byte	0x3
 2759 084a 03000000 		.4byte	PowerMonitor_1_keep_CYREG_DSM0_SW4
 2760 084e 19       		.uleb128 0x19
 2761 084f 6F050000 		.4byte	.LASF57
 2762 0853 01       		.byte	0x1
 2763 0854 9F       		.byte	0x9f
 2764 0855 6B000000 		.4byte	0x6b
 2765 0859 05       		.uleb128 0x5
 2766 085a 03       		.byte	0x3
 2767 085b 04000000 		.4byte	PowerMonitor_1_keep_CYREG_DSM0_SW6
 2768 085f 19       		.uleb128 0x19
 2769 0860 6C090000 		.4byte	.LASF58
 2770 0864 01       		.byte	0x1
 2771 0865 AA       		.byte	0xaa
 2772 0866 6B000000 		.4byte	0x6b
 2773 086a 05       		.uleb128 0x5
 2774 086b 03       		.byte	0x3
 2775 086c 00000000 		.4byte	PowerMonitor_1_adcConfig
 2776 0870 19       		.uleb128 0x19
ARM GAS  C:\Users\user\AppData\Local\Temp\ccpxa6kC.s 			page 80


 2777 0871 51040000 		.4byte	.LASF59
 2778 0875 01       		.byte	0x1
 2779 0876 AB       		.byte	0xab
 2780 0877 6B000000 		.4byte	0x6b
 2781 087b 05       		.uleb128 0x5
 2782 087c 03       		.byte	0x3
 2783 087d 01000000 		.4byte	PowerMonitor_1_adcConvDoneConfig
 2784 0881 19       		.uleb128 0x19
 2785 0882 3D030000 		.4byte	.LASF60
 2786 0886 01       		.byte	0x1
 2787 0887 AC       		.byte	0xac
 2788 0888 6B000000 		.4byte	0x6b
 2789 088c 05       		.uleb128 0x5
 2790 088d 03       		.byte	0x3
 2791 088e 08000000 		.4byte	PowerMonitor_1_adcConfigCalPush
 2792 0892 19       		.uleb128 0x19
 2793 0893 160C0000 		.4byte	.LASF61
 2794 0897 01       		.byte	0x1
 2795 0898 E5       		.byte	0xe5
 2796 0899 6B000000 		.4byte	0x6b
 2797 089d 05       		.uleb128 0x5
 2798 089e 03       		.byte	0x3
 2799 089f 0A000000 		.4byte	PowerMonitor_1_justReset
 2800 08a3 19       		.uleb128 0x19
 2801 08a4 BE060000 		.4byte	.LASF62
 2802 08a8 01       		.byte	0x1
 2803 08a9 E7       		.byte	0xe7
 2804 08aa 6B000000 		.4byte	0x6b
 2805 08ae 05       		.uleb128 0x5
 2806 08af 03       		.byte	0x3
 2807 08b0 07000000 		.4byte	PowerMonitor_1_amuxChan
 2808 08b4 19       		.uleb128 0x19
 2809 08b5 2E000000 		.4byte	.LASF63
 2810 08b9 01       		.byte	0x1
 2811 08ba E9       		.byte	0xe9
 2812 08bb 6B000000 		.4byte	0x6b
 2813 08bf 05       		.uleb128 0x5
 2814 08c0 03       		.byte	0x3
 2815 08c1 05000000 		.4byte	PowerMonitor_1_dsmRegRestorePend
 2816 08c5 19       		.uleb128 0x19
 2817 08c6 5B0B0000 		.4byte	.LASF64
 2818 08ca 01       		.byte	0x1
 2819 08cb EA       		.byte	0xea
 2820 08cc 6B000000 		.4byte	0x6b
 2821 08d0 05       		.uleb128 0x5
 2822 08d1 03       		.byte	0x3
 2823 08d2 09000000 		.4byte	PowerMonitor_1_adcCfgPopPend
 2824 08d6 19       		.uleb128 0x19
 2825 08d7 11000000 		.4byte	.LASF65
 2826 08db 01       		.byte	0x1
 2827 08dc ED       		.byte	0xed
 2828 08dd 6B000000 		.4byte	0x6b
 2829 08e1 05       		.uleb128 0x5
 2830 08e2 03       		.byte	0x3
 2831 08e3 0B000000 		.4byte	PowerMonitor_1_faultDetected
 2832 08e7 1A       		.uleb128 0x1a
 2833 08e8 11070000 		.4byte	.LASF66
ARM GAS  C:\Users\user\AppData\Local\Temp\ccpxa6kC.s 			page 81


 2834 08ec 03       		.byte	0x3
 2835 08ed 22       		.byte	0x22
 2836 08ee 6B000000 		.4byte	0x6b
 2837 08f2 0A       		.uleb128 0xa
 2838 08f3 7A010000 		.4byte	0x17a
 2839 08f7 02090000 		.4byte	0x902
 2840 08fb 0B       		.uleb128 0xb
 2841 08fc E5000000 		.4byte	0xe5
 2842 0900 01       		.byte	0x1
 2843 0901 00       		.byte	0
 2844 0902 1B       		.uleb128 0x1b
 2845 0903 4E010000 		.4byte	.LASF67
 2846 0907 01       		.byte	0x1
 2847 0908 83       		.byte	0x83
 2848 0909 F2080000 		.4byte	0x8f2
 2849 090d 05       		.uleb128 0x5
 2850 090e 03       		.byte	0x3
 2851 090f 00000000 		.4byte	PowerMonitor_1_warnWin
 2852 0913 0A       		.uleb128 0xa
 2853 0914 E2010000 		.4byte	0x1e2
 2854 0918 23090000 		.4byte	0x923
 2855 091c 0B       		.uleb128 0xb
 2856 091d E5000000 		.4byte	0xe5
 2857 0921 01       		.byte	0x1
 2858 0922 00       		.byte	0
 2859 0923 1B       		.uleb128 0x1b
 2860 0924 1D0B0000 		.4byte	.LASF68
 2861 0928 01       		.byte	0x1
 2862 0929 84       		.byte	0x84
 2863 092a 13090000 		.4byte	0x913
 2864 092e 05       		.uleb128 0x5
 2865 092f 03       		.byte	0x3
 2866 0930 00000000 		.4byte	PowerMonitor_1_faultWin
 2867 0934 1B       		.uleb128 0x1b
 2868 0935 81030000 		.4byte	.LASF69
 2869 0939 01       		.byte	0x1
 2870 093a 33       		.byte	0x33
 2871 093b C8000000 		.4byte	0xc8
 2872 093f 05       		.uleb128 0x5
 2873 0940 03       		.byte	0x3
 2874 0941 00000000 		.4byte	PowerMonitor_1_adcConvNow
 2875 0945 1B       		.uleb128 0x1b
 2876 0946 DA0B0000 		.4byte	.LASF70
 2877 094a 01       		.byte	0x1
 2878 094b 34       		.byte	0x34
 2879 094c C8000000 		.4byte	0xc8
 2880 0950 05       		.uleb128 0x5
 2881 0951 03       		.byte	0x3
 2882 0952 00000000 		.4byte	PowerMonitor_1_adcConvNext
 2883 0956 1B       		.uleb128 0x1b
 2884 0957 F50B0000 		.4byte	.LASF71
 2885 095b 01       		.byte	0x1
 2886 095c 35       		.byte	0x35
 2887 095d C8000000 		.4byte	0xc8
 2888 0961 05       		.uleb128 0x5
 2889 0962 03       		.byte	0x3
 2890 0963 00000000 		.4byte	PowerMonitor_1_adcConvNextPreCal
ARM GAS  C:\Users\user\AppData\Local\Temp\ccpxa6kC.s 			page 82


 2891 0967 1B       		.uleb128 0x1b
 2892 0968 10060000 		.4byte	.LASF72
 2893 096c 01       		.byte	0x1
 2894 096d 36       		.byte	0x36
 2895 096e C8000000 		.4byte	0xc8
 2896 0972 05       		.uleb128 0x5
 2897 0973 03       		.byte	0x3
 2898 0974 00000000 		.4byte	PowerMonitor_1_adcConvCalType
 2899 0978 1B       		.uleb128 0x1b
 2900 0979 4D0A0000 		.4byte	.LASF73
 2901 097d 01       		.byte	0x1
 2902 097e 37       		.byte	0x37
 2903 097f C8000000 		.4byte	0xc8
 2904 0983 05       		.uleb128 0x5
 2905 0984 03       		.byte	0x3
 2906 0985 00000000 		.4byte	PowerMonitor_1_maxChannels
 2907 0989 1B       		.uleb128 0x1b
 2908 098a AD050000 		.4byte	.LASF74
 2909 098e 01       		.byte	0x1
 2910 098f 3F       		.byte	0x3f
 2911 0990 12020000 		.4byte	0x212
 2912 0994 05       		.uleb128 0x5
 2913 0995 03       		.byte	0x3
 2914 0996 00000000 		.4byte	PowerMonitor_1_adcZeroCalRawCfg1
 2915 099a 1B       		.uleb128 0x1b
 2916 099b D5090000 		.4byte	.LASF75
 2917 099f 01       		.byte	0x1
 2918 09a0 40       		.byte	0x40
 2919 09a1 12020000 		.4byte	0x212
 2920 09a5 05       		.uleb128 0x5
 2921 09a6 03       		.byte	0x3
 2922 09a7 00000000 		.4byte	PowerMonitor_1_adcGainCalRawCfg1
 2923 09ab 1B       		.uleb128 0x1b
 2924 09ac DD080000 		.4byte	.LASF76
 2925 09b0 01       		.byte	0x1
 2926 09b1 41       		.byte	0x41
 2927 09b2 12020000 		.4byte	0x212
 2928 09b6 05       		.uleb128 0x5
 2929 09b7 03       		.byte	0x3
 2930 09b8 00000000 		.4byte	PowerMonitor_1_adcSCCalRawCfg1
 2931 09bc 1B       		.uleb128 0x1b
 2932 09bd CE050000 		.4byte	.LASF77
 2933 09c1 01       		.byte	0x1
 2934 09c2 42       		.byte	0x42
 2935 09c3 12020000 		.4byte	0x212
 2936 09c7 05       		.uleb128 0x5
 2937 09c8 03       		.byte	0x3
 2938 09c9 00000000 		.4byte	PowerMonitor_1_adcZeroCalRawCfg2
 2939 09cd 1B       		.uleb128 0x1b
 2940 09ce 81020000 		.4byte	.LASF78
 2941 09d2 01       		.byte	0x1
 2942 09d3 43       		.byte	0x43
 2943 09d4 12020000 		.4byte	0x212
 2944 09d8 05       		.uleb128 0x5
 2945 09d9 03       		.byte	0x3
 2946 09da 00000000 		.4byte	PowerMonitor_1_adcGainCalRawCfg2a
 2947 09de 1B       		.uleb128 0x1b
ARM GAS  C:\Users\user\AppData\Local\Temp\ccpxa6kC.s 			page 83


 2948 09df A3020000 		.4byte	.LASF79
 2949 09e3 01       		.byte	0x1
 2950 09e4 44       		.byte	0x44
 2951 09e5 12020000 		.4byte	0x212
 2952 09e9 05       		.uleb128 0x5
 2953 09ea 03       		.byte	0x3
 2954 09eb 00000000 		.4byte	PowerMonitor_1_adcGainCalRawCfg2b
 2955 09ef 1B       		.uleb128 0x1b
 2956 09f0 EF050000 		.4byte	.LASF80
 2957 09f4 01       		.byte	0x1
 2958 09f5 45       		.byte	0x45
 2959 09f6 12020000 		.4byte	0x212
 2960 09fa 05       		.uleb128 0x5
 2961 09fb 03       		.byte	0x3
 2962 09fc 00000000 		.4byte	PowerMonitor_1_adcZeroCalRawCfg3
 2963 0a00 1B       		.uleb128 0x1b
 2964 0a01 F6090000 		.4byte	.LASF81
 2965 0a05 01       		.byte	0x1
 2966 0a06 46       		.byte	0x46
 2967 0a07 12020000 		.4byte	0x212
 2968 0a0b 05       		.uleb128 0x5
 2969 0a0c 03       		.byte	0x3
 2970 0a0d 00000000 		.4byte	PowerMonitor_1_adcGainCalRawCfg3
 2971 0a11 1B       		.uleb128 0x1b
 2972 0a12 8B070000 		.4byte	.LASF82
 2973 0a16 01       		.byte	0x1
 2974 0a17 47       		.byte	0x47
 2975 0a18 12020000 		.4byte	0x212
 2976 0a1c 05       		.uleb128 0x5
 2977 0a1d 03       		.byte	0x3
 2978 0a1e 00000000 		.4byte	PowerMonitor_1_adcSCCalRawCfg3
 2979 0a22 1A       		.uleb128 0x1a
 2980 0a23 930A0000 		.4byte	.LASF83
 2981 0a27 03       		.byte	0x3
 2982 0a28 69       		.byte	0x69
 2983 0a29 D9000000 		.4byte	0xd9
 2984 0a2d 1A       		.uleb128 0x1a
 2985 0a2e F8070000 		.4byte	.LASF84
 2986 0a32 03       		.byte	0x3
 2987 0a33 6A       		.byte	0x6a
 2988 0a34 D9000000 		.4byte	0xd9
 2989 0a38 1A       		.uleb128 0x1a
 2990 0a39 00010000 		.4byte	.LASF85
 2991 0a3d 03       		.byte	0x3
 2992 0a3e 6D       		.byte	0x6d
 2993 0a3f 6B000000 		.4byte	0x6b
 2994 0a43 1A       		.uleb128 0x1a
 2995 0a44 1B010000 		.4byte	.LASF86
 2996 0a48 03       		.byte	0x3
 2997 0a49 6E       		.byte	0x6e
 2998 0a4a 6B000000 		.4byte	0x6b
 2999 0a4e 1A       		.uleb128 0x1a
 3000 0a4f BF040000 		.4byte	.LASF87
 3001 0a53 03       		.byte	0x3
 3002 0a54 71       		.byte	0x71
 3003 0a55 C8000000 		.4byte	0xc8
 3004 0a59 1A       		.uleb128 0x1a
ARM GAS  C:\Users\user\AppData\Local\Temp\ccpxa6kC.s 			page 84


 3005 0a5a 010B0000 		.4byte	.LASF88
 3006 0a5e 03       		.byte	0x3
 3007 0a5f 72       		.byte	0x72
 3008 0a60 C8000000 		.4byte	0xc8
 3009 0a64 1A       		.uleb128 0x1a
 3010 0a65 B6070000 		.4byte	.LASF89
 3011 0a69 03       		.byte	0x3
 3012 0a6a 75       		.byte	0x75
 3013 0a6b C8000000 		.4byte	0xc8
 3014 0a6f 1A       		.uleb128 0x1a
 3015 0a70 2E070000 		.4byte	.LASF90
 3016 0a74 03       		.byte	0x3
 3017 0a75 76       		.byte	0x76
 3018 0a76 C8000000 		.4byte	0xc8
 3019 0a7a 1A       		.uleb128 0x1a
 3020 0a7b DC060000 		.4byte	.LASF91
 3021 0a7f 03       		.byte	0x3
 3022 0a80 79       		.byte	0x79
 3023 0a81 D9000000 		.4byte	0xd9
 3024 0a85 1A       		.uleb128 0x1a
 3025 0a86 72040000 		.4byte	.LASF92
 3026 0a8a 03       		.byte	0x3
 3027 0a8b 7A       		.byte	0x7a
 3028 0a8c D9000000 		.4byte	0xd9
 3029 0a90 1A       		.uleb128 0x1a
 3030 0a91 21030000 		.4byte	.LASF93
 3031 0a95 03       		.byte	0x3
 3032 0a96 7B       		.byte	0x7b
 3033 0a97 D9000000 		.4byte	0xd9
 3034 0a9b 1A       		.uleb128 0x1a
 3035 0a9c 10080000 		.4byte	.LASF94
 3036 0aa0 03       		.byte	0x3
 3037 0aa1 7C       		.byte	0x7c
 3038 0aa2 D9000000 		.4byte	0xd9
 3039 0aa6 1A       		.uleb128 0x1a
 3040 0aa7 A3010000 		.4byte	.LASF95
 3041 0aab 03       		.byte	0x3
 3042 0aac 7D       		.byte	0x7d
 3043 0aad D9000000 		.4byte	0xd9
 3044 0ab1 1A       		.uleb128 0x1a
 3045 0ab2 8E040000 		.4byte	.LASF96
 3046 0ab6 03       		.byte	0x3
 3047 0ab7 7E       		.byte	0x7e
 3048 0ab8 D9000000 		.4byte	0xd9
 3049 0abc 1A       		.uleb128 0x1a
 3050 0abd 1E050000 		.4byte	.LASF97
 3051 0ac1 03       		.byte	0x3
 3052 0ac2 87       		.byte	0x87
 3053 0ac3 8F000000 		.4byte	0x8f
 3054 0ac7 1A       		.uleb128 0x1a
 3055 0ac8 39050000 		.4byte	.LASF98
 3056 0acc 03       		.byte	0x3
 3057 0acd 90       		.byte	0x90
 3058 0ace 8F000000 		.4byte	0x8f
 3059 0ad2 1A       		.uleb128 0x1a
 3060 0ad3 54050000 		.4byte	.LASF99
 3061 0ad7 03       		.byte	0x3
ARM GAS  C:\Users\user\AppData\Local\Temp\ccpxa6kC.s 			page 85


 3062 0ad8 99       		.byte	0x99
 3063 0ad9 8F000000 		.4byte	0x8f
 3064 0add 0A       		.uleb128 0xa
 3065 0ade 12010000 		.4byte	0x112
 3066 0ae2 ED0A0000 		.4byte	0xaed
 3067 0ae6 0B       		.uleb128 0xb
 3068 0ae7 E5000000 		.4byte	0xe5
 3069 0aeb 01       		.byte	0x1
 3070 0aec 00       		.byte	0
 3071 0aed 1B       		.uleb128 0x1b
 3072 0aee 2E060000 		.4byte	.LASF100
 3073 0af2 01       		.byte	0x1
 3074 0af3 57       		.byte	0x57
 3075 0af4 DD0A0000 		.4byte	0xadd
 3076 0af8 05       		.uleb128 0x5
 3077 0af9 03       		.byte	0x3
 3078 0afa 00000000 		.4byte	PowerMonitor_1_voltCtl
 3079 0afe 1B       		.uleb128 0x1b
 3080 0aff 60060000 		.4byte	.LASF101
 3081 0b03 01       		.byte	0x1
 3082 0b04 6A       		.byte	0x6a
 3083 0b05 DD0A0000 		.4byte	0xadd
 3084 0b09 05       		.uleb128 0x5
 3085 0b0a 03       		.byte	0x3
 3086 0b0b 00000000 		.4byte	PowerMonitor_1_ampCtl
 3087 0b0f 0A       		.uleb128 0xa
 3088 0b10 6B000000 		.4byte	0x6b
 3089 0b14 1A0B0000 		.4byte	0xb1a
 3090 0b18 1C       		.uleb128 0x1c
 3091 0b19 00       		.byte	0
 3092 0b1a 1D       		.uleb128 0x1d
 3093 0b1b 45060000 		.4byte	.LASF102
 3094 0b1f 03       		.byte	0x3
 3095 0b20 0A01     		.2byte	0x10a
 3096 0b22 0F0B0000 		.4byte	0xb0f
 3097 0b26 1D       		.uleb128 0x1d
 3098 0b27 84060000 		.4byte	.LASF103
 3099 0b2b 03       		.byte	0x3
 3100 0b2c 0D01     		.2byte	0x10d
 3101 0b2e 0F0B0000 		.4byte	0xb0f
 3102 0b32 1D       		.uleb128 0x1d
 3103 0b33 4B090000 		.4byte	.LASF104
 3104 0b37 03       		.byte	0x3
 3105 0b38 0E01     		.2byte	0x10e
 3106 0b3a 0F0B0000 		.4byte	0xb0f
 3107 0b3e 1B       		.uleb128 0x1b
 3108 0b3f 94000000 		.4byte	.LASF105
 3109 0b43 01       		.byte	0x1
 3110 0b44 31       		.byte	0x31
 3111 0b45 C8000000 		.4byte	0xc8
 3112 0b49 05       		.uleb128 0x5
 3113 0b4a 03       		.byte	0x3
 3114 0b4b 00000000 		.4byte	PowerMonitor_1_adcStartFalseCnt
 3115 0b4f 1B       		.uleb128 0x1b
 3116 0b50 4F070000 		.4byte	.LASF106
 3117 0b54 01       		.byte	0x1
 3118 0b55 32       		.byte	0x32
ARM GAS  C:\Users\user\AppData\Local\Temp\ccpxa6kC.s 			page 86


 3119 0b56 C8000000 		.4byte	0xc8
 3120 0b5a 05       		.uleb128 0x5
 3121 0b5b 03       		.byte	0x3
 3122 0b5c 00000000 		.4byte	PowerMonitor_1_PMoutEn
 3123 0b60 0A       		.uleb128 0xa
 3124 0b61 1C020000 		.4byte	0x21c
 3125 0b65 700B0000 		.4byte	0xb70
 3126 0b69 0B       		.uleb128 0xb
 3127 0b6a E5000000 		.4byte	0xe5
 3128 0b6e 01       		.byte	0x1
 3129 0b6f 00       		.byte	0
 3130 0b70 1B       		.uleb128 0x1b
 3131 0b71 5A000000 		.4byte	.LASF107
 3132 0b75 01       		.byte	0x1
 3133 0b76 54       		.byte	0x54
 3134 0b77 600B0000 		.4byte	0xb60
 3135 0b7b 05       		.uleb128 0x5
 3136 0b7c 03       		.byte	0x3
 3137 0b7d 00000000 		.4byte	PowerMonitor_1_voltFilt
 3138 0b81 0A       		.uleb128 0xa
 3139 0b82 41020000 		.4byte	0x241
 3140 0b86 910B0000 		.4byte	0xb91
 3141 0b8a 0B       		.uleb128 0xb
 3142 0b8b E5000000 		.4byte	0xe5
 3143 0b8f 01       		.byte	0x1
 3144 0b90 00       		.byte	0
 3145 0b91 1B       		.uleb128 0x1b
 3146 0b92 B4000000 		.4byte	.LASF108
 3147 0b96 01       		.byte	0x1
 3148 0b97 67       		.byte	0x67
 3149 0b98 810B0000 		.4byte	0xb81
 3150 0b9c 05       		.uleb128 0x5
 3151 0b9d 03       		.byte	0x3
 3152 0b9e 00000000 		.4byte	PowerMonitor_1_ampFilt
 3153 0ba2 1B       		.uleb128 0x1b
 3154 0ba3 FF040000 		.4byte	.LASF109
 3155 0ba7 01       		.byte	0x1
 3156 0ba8 87       		.byte	0x87
 3157 0ba9 6B000000 		.4byte	0x6b
 3158 0bad 05       		.uleb128 0x5
 3159 0bae 03       		.byte	0x3
 3160 0baf 00000000 		.4byte	PowerMonitor_1_lastVoltageChan
 3161 0bb3 1B       		.uleb128 0x1b
 3162 0bb4 9B030000 		.4byte	.LASF110
 3163 0bb8 01       		.byte	0x1
 3164 0bb9 88       		.byte	0x88
 3165 0bba 6B000000 		.4byte	0x6b
 3166 0bbe 05       		.uleb128 0x5
 3167 0bbf 03       		.byte	0x3
 3168 0bc0 00000000 		.4byte	PowerMonitor_1_lastCurrentChan
 3169 0bc4 1B       		.uleb128 0x1b
 3170 0bc5 EB020000 		.4byte	.LASF111
 3171 0bc9 01       		.byte	0x1
 3172 0bca 89       		.byte	0x89
 3173 0bcb 6B000000 		.4byte	0x6b
 3174 0bcf 05       		.uleb128 0x5
 3175 0bd0 03       		.byte	0x3
ARM GAS  C:\Users\user\AppData\Local\Temp\ccpxa6kC.s 			page 87


 3176 0bd1 00000000 		.4byte	PowerMonitor_1_lastAuxVoltChan
 3177 0bd5 1B       		.uleb128 0x1b
 3178 0bd6 680A0000 		.4byte	.LASF112
 3179 0bda 01       		.byte	0x1
 3180 0bdb 91       		.byte	0x91
 3181 0bdc 6B000000 		.4byte	0x6b
 3182 0be0 05       		.uleb128 0x5
 3183 0be1 03       		.byte	0x3
 3184 0be2 00000000 		.4byte	PowerMonitor_1_index
 3185 0be6 1B       		.uleb128 0x1b
 3186 0be7 35010000 		.4byte	.LASF113
 3187 0beb 01       		.byte	0x1
 3188 0bec EF       		.byte	0xef
 3189 0bed AE070000 		.4byte	0x7ae
 3190 0bf1 05       		.uleb128 0x5
 3191 0bf2 03       		.byte	0x3
 3192 0bf3 00000000 		.4byte	PowerMonitor_1_pCalStore
 3193 0bf7 1E       		.uleb128 0x1e
 3194 0bf8 B3080000 		.4byte	.LASF114
 3195 0bfc B3080000 		.4byte	.LASF114
 3196 0c00 04       		.byte	0x4
 3197 0c01 28       		.byte	0x28
 3198 0c02 1E       		.uleb128 0x1e
 3199 0c03 D1000000 		.4byte	.LASF115
 3200 0c07 D1000000 		.4byte	.LASF115
 3201 0c0b 05       		.byte	0x5
 3202 0c0c 28       		.byte	0x28
 3203 0c0d 1E       		.uleb128 0x1e
 3204 0c0e B30B0000 		.4byte	.LASF116
 3205 0c12 B30B0000 		.4byte	.LASF116
 3206 0c16 06       		.byte	0x6
 3207 0c17 64       		.byte	0x64
 3208 0c18 1E       		.uleb128 0x1e
 3209 0c19 9E050000 		.4byte	.LASF117
 3210 0c1d 9E050000 		.4byte	.LASF117
 3211 0c21 07       		.byte	0x7
 3212 0c22 88       		.byte	0x88
 3213 0c23 1E       		.uleb128 0x1e
 3214 0c24 8D0B0000 		.4byte	.LASF118
 3215 0c28 8D0B0000 		.4byte	.LASF118
 3216 0c2c 06       		.byte	0x6
 3217 0c2d 49       		.byte	0x49
 3218 0c2e 1E       		.uleb128 0x1e
 3219 0c2f 9F060000 		.4byte	.LASF119
 3220 0c33 9F060000 		.4byte	.LASF119
 3221 0c37 06       		.byte	0x6
 3222 0c38 5A       		.byte	0x5a
 3223 0c39 1E       		.uleb128 0x1e
 3224 0c3a 65010000 		.4byte	.LASF120
 3225 0c3e 65010000 		.4byte	.LASF120
 3226 0c42 06       		.byte	0x6
 3227 0c43 52       		.byte	0x52
 3228 0c44 1E       		.uleb128 0x1e
 3229 0c45 00000000 		.4byte	.LASF121
 3230 0c49 00000000 		.4byte	.LASF121
 3231 0c4d 07       		.byte	0x7
 3232 0c4e 8B       		.byte	0x8b
ARM GAS  C:\Users\user\AppData\Local\Temp\ccpxa6kC.s 			page 88


 3233 0c4f 00       		.byte	0
 3234              		.section	.debug_abbrev,"",%progbits
 3235              	.Ldebug_abbrev0:
 3236 0000 01       		.uleb128 0x1
 3237 0001 11       		.uleb128 0x11
 3238 0002 01       		.byte	0x1
 3239 0003 25       		.uleb128 0x25
 3240 0004 0E       		.uleb128 0xe
 3241 0005 13       		.uleb128 0x13
 3242 0006 0B       		.uleb128 0xb
 3243 0007 03       		.uleb128 0x3
 3244 0008 0E       		.uleb128 0xe
 3245 0009 1B       		.uleb128 0x1b
 3246 000a 0E       		.uleb128 0xe
 3247 000b 55       		.uleb128 0x55
 3248 000c 17       		.uleb128 0x17
 3249 000d 11       		.uleb128 0x11
 3250 000e 01       		.uleb128 0x1
 3251 000f 10       		.uleb128 0x10
 3252 0010 17       		.uleb128 0x17
 3253 0011 00       		.byte	0
 3254 0012 00       		.byte	0
 3255 0013 02       		.uleb128 0x2
 3256 0014 24       		.uleb128 0x24
 3257 0015 00       		.byte	0
 3258 0016 0B       		.uleb128 0xb
 3259 0017 0B       		.uleb128 0xb
 3260 0018 3E       		.uleb128 0x3e
 3261 0019 0B       		.uleb128 0xb
 3262 001a 03       		.uleb128 0x3
 3263 001b 0E       		.uleb128 0xe
 3264 001c 00       		.byte	0
 3265 001d 00       		.byte	0
 3266 001e 03       		.uleb128 0x3
 3267 001f 24       		.uleb128 0x24
 3268 0020 00       		.byte	0
 3269 0021 0B       		.uleb128 0xb
 3270 0022 0B       		.uleb128 0xb
 3271 0023 3E       		.uleb128 0x3e
 3272 0024 0B       		.uleb128 0xb
 3273 0025 03       		.uleb128 0x3
 3274 0026 08       		.uleb128 0x8
 3275 0027 00       		.byte	0
 3276 0028 00       		.byte	0
 3277 0029 04       		.uleb128 0x4
 3278 002a 16       		.uleb128 0x16
 3279 002b 00       		.byte	0
 3280 002c 03       		.uleb128 0x3
 3281 002d 0E       		.uleb128 0xe
 3282 002e 3A       		.uleb128 0x3a
 3283 002f 0B       		.uleb128 0xb
 3284 0030 3B       		.uleb128 0x3b
 3285 0031 05       		.uleb128 0x5
 3286 0032 49       		.uleb128 0x49
 3287 0033 13       		.uleb128 0x13
 3288 0034 00       		.byte	0
 3289 0035 00       		.byte	0
ARM GAS  C:\Users\user\AppData\Local\Temp\ccpxa6kC.s 			page 89


 3290 0036 05       		.uleb128 0x5
 3291 0037 35       		.uleb128 0x35
 3292 0038 00       		.byte	0
 3293 0039 49       		.uleb128 0x49
 3294 003a 13       		.uleb128 0x13
 3295 003b 00       		.byte	0
 3296 003c 00       		.byte	0
 3297 003d 06       		.uleb128 0x6
 3298 003e 13       		.uleb128 0x13
 3299 003f 01       		.byte	0x1
 3300 0040 0B       		.uleb128 0xb
 3301 0041 0B       		.uleb128 0xb
 3302 0042 3A       		.uleb128 0x3a
 3303 0043 0B       		.uleb128 0xb
 3304 0044 3B       		.uleb128 0x3b
 3305 0045 0B       		.uleb128 0xb
 3306 0046 01       		.uleb128 0x1
 3307 0047 13       		.uleb128 0x13
 3308 0048 00       		.byte	0
 3309 0049 00       		.byte	0
 3310 004a 07       		.uleb128 0x7
 3311 004b 0D       		.uleb128 0xd
 3312 004c 00       		.byte	0
 3313 004d 03       		.uleb128 0x3
 3314 004e 08       		.uleb128 0x8
 3315 004f 3A       		.uleb128 0x3a
 3316 0050 0B       		.uleb128 0xb
 3317 0051 3B       		.uleb128 0x3b
 3318 0052 0B       		.uleb128 0xb
 3319 0053 49       		.uleb128 0x49
 3320 0054 13       		.uleb128 0x13
 3321 0055 38       		.uleb128 0x38
 3322 0056 0B       		.uleb128 0xb
 3323 0057 00       		.byte	0
 3324 0058 00       		.byte	0
 3325 0059 08       		.uleb128 0x8
 3326 005a 0D       		.uleb128 0xd
 3327 005b 00       		.byte	0
 3328 005c 03       		.uleb128 0x3
 3329 005d 0E       		.uleb128 0xe
 3330 005e 3A       		.uleb128 0x3a
 3331 005f 0B       		.uleb128 0xb
 3332 0060 3B       		.uleb128 0x3b
 3333 0061 0B       		.uleb128 0xb
 3334 0062 49       		.uleb128 0x49
 3335 0063 13       		.uleb128 0x13
 3336 0064 38       		.uleb128 0x38
 3337 0065 0B       		.uleb128 0xb
 3338 0066 00       		.byte	0
 3339 0067 00       		.byte	0
 3340 0068 09       		.uleb128 0x9
 3341 0069 16       		.uleb128 0x16
 3342 006a 00       		.byte	0
 3343 006b 03       		.uleb128 0x3
 3344 006c 0E       		.uleb128 0xe
 3345 006d 3A       		.uleb128 0x3a
 3346 006e 0B       		.uleb128 0xb
ARM GAS  C:\Users\user\AppData\Local\Temp\ccpxa6kC.s 			page 90


 3347 006f 3B       		.uleb128 0x3b
 3348 0070 0B       		.uleb128 0xb
 3349 0071 49       		.uleb128 0x49
 3350 0072 13       		.uleb128 0x13
 3351 0073 00       		.byte	0
 3352 0074 00       		.byte	0
 3353 0075 0A       		.uleb128 0xa
 3354 0076 01       		.uleb128 0x1
 3355 0077 01       		.byte	0x1
 3356 0078 49       		.uleb128 0x49
 3357 0079 13       		.uleb128 0x13
 3358 007a 01       		.uleb128 0x1
 3359 007b 13       		.uleb128 0x13
 3360 007c 00       		.byte	0
 3361 007d 00       		.byte	0
 3362 007e 0B       		.uleb128 0xb
 3363 007f 21       		.uleb128 0x21
 3364 0080 00       		.byte	0
 3365 0081 49       		.uleb128 0x49
 3366 0082 13       		.uleb128 0x13
 3367 0083 2F       		.uleb128 0x2f
 3368 0084 0B       		.uleb128 0xb
 3369 0085 00       		.byte	0
 3370 0086 00       		.byte	0
 3371 0087 0C       		.uleb128 0xc
 3372 0088 2E       		.uleb128 0x2e
 3373 0089 00       		.byte	0
 3374 008a 03       		.uleb128 0x3
 3375 008b 0E       		.uleb128 0xe
 3376 008c 3A       		.uleb128 0x3a
 3377 008d 0B       		.uleb128 0xb
 3378 008e 3B       		.uleb128 0x3b
 3379 008f 05       		.uleb128 0x5
 3380 0090 27       		.uleb128 0x27
 3381 0091 19       		.uleb128 0x19
 3382 0092 11       		.uleb128 0x11
 3383 0093 01       		.uleb128 0x1
 3384 0094 12       		.uleb128 0x12
 3385 0095 06       		.uleb128 0x6
 3386 0096 40       		.uleb128 0x40
 3387 0097 18       		.uleb128 0x18
 3388 0098 9742     		.uleb128 0x2117
 3389 009a 19       		.uleb128 0x19
 3390 009b 00       		.byte	0
 3391 009c 00       		.byte	0
 3392 009d 0D       		.uleb128 0xd
 3393 009e 2E       		.uleb128 0x2e
 3394 009f 01       		.byte	0x1
 3395 00a0 03       		.uleb128 0x3
 3396 00a1 0E       		.uleb128 0xe
 3397 00a2 3A       		.uleb128 0x3a
 3398 00a3 0B       		.uleb128 0xb
 3399 00a4 3B       		.uleb128 0x3b
 3400 00a5 05       		.uleb128 0x5
 3401 00a6 27       		.uleb128 0x27
 3402 00a7 19       		.uleb128 0x19
 3403 00a8 49       		.uleb128 0x49
ARM GAS  C:\Users\user\AppData\Local\Temp\ccpxa6kC.s 			page 91


 3404 00a9 13       		.uleb128 0x13
 3405 00aa 11       		.uleb128 0x11
 3406 00ab 01       		.uleb128 0x1
 3407 00ac 12       		.uleb128 0x12
 3408 00ad 06       		.uleb128 0x6
 3409 00ae 40       		.uleb128 0x40
 3410 00af 18       		.uleb128 0x18
 3411 00b0 9742     		.uleb128 0x2117
 3412 00b2 19       		.uleb128 0x19
 3413 00b3 01       		.uleb128 0x1
 3414 00b4 13       		.uleb128 0x13
 3415 00b5 00       		.byte	0
 3416 00b6 00       		.byte	0
 3417 00b7 0E       		.uleb128 0xe
 3418 00b8 34       		.uleb128 0x34
 3419 00b9 00       		.byte	0
 3420 00ba 03       		.uleb128 0x3
 3421 00bb 08       		.uleb128 0x8
 3422 00bc 3A       		.uleb128 0x3a
 3423 00bd 0B       		.uleb128 0xb
 3424 00be 3B       		.uleb128 0x3b
 3425 00bf 05       		.uleb128 0x5
 3426 00c0 49       		.uleb128 0x49
 3427 00c1 13       		.uleb128 0x13
 3428 00c2 1C       		.uleb128 0x1c
 3429 00c3 0B       		.uleb128 0xb
 3430 00c4 00       		.byte	0
 3431 00c5 00       		.byte	0
 3432 00c6 0F       		.uleb128 0xf
 3433 00c7 2E       		.uleb128 0x2e
 3434 00c8 01       		.byte	0x1
 3435 00c9 03       		.uleb128 0x3
 3436 00ca 0E       		.uleb128 0xe
 3437 00cb 3A       		.uleb128 0x3a
 3438 00cc 0B       		.uleb128 0xb
 3439 00cd 3B       		.uleb128 0x3b
 3440 00ce 05       		.uleb128 0x5
 3441 00cf 27       		.uleb128 0x27
 3442 00d0 19       		.uleb128 0x19
 3443 00d1 11       		.uleb128 0x11
 3444 00d2 01       		.uleb128 0x1
 3445 00d3 12       		.uleb128 0x12
 3446 00d4 06       		.uleb128 0x6
 3447 00d5 40       		.uleb128 0x40
 3448 00d6 18       		.uleb128 0x18
 3449 00d7 9742     		.uleb128 0x2117
 3450 00d9 19       		.uleb128 0x19
 3451 00da 01       		.uleb128 0x1
 3452 00db 13       		.uleb128 0x13
 3453 00dc 00       		.byte	0
 3454 00dd 00       		.byte	0
 3455 00de 10       		.uleb128 0x10
 3456 00df 898201   		.uleb128 0x4109
 3457 00e2 00       		.byte	0
 3458 00e3 11       		.uleb128 0x11
 3459 00e4 01       		.uleb128 0x1
 3460 00e5 31       		.uleb128 0x31
ARM GAS  C:\Users\user\AppData\Local\Temp\ccpxa6kC.s 			page 92


 3461 00e6 13       		.uleb128 0x13
 3462 00e7 00       		.byte	0
 3463 00e8 00       		.byte	0
 3464 00e9 11       		.uleb128 0x11
 3465 00ea 898201   		.uleb128 0x4109
 3466 00ed 01       		.byte	0x1
 3467 00ee 11       		.uleb128 0x11
 3468 00ef 01       		.uleb128 0x1
 3469 00f0 31       		.uleb128 0x31
 3470 00f1 13       		.uleb128 0x13
 3471 00f2 01       		.uleb128 0x1
 3472 00f3 13       		.uleb128 0x13
 3473 00f4 00       		.byte	0
 3474 00f5 00       		.byte	0
 3475 00f6 12       		.uleb128 0x12
 3476 00f7 8A8201   		.uleb128 0x410a
 3477 00fa 00       		.byte	0
 3478 00fb 02       		.uleb128 0x2
 3479 00fc 18       		.uleb128 0x18
 3480 00fd 9142     		.uleb128 0x2111
 3481 00ff 18       		.uleb128 0x18
 3482 0100 00       		.byte	0
 3483 0101 00       		.byte	0
 3484 0102 13       		.uleb128 0x13
 3485 0103 2E       		.uleb128 0x2e
 3486 0104 01       		.byte	0x1
 3487 0105 3F       		.uleb128 0x3f
 3488 0106 19       		.uleb128 0x19
 3489 0107 03       		.uleb128 0x3
 3490 0108 0E       		.uleb128 0xe
 3491 0109 3A       		.uleb128 0x3a
 3492 010a 0B       		.uleb128 0xb
 3493 010b 3B       		.uleb128 0x3b
 3494 010c 05       		.uleb128 0x5
 3495 010d 27       		.uleb128 0x27
 3496 010e 19       		.uleb128 0x19
 3497 010f 11       		.uleb128 0x11
 3498 0110 01       		.uleb128 0x1
 3499 0111 12       		.uleb128 0x12
 3500 0112 06       		.uleb128 0x6
 3501 0113 40       		.uleb128 0x40
 3502 0114 18       		.uleb128 0x18
 3503 0115 9742     		.uleb128 0x2117
 3504 0117 19       		.uleb128 0x19
 3505 0118 01       		.uleb128 0x1
 3506 0119 13       		.uleb128 0x13
 3507 011a 00       		.byte	0
 3508 011b 00       		.byte	0
 3509 011c 14       		.uleb128 0x14
 3510 011d 34       		.uleb128 0x34
 3511 011e 00       		.byte	0
 3512 011f 03       		.uleb128 0x3
 3513 0120 0E       		.uleb128 0xe
 3514 0121 3A       		.uleb128 0x3a
 3515 0122 0B       		.uleb128 0xb
 3516 0123 3B       		.uleb128 0x3b
 3517 0124 05       		.uleb128 0x5
ARM GAS  C:\Users\user\AppData\Local\Temp\ccpxa6kC.s 			page 93


 3518 0125 49       		.uleb128 0x49
 3519 0126 13       		.uleb128 0x13
 3520 0127 02       		.uleb128 0x2
 3521 0128 17       		.uleb128 0x17
 3522 0129 00       		.byte	0
 3523 012a 00       		.byte	0
 3524 012b 15       		.uleb128 0x15
 3525 012c 0B       		.uleb128 0xb
 3526 012d 01       		.byte	0x1
 3527 012e 11       		.uleb128 0x11
 3528 012f 01       		.uleb128 0x1
 3529 0130 12       		.uleb128 0x12
 3530 0131 06       		.uleb128 0x6
 3531 0132 01       		.uleb128 0x1
 3532 0133 13       		.uleb128 0x13
 3533 0134 00       		.byte	0
 3534 0135 00       		.byte	0
 3535 0136 16       		.uleb128 0x16
 3536 0137 34       		.uleb128 0x34
 3537 0138 00       		.byte	0
 3538 0139 03       		.uleb128 0x3
 3539 013a 08       		.uleb128 0x8
 3540 013b 3A       		.uleb128 0x3a
 3541 013c 0B       		.uleb128 0xb
 3542 013d 3B       		.uleb128 0x3b
 3543 013e 05       		.uleb128 0x5
 3544 013f 49       		.uleb128 0x49
 3545 0140 13       		.uleb128 0x13
 3546 0141 02       		.uleb128 0x2
 3547 0142 17       		.uleb128 0x17
 3548 0143 00       		.byte	0
 3549 0144 00       		.byte	0
 3550 0145 17       		.uleb128 0x17
 3551 0146 0F       		.uleb128 0xf
 3552 0147 00       		.byte	0
 3553 0148 0B       		.uleb128 0xb
 3554 0149 0B       		.uleb128 0xb
 3555 014a 49       		.uleb128 0x49
 3556 014b 13       		.uleb128 0x13
 3557 014c 00       		.byte	0
 3558 014d 00       		.byte	0
 3559 014e 18       		.uleb128 0x18
 3560 014f 898201   		.uleb128 0x4109
 3561 0152 01       		.byte	0x1
 3562 0153 11       		.uleb128 0x11
 3563 0154 01       		.uleb128 0x1
 3564 0155 31       		.uleb128 0x31
 3565 0156 13       		.uleb128 0x13
 3566 0157 00       		.byte	0
 3567 0158 00       		.byte	0
 3568 0159 19       		.uleb128 0x19
 3569 015a 34       		.uleb128 0x34
 3570 015b 00       		.byte	0
 3571 015c 03       		.uleb128 0x3
 3572 015d 0E       		.uleb128 0xe
 3573 015e 3A       		.uleb128 0x3a
 3574 015f 0B       		.uleb128 0xb
ARM GAS  C:\Users\user\AppData\Local\Temp\ccpxa6kC.s 			page 94


 3575 0160 3B       		.uleb128 0x3b
 3576 0161 0B       		.uleb128 0xb
 3577 0162 49       		.uleb128 0x49
 3578 0163 13       		.uleb128 0x13
 3579 0164 02       		.uleb128 0x2
 3580 0165 18       		.uleb128 0x18
 3581 0166 00       		.byte	0
 3582 0167 00       		.byte	0
 3583 0168 1A       		.uleb128 0x1a
 3584 0169 34       		.uleb128 0x34
 3585 016a 00       		.byte	0
 3586 016b 03       		.uleb128 0x3
 3587 016c 0E       		.uleb128 0xe
 3588 016d 3A       		.uleb128 0x3a
 3589 016e 0B       		.uleb128 0xb
 3590 016f 3B       		.uleb128 0x3b
 3591 0170 0B       		.uleb128 0xb
 3592 0171 49       		.uleb128 0x49
 3593 0172 13       		.uleb128 0x13
 3594 0173 3F       		.uleb128 0x3f
 3595 0174 19       		.uleb128 0x19
 3596 0175 3C       		.uleb128 0x3c
 3597 0176 19       		.uleb128 0x19
 3598 0177 00       		.byte	0
 3599 0178 00       		.byte	0
 3600 0179 1B       		.uleb128 0x1b
 3601 017a 34       		.uleb128 0x34
 3602 017b 00       		.byte	0
 3603 017c 03       		.uleb128 0x3
 3604 017d 0E       		.uleb128 0xe
 3605 017e 3A       		.uleb128 0x3a
 3606 017f 0B       		.uleb128 0xb
 3607 0180 3B       		.uleb128 0x3b
 3608 0181 0B       		.uleb128 0xb
 3609 0182 49       		.uleb128 0x49
 3610 0183 13       		.uleb128 0x13
 3611 0184 3F       		.uleb128 0x3f
 3612 0185 19       		.uleb128 0x19
 3613 0186 02       		.uleb128 0x2
 3614 0187 18       		.uleb128 0x18
 3615 0188 00       		.byte	0
 3616 0189 00       		.byte	0
 3617 018a 1C       		.uleb128 0x1c
 3618 018b 21       		.uleb128 0x21
 3619 018c 00       		.byte	0
 3620 018d 00       		.byte	0
 3621 018e 00       		.byte	0
 3622 018f 1D       		.uleb128 0x1d
 3623 0190 34       		.uleb128 0x34
 3624 0191 00       		.byte	0
 3625 0192 03       		.uleb128 0x3
 3626 0193 0E       		.uleb128 0xe
 3627 0194 3A       		.uleb128 0x3a
 3628 0195 0B       		.uleb128 0xb
 3629 0196 3B       		.uleb128 0x3b
 3630 0197 05       		.uleb128 0x5
 3631 0198 49       		.uleb128 0x49
ARM GAS  C:\Users\user\AppData\Local\Temp\ccpxa6kC.s 			page 95


 3632 0199 13       		.uleb128 0x13
 3633 019a 3F       		.uleb128 0x3f
 3634 019b 19       		.uleb128 0x19
 3635 019c 3C       		.uleb128 0x3c
 3636 019d 19       		.uleb128 0x19
 3637 019e 00       		.byte	0
 3638 019f 00       		.byte	0
 3639 01a0 1E       		.uleb128 0x1e
 3640 01a1 2E       		.uleb128 0x2e
 3641 01a2 00       		.byte	0
 3642 01a3 3F       		.uleb128 0x3f
 3643 01a4 19       		.uleb128 0x19
 3644 01a5 3C       		.uleb128 0x3c
 3645 01a6 19       		.uleb128 0x19
 3646 01a7 6E       		.uleb128 0x6e
 3647 01a8 0E       		.uleb128 0xe
 3648 01a9 03       		.uleb128 0x3
 3649 01aa 0E       		.uleb128 0xe
 3650 01ab 3A       		.uleb128 0x3a
 3651 01ac 0B       		.uleb128 0xb
 3652 01ad 3B       		.uleb128 0x3b
 3653 01ae 0B       		.uleb128 0xb
 3654 01af 00       		.byte	0
 3655 01b0 00       		.byte	0
 3656 01b1 00       		.byte	0
 3657              		.section	.debug_loc,"",%progbits
 3658              	.Ldebug_loc0:
 3659              	.LLST0:
 3660 0000 08000000 		.4byte	.LVL22
 3661 0004 A6030000 		.4byte	.LVL71
 3662 0008 0100     		.2byte	0x1
 3663 000a 55       		.byte	0x55
 3664 000b A8030000 		.4byte	.LVL72
 3665 000f B0030000 		.4byte	.LVL73
 3666 0013 0100     		.2byte	0x1
 3667 0015 55       		.byte	0x55
 3668 0016 B0030000 		.4byte	.LVL73
 3669 001a B2030000 		.4byte	.LVL74
 3670 001e 0100     		.2byte	0x1
 3671 0020 50       		.byte	0x50
 3672 0021 B2030000 		.4byte	.LVL74
 3673 0025 BE030000 		.4byte	.LVL75
 3674 0029 0100     		.2byte	0x1
 3675 002b 55       		.byte	0x55
 3676 002c BE030000 		.4byte	.LVL75
 3677 0030 C0030000 		.4byte	.LVL76
 3678 0034 0100     		.2byte	0x1
 3679 0036 50       		.byte	0x50
 3680 0037 C0030000 		.4byte	.LVL76
 3681 003b C8030000 		.4byte	.LVL77
 3682 003f 0100     		.2byte	0x1
 3683 0041 55       		.byte	0x55
 3684 0042 C8030000 		.4byte	.LVL77
 3685 0046 50040000 		.4byte	.LVL99
 3686 004a 0100     		.2byte	0x1
 3687 004c 50       		.byte	0x50
 3688 004d 50040000 		.4byte	.LVL99
ARM GAS  C:\Users\user\AppData\Local\Temp\ccpxa6kC.s 			page 96


 3689 0051 68040000 		.4byte	.LVL100
 3690 0055 0100     		.2byte	0x1
 3691 0057 55       		.byte	0x55
 3692 0058 68040000 		.4byte	.LVL100
 3693 005c 6A040000 		.4byte	.LVL101
 3694 0060 0100     		.2byte	0x1
 3695 0062 50       		.byte	0x50
 3696 0063 00000000 		.4byte	0
 3697 0067 00000000 		.4byte	0
 3698              	.LLST1:
 3699 006b 0E000000 		.4byte	.LVL23
 3700 006f D8060000 		.4byte	.LVL117
 3701 0073 0100     		.2byte	0x1
 3702 0075 54       		.byte	0x54
 3703 0076 00000000 		.4byte	0
 3704 007a 00000000 		.4byte	0
 3705              	.LLST2:
 3706 007e 02000000 		.4byte	.LVL20
 3707 0082 42040000 		.4byte	.LVL96
 3708 0086 0200     		.2byte	0x2
 3709 0088 30       		.byte	0x30
 3710 0089 9F       		.byte	0x9f
 3711 008a 42040000 		.4byte	.LVL96
 3712 008e 48040000 		.4byte	.LVL97
 3713 0092 0100     		.2byte	0x1
 3714 0094 53       		.byte	0x53
 3715 0095 48040000 		.4byte	.LVL97
 3716 0099 50040000 		.4byte	.LVL99
 3717 009d 0100     		.2byte	0x1
 3718 009f 52       		.byte	0x52
 3719 00a0 50040000 		.4byte	.LVL99
 3720 00a4 6A040000 		.4byte	.LVL101
 3721 00a8 0200     		.2byte	0x2
 3722 00aa 30       		.byte	0x30
 3723 00ab 9F       		.byte	0x9f
 3724 00ac 6A040000 		.4byte	.LVL101
 3725 00b0 26060000 		.4byte	.LVL107
 3726 00b4 0100     		.2byte	0x1
 3727 00b6 52       		.byte	0x52
 3728 00b7 42060000 		.4byte	.LVL108
 3729 00bb 76060000 		.4byte	.LVL112
 3730 00bf 0100     		.2byte	0x1
 3731 00c1 52       		.byte	0x52
 3732 00c2 A0060000 		.4byte	.LVL115
 3733 00c6 B6060000 		.4byte	.LVL116
 3734 00ca 0100     		.2byte	0x1
 3735 00cc 52       		.byte	0x52
 3736 00cd 00000000 		.4byte	0
 3737 00d1 00000000 		.4byte	0
 3738              	.LLST3:
 3739 00d5 74050000 		.4byte	.LVL102
 3740 00d9 78050000 		.4byte	.LVL103
 3741 00dd 0100     		.2byte	0x1
 3742 00df 53       		.byte	0x53
 3743 00e0 78050000 		.4byte	.LVL103
 3744 00e4 7E050000 		.4byte	.LVL104
 3745 00e8 0100     		.2byte	0x1
ARM GAS  C:\Users\user\AppData\Local\Temp\ccpxa6kC.s 			page 97


 3746 00ea 51       		.byte	0x51
 3747 00eb 7E050000 		.4byte	.LVL104
 3748 00ef B0050000 		.4byte	.LVL105
 3749 00f3 0300     		.2byte	0x3
 3750 00f5 71       		.byte	0x71
 3751 00f6 01       		.sleb128 1
 3752 00f7 9F       		.byte	0x9f
 3753 00f8 46060000 		.4byte	.LVL109
 3754 00fc 50060000 		.4byte	.LVL111
 3755 0100 0100     		.2byte	0x1
 3756 0102 53       		.byte	0x53
 3757 0103 50060000 		.4byte	.LVL111
 3758 0107 82060000 		.4byte	.LVL113
 3759 010b 0300     		.2byte	0x3
 3760 010d 73       		.byte	0x73
 3761 010e 01       		.sleb128 1
 3762 010f 9F       		.byte	0x9f
 3763 0110 00000000 		.4byte	0
 3764 0114 00000000 		.4byte	0
 3765              	.LLST4:
 3766 0118 CC030000 		.4byte	.LVL78
 3767 011c E0030000 		.4byte	.LVL80
 3768 0120 0200     		.2byte	0x2
 3769 0122 30       		.byte	0x30
 3770 0123 9F       		.byte	0x9f
 3771 0124 E0030000 		.4byte	.LVL80
 3772 0128 F0030000 		.4byte	.LVL82
 3773 012c 0100     		.2byte	0x1
 3774 012e 53       		.byte	0x53
 3775 012f F0030000 		.4byte	.LVL82
 3776 0133 F2030000 		.4byte	.LVL83
 3777 0137 0300     		.2byte	0x3
 3778 0139 73       		.byte	0x73
 3779 013a 7F       		.sleb128 -1
 3780 013b 9F       		.byte	0x9f
 3781 013c F4030000 		.4byte	.LVL84
 3782 0140 F6030000 		.4byte	.LVL85
 3783 0144 0100     		.2byte	0x1
 3784 0146 53       		.byte	0x53
 3785 0147 FE030000 		.4byte	.LVL86
 3786 014b 18040000 		.4byte	.LVL88
 3787 014f 0200     		.2byte	0x2
 3788 0151 30       		.byte	0x30
 3789 0152 9F       		.byte	0x9f
 3790 0153 18040000 		.4byte	.LVL88
 3791 0157 28040000 		.4byte	.LVL90
 3792 015b 0100     		.2byte	0x1
 3793 015d 52       		.byte	0x52
 3794 015e 28040000 		.4byte	.LVL90
 3795 0162 2A040000 		.4byte	.LVL91
 3796 0166 0300     		.2byte	0x3
 3797 0168 72       		.byte	0x72
 3798 0169 7F       		.sleb128 -1
 3799 016a 9F       		.byte	0x9f
 3800 016b 2C040000 		.4byte	.LVL92
 3801 016f 2E040000 		.4byte	.LVL93
 3802 0173 0100     		.2byte	0x1
ARM GAS  C:\Users\user\AppData\Local\Temp\ccpxa6kC.s 			page 98


 3803 0175 52       		.byte	0x52
 3804 0176 36040000 		.4byte	.LVL94
 3805 017a 40040000 		.4byte	.LVL95
 3806 017e 0200     		.2byte	0x2
 3807 0180 30       		.byte	0x30
 3808 0181 9F       		.byte	0x9f
 3809 0182 00000000 		.4byte	0
 3810 0186 00000000 		.4byte	0
 3811              	.LLST5:
 3812 018a CC030000 		.4byte	.LVL78
 3813 018e EA030000 		.4byte	.LVL81
 3814 0192 0600     		.2byte	0x6
 3815 0194 03       		.byte	0x3
 3816 0195 00000000 		.4byte	PowerMonitor_1_voltFilt
 3817 0199 9F       		.byte	0x9f
 3818 019a EA030000 		.4byte	.LVL81
 3819 019e FE030000 		.4byte	.LVL86
 3820 01a2 0100     		.2byte	0x1
 3821 01a4 55       		.byte	0x55
 3822 01a5 FE030000 		.4byte	.LVL86
 3823 01a9 22040000 		.4byte	.LVL89
 3824 01ad 0600     		.2byte	0x6
 3825 01af 03       		.byte	0x3
 3826 01b0 00000000 		.4byte	PowerMonitor_1_voltFilt
 3827 01b4 9F       		.byte	0x9f
 3828 01b5 22040000 		.4byte	.LVL89
 3829 01b9 36040000 		.4byte	.LVL94
 3830 01bd 0100     		.2byte	0x1
 3831 01bf 55       		.byte	0x55
 3832 01c0 36040000 		.4byte	.LVL94
 3833 01c4 40040000 		.4byte	.LVL95
 3834 01c8 0600     		.2byte	0x6
 3835 01ca 03       		.byte	0x3
 3836 01cb 00000000 		.4byte	PowerMonitor_1_voltFilt
 3837 01cf 9F       		.byte	0x9f
 3838 01d0 40040000 		.4byte	.LVL95
 3839 01d4 50040000 		.4byte	.LVL99
 3840 01d8 0100     		.2byte	0x1
 3841 01da 55       		.byte	0x55
 3842 01db 00000000 		.4byte	0
 3843 01df 00000000 		.4byte	0
 3844              	.LLST6:
 3845 01e3 CC030000 		.4byte	.LVL78
 3846 01e7 DA030000 		.4byte	.LVL79
 3847 01eb 0600     		.2byte	0x6
 3848 01ed 03       		.byte	0x3
 3849 01ee 00000000 		.4byte	PowerMonitor_1_voltCtl
 3850 01f2 9F       		.byte	0x9f
 3851 01f3 DA030000 		.4byte	.LVL79
 3852 01f7 FE030000 		.4byte	.LVL86
 3853 01fb 0100     		.2byte	0x1
 3854 01fd 51       		.byte	0x51
 3855 01fe FE030000 		.4byte	.LVL86
 3856 0202 12040000 		.4byte	.LVL87
 3857 0206 0600     		.2byte	0x6
 3858 0208 03       		.byte	0x3
 3859 0209 00000000 		.4byte	PowerMonitor_1_voltCtl
ARM GAS  C:\Users\user\AppData\Local\Temp\ccpxa6kC.s 			page 99


 3860 020d 9F       		.byte	0x9f
 3861 020e 12040000 		.4byte	.LVL87
 3862 0212 36040000 		.4byte	.LVL94
 3863 0216 0100     		.2byte	0x1
 3864 0218 51       		.byte	0x51
 3865 0219 36040000 		.4byte	.LVL94
 3866 021d 40040000 		.4byte	.LVL95
 3867 0221 0600     		.2byte	0x6
 3868 0223 03       		.byte	0x3
 3869 0224 00000000 		.4byte	PowerMonitor_1_voltCtl
 3870 0228 9F       		.byte	0x9f
 3871 0229 40040000 		.4byte	.LVL95
 3872 022d 50040000 		.4byte	.LVL99
 3873 0231 0100     		.2byte	0x1
 3874 0233 51       		.byte	0x51
 3875 0234 00000000 		.4byte	0
 3876 0238 00000000 		.4byte	0
 3877              		.section	.debug_aranges,"",%progbits
 3878 0000 4C000000 		.4byte	0x4c
 3879 0004 0200     		.2byte	0x2
 3880 0006 00000000 		.4byte	.Ldebug_info0
 3881 000a 04       		.byte	0x4
 3882 000b 00       		.byte	0
 3883 000c 0000     		.2byte	0
 3884 000e 0000     		.2byte	0
 3885 0010 00000000 		.4byte	.LFB4
 3886 0014 50000000 		.4byte	.LFE4-.LFB4
 3887 0018 00000000 		.4byte	.LFB5
 3888 001c 4C000000 		.4byte	.LFE5-.LFB5
 3889 0020 00000000 		.4byte	.LFB6
 3890 0024 04000000 		.4byte	.LFE6-.LFB6
 3891 0028 00000000 		.4byte	.LFB2
 3892 002c A8000000 		.4byte	.LFE2-.LFB2
 3893 0030 00000000 		.4byte	.LFB1
 3894 0034 A4000000 		.4byte	.LFE1-.LFB1
 3895 0038 00000000 		.4byte	.LFB3
 3896 003c 28070000 		.4byte	.LFE3-.LFB3
 3897 0040 00000000 		.4byte	.LFB0
 3898 0044 64000000 		.4byte	.LFE0-.LFB0
 3899 0048 00000000 		.4byte	0
 3900 004c 00000000 		.4byte	0
 3901              		.section	.debug_ranges,"",%progbits
 3902              	.Ldebug_ranges0:
 3903 0000 00000000 		.4byte	.LFB4
 3904 0004 50000000 		.4byte	.LFE4
 3905 0008 00000000 		.4byte	.LFB5
 3906 000c 4C000000 		.4byte	.LFE5
 3907 0010 00000000 		.4byte	.LFB6
 3908 0014 04000000 		.4byte	.LFE6
 3909 0018 00000000 		.4byte	.LFB2
 3910 001c A8000000 		.4byte	.LFE2
 3911 0020 00000000 		.4byte	.LFB1
 3912 0024 A4000000 		.4byte	.LFE1
 3913 0028 00000000 		.4byte	.LFB3
 3914 002c 28070000 		.4byte	.LFE3
 3915 0030 00000000 		.4byte	.LFB0
 3916 0034 64000000 		.4byte	.LFE0
ARM GAS  C:\Users\user\AppData\Local\Temp\ccpxa6kC.s 			page 100


 3917 0038 00000000 		.4byte	0
 3918 003c 00000000 		.4byte	0
 3919              		.section	.debug_line,"",%progbits
 3920              	.Ldebug_line0:
 3921 0000 AE030000 		.section	.debug_str,"MS",%progbits,1
 3921      0200CE00 
 3921      00000201 
 3921      FB0E0D00 
 3921      01010101 
 3922              	.LASF121:
 3923 0000 4379496E 		.ascii	"CyIntSetPriority\000"
 3923      74536574 
 3923      5072696F 
 3923      72697479 
 3923      00
 3924              	.LASF65:
 3925 0011 506F7765 		.ascii	"PowerMonitor_1_faultDetected\000"
 3925      724D6F6E 
 3925      69746F72 
 3925      5F315F66 
 3925      61756C74 
 3926              	.LASF63:
 3927 002e 506F7765 		.ascii	"PowerMonitor_1_dsmRegRestorePend\000"
 3927      724D6F6E 
 3927      69746F72 
 3927      5F315F64 
 3927      736D5265 
 3928              	.LASF38:
 3929 004f 72617756 		.ascii	"rawVoltage\000"
 3929      6F6C7461 
 3929      676500
 3930              	.LASF107:
 3931 005a 506F7765 		.ascii	"PowerMonitor_1_voltFilt\000"
 3931      724D6F6E 
 3931      69746F72 
 3931      5F315F76 
 3931      6F6C7446 
 3932              	.LASF32:
 3933 0072 55564661 		.ascii	"UVFaultThrshldCounts\000"
 3933      756C7454 
 3933      68727368 
 3933      6C64436F 
 3933      756E7473 
 3934              	.LASF8:
 3935 0087 756E7369 		.ascii	"unsigned int\000"
 3935      676E6564 
 3935      20696E74 
 3935      00
 3936              	.LASF105:
 3937 0094 506F7765 		.ascii	"PowerMonitor_1_adcStartFalseCnt\000"
 3937      724D6F6E 
 3937      69746F72 
 3937      5F315F61 
 3937      64635374 
 3938              	.LASF108:
 3939 00b4 506F7765 		.ascii	"PowerMonitor_1_ampFilt\000"
 3939      724D6F6E 
ARM GAS  C:\Users\user\AppData\Local\Temp\ccpxa6kC.s 			page 101


 3939      69746F72 
 3939      5F315F61 
 3939      6D704669 
 3940              	.LASF12:
 3941 00cb 696E7431 		.ascii	"int16\000"
 3941      3600
 3942              	.LASF115:
 3943 00d1 506F7765 		.ascii	"PowerMonitor_1_PM_AMux_Current_FastSelect\000"
 3943      724D6F6E 
 3943      69746F72 
 3943      5F315F50 
 3943      4D5F414D 
 3944              	.LASF17:
 3945 00fb 72656738 		.ascii	"reg8\000"
 3945      00
 3946              	.LASF85:
 3947 0100 506F7765 		.ascii	"PowerMonitor_1_faultEnable\000"
 3947      724D6F6E 
 3947      69746F72 
 3947      5F315F66 
 3947      61756C74 
 3948              	.LASF86:
 3949 011b 506F7765 		.ascii	"PowerMonitor_1_warnEnable\000"
 3949      724D6F6E 
 3949      69746F72 
 3949      5F315F77 
 3949      61726E45 
 3950              	.LASF113:
 3951 0135 506F7765 		.ascii	"PowerMonitor_1_pCalStore\000"
 3951      724D6F6E 
 3951      69746F72 
 3951      5F315F70 
 3951      43616C53 
 3952              	.LASF67:
 3953 014e 506F7765 		.ascii	"PowerMonitor_1_warnWin\000"
 3953      724D6F6E 
 3953      69746F72 
 3953      5F315F77 
 3953      61726E57 
 3954              	.LASF120:
 3955 0165 506F7765 		.ascii	"PowerMonitor_1_ADC_StartConvert\000"
 3955      724D6F6E 
 3955      69746F72 
 3955      5F315F41 
 3955      44435F53 
 3956              	.LASF22:
 3957 0185 506F7765 		.ascii	"PowerMonitor_1_ADC_CTL_STRUCT\000"
 3957      724D6F6E 
 3957      69746F72 
 3957      5F315F41 
 3957      44435F43 
 3958              	.LASF95:
 3959 01a3 506F7765 		.ascii	"PowerMonitor_1_UVFaultStatus\000"
 3959      724D6F6E 
 3959      69746F72 
 3959      5F315F55 
 3959      56466175 
ARM GAS  C:\Users\user\AppData\Local\Temp\ccpxa6kC.s 			page 102


 3960              	.LASF14:
 3961 01c0 666C6F61 		.ascii	"float\000"
 3961      7400
 3962              	.LASF13:
 3963 01c6 696E7433 		.ascii	"int32\000"
 3963      3200
 3964              	.LASF53:
 3965 01cc 506F7765 		.ascii	"PowerMonitor_1_keep_CYREG_DSM0_SW0\000"
 3965      724D6F6E 
 3965      69746F72 
 3965      5F315F6B 
 3965      6565705F 
 3966              	.LASF54:
 3967 01ef 506F7765 		.ascii	"PowerMonitor_1_keep_CYREG_DSM0_SW2\000"
 3967      724D6F6E 
 3967      69746F72 
 3967      5F315F6B 
 3967      6565705F 
 3968              	.LASF55:
 3969 0212 506F7765 		.ascii	"PowerMonitor_1_keep_CYREG_DSM0_SW3\000"
 3969      724D6F6E 
 3969      69746F72 
 3969      5F315F6B 
 3969      6565705F 
 3970              	.LASF56:
 3971 0235 506F7765 		.ascii	"PowerMonitor_1_keep_CYREG_DSM0_SW4\000"
 3971      724D6F6E 
 3971      69746F72 
 3971      5F315F6B 
 3971      6565705F 
 3972              	.LASF124:
 3973 0258 473A5C44 		.ascii	"G:\\DSA\\PORIGE\\Workspace03\\Design01.cydsn\000"
 3973      53415C50 
 3973      4F524947 
 3973      455C576F 
 3973      726B7370 
 3974              	.LASF78:
 3975 0281 506F7765 		.ascii	"PowerMonitor_1_adcGainCalRawCfg2a\000"
 3975      724D6F6E 
 3975      69746F72 
 3975      5F315F61 
 3975      64634761 
 3976              	.LASF79:
 3977 02a3 506F7765 		.ascii	"PowerMonitor_1_adcGainCalRawCfg2b\000"
 3977      724D6F6E 
 3977      69746F72 
 3977      5F315F61 
 3977      64634761 
 3978              	.LASF36:
 3979 02c5 4F434661 		.ascii	"OCFaultThrshldAmps\000"
 3979      756C7454 
 3979      68727368 
 3979      6C64416D 
 3979      707300
 3980              	.LASF51:
 3981 02d8 506F7765 		.ascii	"PowerMonitor_1_ISR\000"
 3981      724D6F6E 
ARM GAS  C:\Users\user\AppData\Local\Temp\ccpxa6kC.s 			page 103


 3981      69746F72 
 3981      5F315F49 
 3981      535200
 3982              	.LASF111:
 3983 02eb 506F7765 		.ascii	"PowerMonitor_1_lastAuxVoltChan\000"
 3983      724D6F6E 
 3983      69746F72 
 3983      5F315F6C 
 3983      61737441 
 3984              	.LASF7:
 3985 030a 6C6F6E67 		.ascii	"long long unsigned int\000"
 3985      206C6F6E 
 3985      6720756E 
 3985      7369676E 
 3985      65642069 
 3986              	.LASF93:
 3987 0321 506F7765 		.ascii	"PowerMonitor_1_OVWarnStatus\000"
 3987      724D6F6E 
 3987      69746F72 
 3987      5F315F4F 
 3987      56576172 
 3988              	.LASF60:
 3989 033d 506F7765 		.ascii	"PowerMonitor_1_adcConfigCalPush\000"
 3989      724D6F6E 
 3989      69746F72 
 3989      5F315F61 
 3989      6463436F 
 3990              	.LASF24:
 3991 035d 4F565761 		.ascii	"OVWarnThrshldCounts\000"
 3991      726E5468 
 3991      7273686C 
 3991      64436F75 
 3991      6E747300 
 3992              	.LASF48:
 3993 0371 69436861 		.ascii	"iChanNum\000"
 3993      6E4E756D 
 3993      00
 3994              	.LASF23:
 3995 037a 656E6162 		.ascii	"enable\000"
 3995      6C6500
 3996              	.LASF69:
 3997 0381 506F7765 		.ascii	"PowerMonitor_1_adcConvNow\000"
 3997      724D6F6E 
 3997      69746F72 
 3997      5F315F61 
 3997      6463436F 
 3998              	.LASF110:
 3999 039b 506F7765 		.ascii	"PowerMonitor_1_lastCurrentChan\000"
 3999      724D6F6E 
 3999      69746F72 
 3999      5F315F6C 
 3999      61737443 
 4000              	.LASF122:
 4001 03ba 474E5520 		.ascii	"GNU C11 5.4.1 20160609 (release) [ARM/embedded-5-br"
 4001      43313120 
 4001      352E342E 
 4001      31203230 
ARM GAS  C:\Users\user\AppData\Local\Temp\ccpxa6kC.s 			page 104


 4001      31363036 
 4002 03ed 616E6368 		.ascii	"anch revision 237715] -mcpu=cortex-m3 -mthumb -g -O"
 4002      20726576 
 4002      6973696F 
 4002      6E203233 
 4002      37373135 
 4003 0420 67202D66 		.ascii	"g -ffunction-sections -ffat-lto-objects\000"
 4003      66756E63 
 4003      74696F6E 
 4003      2D736563 
 4003      74696F6E 
 4004              	.LASF46:
 4005 0448 636F6E76 		.ascii	"convDone\000"
 4005      446F6E65 
 4005      00
 4006              	.LASF59:
 4007 0451 506F7765 		.ascii	"PowerMonitor_1_adcConvDoneConfig\000"
 4007      724D6F6E 
 4007      69746F72 
 4007      5F315F61 
 4007      6463436F 
 4008              	.LASF92:
 4009 0472 506F7765 		.ascii	"PowerMonitor_1_UVWarnStatus\000"
 4009      724D6F6E 
 4009      69746F72 
 4009      5F315F55 
 4009      56576172 
 4010              	.LASF96:
 4011 048e 506F7765 		.ascii	"PowerMonitor_1_OVFaultStatus\000"
 4011      724D6F6E 
 4011      69746F72 
 4011      5F315F4F 
 4011      56466175 
 4012              	.LASF25:
 4013 04ab 55565761 		.ascii	"UVWarnThrshldCounts\000"
 4013      726E5468 
 4013      7273686C 
 4013      64436F75 
 4013      6E747300 
 4014              	.LASF87:
 4015 04bf 506F7765 		.ascii	"PowerMonitor_1_warnSources\000"
 4015      724D6F6E 
 4015      69746F72 
 4015      5F315F77 
 4015      61726E53 
 4016              	.LASF41:
 4017 04da 506F7765 		.ascii	"PowerMonitor_1_SaveDsmRegsAndIsolate\000"
 4017      724D6F6E 
 4017      69746F72 
 4017      5F315F53 
 4017      61766544 
 4018              	.LASF109:
 4019 04ff 506F7765 		.ascii	"PowerMonitor_1_lastVoltageChan\000"
 4019      724D6F6E 
 4019      69746F72 
 4019      5F315F6C 
 4019      61737456 
ARM GAS  C:\Users\user\AppData\Local\Temp\ccpxa6kC.s 			page 105


 4020              	.LASF97:
 4021 051e 506F7765 		.ascii	"PowerMonitor_1_adcZeroCfg1\000"
 4021      724D6F6E 
 4021      69746F72 
 4021      5F315F61 
 4021      64635A65 
 4022              	.LASF98:
 4023 0539 506F7765 		.ascii	"PowerMonitor_1_adcZeroCfg2\000"
 4023      724D6F6E 
 4023      69746F72 
 4023      5F315F61 
 4023      64635A65 
 4024              	.LASF99:
 4025 0554 506F7765 		.ascii	"PowerMonitor_1_adcZeroCfg3\000"
 4025      724D6F6E 
 4025      69746F72 
 4025      5F315F61 
 4025      64635A65 
 4026              	.LASF57:
 4027 056f 506F7765 		.ascii	"PowerMonitor_1_keep_CYREG_DSM0_SW6\000"
 4027      724D6F6E 
 4027      69746F72 
 4027      5F315F6B 
 4027      6565705F 
 4028              	.LASF16:
 4029 0592 63686172 		.ascii	"char\000"
 4029      00
 4030              	.LASF10:
 4031 0597 75696E74 		.ascii	"uint16\000"
 4031      313600
 4032              	.LASF117:
 4033 059e 4379496E 		.ascii	"CyIntSetVector\000"
 4033      74536574 
 4033      56656374 
 4033      6F7200
 4034              	.LASF74:
 4035 05ad 506F7765 		.ascii	"PowerMonitor_1_adcZeroCalRawCfg1\000"
 4035      724D6F6E 
 4035      69746F72 
 4035      5F315F61 
 4035      64635A65 
 4036              	.LASF77:
 4037 05ce 506F7765 		.ascii	"PowerMonitor_1_adcZeroCalRawCfg2\000"
 4037      724D6F6E 
 4037      69746F72 
 4037      5F315F61 
 4037      64635A65 
 4038              	.LASF80:
 4039 05ef 506F7765 		.ascii	"PowerMonitor_1_adcZeroCalRawCfg3\000"
 4039      724D6F6E 
 4039      69746F72 
 4039      5F315F61 
 4039      64635A65 
 4040              	.LASF72:
 4041 0610 506F7765 		.ascii	"PowerMonitor_1_adcConvCalType\000"
 4041      724D6F6E 
 4041      69746F72 
ARM GAS  C:\Users\user\AppData\Local\Temp\ccpxa6kC.s 			page 106


 4041      5F315F61 
 4041      6463436F 
 4042              	.LASF100:
 4043 062e 506F7765 		.ascii	"PowerMonitor_1_voltCtl\000"
 4043      724D6F6E 
 4043      69746F72 
 4043      5F315F76 
 4043      6F6C7443 
 4044              	.LASF102:
 4045 0645 506F7765 		.ascii	"PowerMonitor_1_VoltageType\000"
 4045      724D6F6E 
 4045      69746F72 
 4045      5F315F56 
 4045      6F6C7461 
 4046              	.LASF101:
 4047 0660 506F7765 		.ascii	"PowerMonitor_1_ampCtl\000"
 4047      724D6F6E 
 4047      69746F72 
 4047      5F315F61 
 4047      6D704374 
 4048              	.LASF6:
 4049 0676 6C6F6E67 		.ascii	"long long int\000"
 4049      206C6F6E 
 4049      6720696E 
 4049      7400
 4050              	.LASF103:
 4051 0684 506F7765 		.ascii	"PowerMonitor_1_CurrentType\000"
 4051      724D6F6E 
 4051      69746F72 
 4051      5F315F43 
 4051      75727265 
 4052              	.LASF119:
 4053 069f 506F7765 		.ascii	"PowerMonitor_1_ADC_GetResult16\000"
 4053      724D6F6E 
 4053      69746F72 
 4053      5F315F41 
 4053      44435F47 
 4054              	.LASF62:
 4055 06be 506F7765 		.ascii	"PowerMonitor_1_amuxChan\000"
 4055      724D6F6E 
 4055      69746F72 
 4055      5F315F61 
 4055      6D757843 
 4056              	.LASF50:
 4057 06d6 70734374 		.ascii	"psCtl\000"
 4057      6C00
 4058              	.LASF91:
 4059 06dc 506F7765 		.ascii	"PowerMonitor_1_OCWarnStatus\000"
 4059      724D6F6E 
 4059      69746F72 
 4059      5F315F4F 
 4059      43576172 
 4060              	.LASF11:
 4061 06f8 75696E74 		.ascii	"uint32\000"
 4061      333200
 4062              	.LASF29:
 4063 06ff 4F435761 		.ascii	"OCWarnThrshldAmps\000"
ARM GAS  C:\Users\user\AppData\Local\Temp\ccpxa6kC.s 			page 107


 4063      726E5468 
 4063      7273686C 
 4063      64416D70 
 4063      7300
 4064              	.LASF66:
 4065 0711 506F7765 		.ascii	"PowerMonitor_1_initThreshold\000"
 4065      724D6F6E 
 4065      69746F72 
 4065      5F315F69 
 4065      6E697454 
 4066              	.LASF90:
 4067 072e 506F7765 		.ascii	"PowerMonitor_1_faultSourceStatus\000"
 4067      724D6F6E 
 4067      69746F72 
 4067      5F315F66 
 4067      61756C74 
 4068              	.LASF106:
 4069 074f 506F7765 		.ascii	"PowerMonitor_1_PMoutEn\000"
 4069      724D6F6E 
 4069      69746F72 
 4069      5F315F50 
 4069      4D6F7574 
 4070              	.LASF40:
 4071 0766 506F7765 		.ascii	"PowerMonitor_1_ADC_RAWCURRENT_STRUCT\000"
 4071      724D6F6E 
 4071      69746F72 
 4071      5F315F41 
 4071      44435F52 
 4072              	.LASF82:
 4073 078b 506F7765 		.ascii	"PowerMonitor_1_adcSCCalRawCfg3\000"
 4073      724D6F6E 
 4073      69746F72 
 4073      5F315F61 
 4073      64635343 
 4074              	.LASF19:
 4075 07aa 6C6F6E67 		.ascii	"long double\000"
 4075      20646F75 
 4075      626C6500 
 4076              	.LASF89:
 4077 07b6 506F7765 		.ascii	"PowerMonitor_1_warnSourceStatus\000"
 4077      724D6F6E 
 4077      69746F72 
 4077      5F315F77 
 4077      61726E53 
 4078              	.LASF18:
 4079 07d6 72656733 		.ascii	"reg32\000"
 4079      3200
 4080              	.LASF28:
 4081 07dc 55565761 		.ascii	"UVWarnThrshldVolts\000"
 4081      726E5468 
 4081      7273686C 
 4081      64566F6C 
 4081      747300
 4082              	.LASF49:
 4083 07ef 70416463 		.ascii	"pAdcFilt\000"
 4083      46696C74 
 4083      00
ARM GAS  C:\Users\user\AppData\Local\Temp\ccpxa6kC.s 			page 108


 4084              	.LASF84:
 4085 07f8 506F7765 		.ascii	"PowerMonitor_1_warnMask\000"
 4085      724D6F6E 
 4085      69746F72 
 4085      5F315F77 
 4085      61726E4D 
 4086              	.LASF94:
 4087 0810 506F7765 		.ascii	"PowerMonitor_1_OCFaultStatus\000"
 4087      724D6F6E 
 4087      69746F72 
 4087      5F315F4F 
 4087      43466175 
 4088              	.LASF2:
 4089 082d 73686F72 		.ascii	"short int\000"
 4089      7420696E 
 4089      7400
 4090              	.LASF4:
 4091 0837 6C6F6E67 		.ascii	"long int\000"
 4091      20696E74 
 4091      00
 4092              	.LASF34:
 4093 0840 4F564661 		.ascii	"OVFaultThrshldVolts\000"
 4093      756C7454 
 4093      68727368 
 4093      6C64566F 
 4093      6C747300 
 4094              	.LASF33:
 4095 0854 4F434661 		.ascii	"OCFaultThrshldCounts\000"
 4095      756C7454 
 4095      68727368 
 4095      6C64436F 
 4095      756E7473 
 4096              	.LASF123:
 4097 0869 47656E65 		.ascii	"Generated_Source\\PSoC5\\PowerMonitor_1_INT.c\000"
 4097      72617465 
 4097      645F536F 
 4097      75726365 
 4097      5C50536F 
 4098              	.LASF42:
 4099 0895 506F7765 		.ascii	"PowerMonitor_1_RestoreDsmRegs\000"
 4099      724D6F6E 
 4099      69746F72 
 4099      5F315F52 
 4099      6573746F 
 4100              	.LASF114:
 4101 08b3 506F7765 		.ascii	"PowerMonitor_1_PM_AMux_Voltage_FastSelect\000"
 4101      724D6F6E 
 4101      69746F72 
 4101      5F315F50 
 4101      4D5F414D 
 4102              	.LASF76:
 4103 08dd 506F7765 		.ascii	"PowerMonitor_1_adcSCCalRawCfg1\000"
 4103      724D6F6E 
 4103      69746F72 
 4103      5F315F61 
 4103      64635343 
 4104              	.LASF39:
ARM GAS  C:\Users\user\AppData\Local\Temp\ccpxa6kC.s 			page 109


 4105 08fc 506F7765 		.ascii	"PowerMonitor_1_ADC_RAWVOLTS_STRUCT\000"
 4105      724D6F6E 
 4105      69746F72 
 4105      5F315F41 
 4105      44435F52 
 4106              	.LASF44:
 4107 091f 506F7765 		.ascii	"PowerMonitor_1_Set_First_Channel\000"
 4107      724D6F6E 
 4107      69746F72 
 4107      5F315F53 
 4107      65745F46 
 4108              	.LASF47:
 4109 0940 72617746 		.ascii	"rawFiltVal\000"
 4109      696C7456 
 4109      616C00
 4110              	.LASF104:
 4111 094b 506F7765 		.ascii	"PowerMonitor_1_ActiveCurrentChan\000"
 4111      724D6F6E 
 4111      69746F72 
 4111      5F315F41 
 4111      63746976 
 4112              	.LASF58:
 4113 096c 506F7765 		.ascii	"PowerMonitor_1_adcConfig\000"
 4113      724D6F6E 
 4113      69746F72 
 4113      5F315F61 
 4113      6463436F 
 4114              	.LASF20:
 4115 0985 73697A65 		.ascii	"sizetype\000"
 4115      74797065 
 4115      00
 4116              	.LASF5:
 4117 098e 6C6F6E67 		.ascii	"long unsigned int\000"
 4117      20756E73 
 4117      69676E65 
 4117      6420696E 
 4117      7400
 4118              	.LASF125:
 4119 09a0 506F7765 		.ascii	"PowerMonitor_1_GetMaxFilterOrder\000"
 4119      724D6F6E 
 4119      69746F72 
 4119      5F315F47 
 4119      65744D61 
 4120              	.LASF35:
 4121 09c1 55564661 		.ascii	"UVFaultThrshldVolts\000"
 4121      756C7454 
 4121      68727368 
 4121      6C64566F 
 4121      6C747300 
 4122              	.LASF75:
 4123 09d5 506F7765 		.ascii	"PowerMonitor_1_adcGainCalRawCfg1\000"
 4123      724D6F6E 
 4123      69746F72 
 4123      5F315F61 
 4123      64634761 
 4124              	.LASF81:
 4125 09f6 506F7765 		.ascii	"PowerMonitor_1_adcGainCalRawCfg3\000"
ARM GAS  C:\Users\user\AppData\Local\Temp\ccpxa6kC.s 			page 110


 4125      724D6F6E 
 4125      69746F72 
 4125      5F315F61 
 4125      64634761 
 4126              	.LASF27:
 4127 0a17 4F565761 		.ascii	"OVWarnThrshldVolts\000"
 4127      726E5468 
 4127      7273686C 
 4127      64566F6C 
 4127      747300
 4128              	.LASF43:
 4129 0a2a 506F7765 		.ascii	"PowerMonitor_1_Set_Current_Channel\000"
 4129      724D6F6E 
 4129      69746F72 
 4129      5F315F53 
 4129      65745F43 
 4130              	.LASF73:
 4131 0a4d 506F7765 		.ascii	"PowerMonitor_1_maxChannels\000"
 4131      724D6F6E 
 4131      69746F72 
 4131      5F315F6D 
 4131      61784368 
 4132              	.LASF112:
 4133 0a68 506F7765 		.ascii	"PowerMonitor_1_index\000"
 4133      724D6F6E 
 4133      69746F72 
 4133      5F315F69 
 4133      6E646578 
 4134              	.LASF21:
 4135 0a7d 66696C74 		.ascii	"filtVal\000"
 4135      56616C00 
 4136              	.LASF1:
 4137 0a85 756E7369 		.ascii	"unsigned char\000"
 4137      676E6564 
 4137      20636861 
 4137      7200
 4138              	.LASF83:
 4139 0a93 506F7765 		.ascii	"PowerMonitor_1_faultMask\000"
 4139      724D6F6E 
 4139      69746F72 
 4139      5F315F66 
 4139      61756C74 
 4140              	.LASF52:
 4141 0aac 506F7765 		.ascii	"PowerMonitor_1_IsrStart\000"
 4141      724D6F6E 
 4141      69746F72 
 4141      5F315F49 
 4141      73725374 
 4142              	.LASF30:
 4143 0ac4 506F7765 		.ascii	"PowerMonitor_1_WARNWIN_STRUCT\000"
 4143      724D6F6E 
 4143      69746F72 
 4143      5F315F57 
 4143      41524E57 
 4144              	.LASF37:
 4145 0ae2 506F7765 		.ascii	"PowerMonitor_1_FAULTWIN_STRUCT\000"
 4145      724D6F6E 
ARM GAS  C:\Users\user\AppData\Local\Temp\ccpxa6kC.s 			page 111


 4145      69746F72 
 4145      5F315F46 
 4145      41554C54 
 4146              	.LASF88:
 4147 0b01 506F7765 		.ascii	"PowerMonitor_1_faultSources\000"
 4147      724D6F6E 
 4147      69746F72 
 4147      5F315F66 
 4147      61756C74 
 4148              	.LASF68:
 4149 0b1d 506F7765 		.ascii	"PowerMonitor_1_faultWin\000"
 4149      724D6F6E 
 4149      69746F72 
 4149      5F315F66 
 4149      61756C74 
 4150              	.LASF0:
 4151 0b35 7369676E 		.ascii	"signed char\000"
 4151      65642063 
 4151      68617200 
 4152              	.LASF45:
 4153 0b41 72617756 		.ascii	"rawVal\000"
 4153      616C00
 4154              	.LASF3:
 4155 0b48 73686F72 		.ascii	"short unsigned int\000"
 4155      7420756E 
 4155      7369676E 
 4155      65642069 
 4155      6E7400
 4156              	.LASF64:
 4157 0b5b 506F7765 		.ascii	"PowerMonitor_1_adcCfgPopPend\000"
 4157      724D6F6E 
 4157      69746F72 
 4157      5F315F61 
 4157      64634366 
 4158              	.LASF31:
 4159 0b78 4F564661 		.ascii	"OVFaultThrshldCounts\000"
 4159      756C7454 
 4159      68727368 
 4159      6C64436F 
 4159      756E7473 
 4160              	.LASF118:
 4161 0b8d 506F7765 		.ascii	"PowerMonitor_1_ADC_Start\000"
 4161      724D6F6E 
 4161      69746F72 
 4161      5F315F41 
 4161      44435F53 
 4162              	.LASF9:
 4163 0ba6 75696E74 		.ascii	"uint8\000"
 4163      3800
 4164              	.LASF15:
 4165 0bac 646F7562 		.ascii	"double\000"
 4165      6C6500
 4166              	.LASF116:
 4167 0bb3 506F7765 		.ascii	"PowerMonitor_1_ADC_SelectConfiguration\000"
 4167      724D6F6E 
 4167      69746F72 
 4167      5F315F41 
ARM GAS  C:\Users\user\AppData\Local\Temp\ccpxa6kC.s 			page 112


 4167      44435F53 
 4168              	.LASF70:
 4169 0bda 506F7765 		.ascii	"PowerMonitor_1_adcConvNext\000"
 4169      724D6F6E 
 4169      69746F72 
 4169      5F315F61 
 4169      6463436F 
 4170              	.LASF71:
 4171 0bf5 506F7765 		.ascii	"PowerMonitor_1_adcConvNextPreCal\000"
 4171      724D6F6E 
 4171      69746F72 
 4171      5F315F61 
 4171      6463436F 
 4172              	.LASF61:
 4173 0c16 506F7765 		.ascii	"PowerMonitor_1_justReset\000"
 4173      724D6F6E 
 4173      69746F72 
 4173      5F315F6A 
 4173      75737452 
 4174              	.LASF26:
 4175 0c2f 4F435761 		.ascii	"OCWarnThrshldCounts\000"
 4175      726E5468 
 4175      7273686C 
 4175      64436F75 
 4175      6E747300 
 4176              		.ident	"GCC: (GNU Tools for ARM Embedded Processors) 5.4.1 20160609 (release) [ARM/embedded-5-bran
