ARM GAS  C:\Users\user\AppData\Local\Temp\ccywx0XT.s 			page 1


   1              		.syntax unified
   2              		.cpu cortex-m3
   3              		.fpu softvfp
   4              		.eabi_attribute 20, 1
   5              		.eabi_attribute 21, 1
   6              		.eabi_attribute 23, 3
   7              		.eabi_attribute 24, 1
   8              		.eabi_attribute 25, 1
   9              		.eabi_attribute 26, 1
  10              		.eabi_attribute 30, 1
  11              		.eabi_attribute 34, 1
  12              		.eabi_attribute 18, 4
  13              		.thumb
  14              		.syntax unified
  15              		.file	"PowerMonitor_1.c"
  16              		.text
  17              	.Ltext0:
  18              		.cfi_sections	.debug_frame
  19              		.global	__aeabi_ui2f
  20              		.global	__aeabi_fmul
  21              		.global	__aeabi_fcmple
  22              		.global	__aeabi_i2f
  23              		.global	__aeabi_fsub
  24              		.global	__aeabi_fdiv
  25              		.global	__aeabi_fadd
  26              		.global	__aeabi_f2iz
  27              		.section	.text.PowerMonitor_1_mVToCounts,"ax",%progbits
  28              		.align	2
  29              		.thumb
  30              		.thumb_func
  31              		.type	PowerMonitor_1_mVToCounts, %function
  32              	PowerMonitor_1_mVToCounts:
  33              	.LFB40:
  34              		.file 1 "Generated_Source\\PSoC5\\PowerMonitor_1.c"
   1:Generated_Source\PSoC5/PowerMonitor_1.c **** /*******************************************************************************
   2:Generated_Source\PSoC5/PowerMonitor_1.c **** * File Name: PowerMonitor_1.c
   3:Generated_Source\PSoC5/PowerMonitor_1.c **** * Version 1.60
   4:Generated_Source\PSoC5/PowerMonitor_1.c **** *
   5:Generated_Source\PSoC5/PowerMonitor_1.c **** * Description:
   6:Generated_Source\PSoC5/PowerMonitor_1.c **** *  This file provides the source code to the API for the Power Monitor
   7:Generated_Source\PSoC5/PowerMonitor_1.c **** *  Component.
   8:Generated_Source\PSoC5/PowerMonitor_1.c **** *
   9:Generated_Source\PSoC5/PowerMonitor_1.c **** * Note:
  10:Generated_Source\PSoC5/PowerMonitor_1.c **** *
  11:Generated_Source\PSoC5/PowerMonitor_1.c **** *******************************************************************************
  12:Generated_Source\PSoC5/PowerMonitor_1.c **** * Copyright 2012-2013, Cypress Semiconductor Corporation.  All rights reserved.
  13:Generated_Source\PSoC5/PowerMonitor_1.c **** * You may use this file only in accordance with the license, terms, conditions,
  14:Generated_Source\PSoC5/PowerMonitor_1.c **** * disclaimers, and limitations in the end user license agreement accompanying
  15:Generated_Source\PSoC5/PowerMonitor_1.c **** * the software package with which this file was provided.
  16:Generated_Source\PSoC5/PowerMonitor_1.c **** ********************************************************************************/
  17:Generated_Source\PSoC5/PowerMonitor_1.c **** 
  18:Generated_Source\PSoC5/PowerMonitor_1.c **** #include "PowerMonitor_1.h"
  19:Generated_Source\PSoC5/PowerMonitor_1.c **** #include "PowerMonitor_1_PGA.h"
  20:Generated_Source\PSoC5/PowerMonitor_1.c **** #include "PowerMonitor_1_PM_AMux_Voltage.h"
  21:Generated_Source\PSoC5/PowerMonitor_1.c **** #include "PowerMonitor_1_PM_AMux_Current.h"
  22:Generated_Source\PSoC5/PowerMonitor_1.c **** #include "PowerMonitor_1_ADC.h"
  23:Generated_Source\PSoC5/PowerMonitor_1.c **** 
ARM GAS  C:\Users\user\AppData\Local\Temp\ccywx0XT.s 			page 2


  24:Generated_Source\PSoC5/PowerMonitor_1.c **** 
  25:Generated_Source\PSoC5/PowerMonitor_1.c **** /* To run the initialization block only at the start up */
  26:Generated_Source\PSoC5/PowerMonitor_1.c **** uint8 PowerMonitor_1_initVar = 0u;
  27:Generated_Source\PSoC5/PowerMonitor_1.c **** 
  28:Generated_Source\PSoC5/PowerMonitor_1.c **** /* To run the threshold initialization only at the start up */
  29:Generated_Source\PSoC5/PowerMonitor_1.c **** uint8 PowerMonitor_1_initThreshold = 0u;
  30:Generated_Source\PSoC5/PowerMonitor_1.c **** 
  31:Generated_Source\PSoC5/PowerMonitor_1.c **** /* last voltage, current annd auxiliary voltage channels */
  32:Generated_Source\PSoC5/PowerMonitor_1.c **** extern uint8 CYDATA PowerMonitor_1_lastVoltageChan;
  33:Generated_Source\PSoC5/PowerMonitor_1.c **** extern uint8 CYDATA PowerMonitor_1_lastCurrentChan;
  34:Generated_Source\PSoC5/PowerMonitor_1.c **** extern uint8 CYDATA PowerMonitor_1_lastAuxVoltChan;
  35:Generated_Source\PSoC5/PowerMonitor_1.c **** 
  36:Generated_Source\PSoC5/PowerMonitor_1.c **** #if ((PowerMonitor_1_NUM_CURRENT_SOURCES > 0u) || (PowerMonitor_1_NUM_AUX_INPUTS > 0u))
  37:Generated_Source\PSoC5/PowerMonitor_1.c ****     extern uint8 CYDATA PowerMonitor_1_index;
  38:Generated_Source\PSoC5/PowerMonitor_1.c **** #endif /* (PowerMonitor_1_NUM_CURRENT_SOURCES > 0u) */
  39:Generated_Source\PSoC5/PowerMonitor_1.c **** 
  40:Generated_Source\PSoC5/PowerMonitor_1.c **** #if (PowerMonitor_1_NUM_AUX_INPUTS > 0u)
  41:Generated_Source\PSoC5/PowerMonitor_1.c ****     extern uint8 CYDATA PowerMonitor_1_auxIndex;
  42:Generated_Source\PSoC5/PowerMonitor_1.c ****     extern int16 PowerMonitor_1_auxStore;
  43:Generated_Source\PSoC5/PowerMonitor_1.c **** #endif /* (PowerMonitor_1_NUM_AUX_INPUTS > 0u) */
  44:Generated_Source\PSoC5/PowerMonitor_1.c **** 
  45:Generated_Source\PSoC5/PowerMonitor_1.c **** 
  46:Generated_Source\PSoC5/PowerMonitor_1.c **** /* Fault and Warn Mask variables */
  47:Generated_Source\PSoC5/PowerMonitor_1.c **** volatile uint32 CYDATA PowerMonitor_1_faultMask;
  48:Generated_Source\PSoC5/PowerMonitor_1.c **** volatile uint32 CYDATA PowerMonitor_1_warnMask;
  49:Generated_Source\PSoC5/PowerMonitor_1.c **** 
  50:Generated_Source\PSoC5/PowerMonitor_1.c **** /* Enable fault and Enable warn variables */
  51:Generated_Source\PSoC5/PowerMonitor_1.c **** CYBIT PowerMonitor_1_faultEnable;
  52:Generated_Source\PSoC5/PowerMonitor_1.c **** CYBIT PowerMonitor_1_warnEnable;
  53:Generated_Source\PSoC5/PowerMonitor_1.c **** 
  54:Generated_Source\PSoC5/PowerMonitor_1.c **** /* Fault and Warn source variables */
  55:Generated_Source\PSoC5/PowerMonitor_1.c **** volatile uint8 CYDATA PowerMonitor_1_warnSources;
  56:Generated_Source\PSoC5/PowerMonitor_1.c **** volatile uint8 CYDATA PowerMonitor_1_faultSources;
  57:Generated_Source\PSoC5/PowerMonitor_1.c **** 
  58:Generated_Source\PSoC5/PowerMonitor_1.c **** /* Warn and Fault source status */
  59:Generated_Source\PSoC5/PowerMonitor_1.c **** volatile uint8 CYDATA PowerMonitor_1_warnSourceStatus = 0u;
  60:Generated_Source\PSoC5/PowerMonitor_1.c **** volatile uint8 CYDATA PowerMonitor_1_faultSourceStatus = 0u;
  61:Generated_Source\PSoC5/PowerMonitor_1.c **** 
  62:Generated_Source\PSoC5/PowerMonitor_1.c **** /* Warn and Fault status for power monitors */
  63:Generated_Source\PSoC5/PowerMonitor_1.c **** volatile uint32 CYDATA PowerMonitor_1_OCWarnStatus = 0ul;
  64:Generated_Source\PSoC5/PowerMonitor_1.c **** volatile uint32 CYDATA PowerMonitor_1_UVWarnStatus = 0ul;
  65:Generated_Source\PSoC5/PowerMonitor_1.c **** volatile uint32 CYDATA PowerMonitor_1_OVWarnStatus = 0ul;
  66:Generated_Source\PSoC5/PowerMonitor_1.c **** volatile uint32 CYDATA PowerMonitor_1_OCFaultStatus = 0ul;
  67:Generated_Source\PSoC5/PowerMonitor_1.c **** volatile uint32 CYDATA PowerMonitor_1_UVFaultStatus = 0ul;
  68:Generated_Source\PSoC5/PowerMonitor_1.c **** volatile uint32 CYDATA PowerMonitor_1_OVFaultStatus = 0ul;
  69:Generated_Source\PSoC5/PowerMonitor_1.c **** 
  70:Generated_Source\PSoC5/PowerMonitor_1.c **** /* Voltage tab related arrays as set in the customizer */
  71:Generated_Source\PSoC5/PowerMonitor_1.c **** uint8 PowerMonitor_1_VoltageType[2] = { 0, 0 };
  72:Generated_Source\PSoC5/PowerMonitor_1.c **** uint16 PowerMonitor_1_UVWarnThreshold[2] = { 1700, 1700 };
  73:Generated_Source\PSoC5/PowerMonitor_1.c **** uint16 PowerMonitor_1_OVWarnThreshold[2] = { 2825, 2825 };
  74:Generated_Source\PSoC5/PowerMonitor_1.c **** uint16 PowerMonitor_1_UVFaultThreshold[2] = { 750, 750 };
  75:Generated_Source\PSoC5/PowerMonitor_1.c **** uint16 PowerMonitor_1_OVFaultThreshold[2] = { 3000, 3000 };
  76:Generated_Source\PSoC5/PowerMonitor_1.c **** float PowerMonitor_1_VoltageScale[2] = { 1, 1 };
  77:Generated_Source\PSoC5/PowerMonitor_1.c **** 
  78:Generated_Source\PSoC5/PowerMonitor_1.c **** /* Current tab related arrays as set in the customizer */
  79:Generated_Source\PSoC5/PowerMonitor_1.c **** uint8 PowerMonitor_1_CurrentType[2] = { 1, 1 };
  80:Generated_Source\PSoC5/PowerMonitor_1.c **** float PowerMonitor_1_OCWarnThreshold[2] = { 9, 9 };
ARM GAS  C:\Users\user\AppData\Local\Temp\ccywx0XT.s 			page 3


  81:Generated_Source\PSoC5/PowerMonitor_1.c **** float PowerMonitor_1_OCFaultThreshold[2] = { 2, 2 };
  82:Generated_Source\PSoC5/PowerMonitor_1.c **** float PowerMonitor_1_RShunt[2] = { 10, 10 };
  83:Generated_Source\PSoC5/PowerMonitor_1.c **** float PowerMonitor_1_CSAGain[2] = { 10, 10 };
  84:Generated_Source\PSoC5/PowerMonitor_1.c **** uint8 PowerMonitor_1_ActiveCurrentChan[2] = { 1, 2 };
  85:Generated_Source\PSoC5/PowerMonitor_1.c **** 
  86:Generated_Source\PSoC5/PowerMonitor_1.c **** #if (PowerMonitor_1_NUM_AUX_INPUTS > 0u)
  87:Generated_Source\PSoC5/PowerMonitor_1.c ****     /* Auxiliary voltage table related arrays as set in the customizer */
  88:Generated_Source\PSoC5/PowerMonitor_1.c ****     
  89:Generated_Source\PSoC5/PowerMonitor_1.c ****     /* The enable mask for auxiliary channels which will be scanned in overall cycle */
  90:Generated_Source\PSoC5/PowerMonitor_1.c ****     volatile uint8 PowerMonitor_1_auxEnableMask;
  91:Generated_Source\PSoC5/PowerMonitor_1.c **** #endif /* (PowerMonitor_1_NUM_AUX_INPUTS > 0u) */
  92:Generated_Source\PSoC5/PowerMonitor_1.c **** 
  93:Generated_Source\PSoC5/PowerMonitor_1.c **** /* Local function protoptype */
  94:Generated_Source\PSoC5/PowerMonitor_1.c **** static void PowerMonitor_1_StartupIsr(void)                                           \
  95:Generated_Source\PSoC5/PowerMonitor_1.c ****                                                                 ;
  96:Generated_Source\PSoC5/PowerMonitor_1.c **** static int32 PowerMonitor_1_mVToCounts(uint16 mV, uint8 chan, uint8 * convSuccess)     \
  97:Generated_Source\PSoC5/PowerMonitor_1.c ****                                                                 ;
  98:Generated_Source\PSoC5/PowerMonitor_1.c **** static int32 PowerMonitor_1_AToCounts(float current, uint8 chan, uint8 * convSuccess)  \
  99:Generated_Source\PSoC5/PowerMonitor_1.c ****                                                                 ;
 100:Generated_Source\PSoC5/PowerMonitor_1.c **** static float PowerMonitor_1_GetMeasuredVal(uint8 chan, uint8 chanType)                \
 101:Generated_Source\PSoC5/PowerMonitor_1.c ****                                                                 ;
 102:Generated_Source\PSoC5/PowerMonitor_1.c **** static float PowerMonitor_1_GetFiltRaw(uint8 chan, uint8 chanType)                    \
 103:Generated_Source\PSoC5/PowerMonitor_1.c ****                                                                 ;
 104:Generated_Source\PSoC5/PowerMonitor_1.c **** static uint8 PowerMonitor_1_GetArrayIndex(uint8 chan)                                 \
 105:Generated_Source\PSoC5/PowerMonitor_1.c ****                                                                 ;
 106:Generated_Source\PSoC5/PowerMonitor_1.c **** 
 107:Generated_Source\PSoC5/PowerMonitor_1.c **** 
 108:Generated_Source\PSoC5/PowerMonitor_1.c **** /******************************************************************************
 109:Generated_Source\PSoC5/PowerMonitor_1.c **** * Function Name: PowerMonitor_1_Init
 110:Generated_Source\PSoC5/PowerMonitor_1.c **** *******************************************************************************
 111:Generated_Source\PSoC5/PowerMonitor_1.c **** *
 112:Generated_Source\PSoC5/PowerMonitor_1.c **** * Summary:
 113:Generated_Source\PSoC5/PowerMonitor_1.c **** *  Initialize component's parameters to the parameters set by user in the
 114:Generated_Source\PSoC5/PowerMonitor_1.c **** *  customizer of the component placed onto schematic. Usually called in
 115:Generated_Source\PSoC5/PowerMonitor_1.c **** * PowerMonitor_1_Start(). Also includes method for running self calibration.
 116:Generated_Source\PSoC5/PowerMonitor_1.c **** *
 117:Generated_Source\PSoC5/PowerMonitor_1.c **** *
 118:Generated_Source\PSoC5/PowerMonitor_1.c **** * Parameters:
 119:Generated_Source\PSoC5/PowerMonitor_1.c **** *  None
 120:Generated_Source\PSoC5/PowerMonitor_1.c **** *
 121:Generated_Source\PSoC5/PowerMonitor_1.c **** * Return:
 122:Generated_Source\PSoC5/PowerMonitor_1.c **** *  None
 123:Generated_Source\PSoC5/PowerMonitor_1.c **** *
 124:Generated_Source\PSoC5/PowerMonitor_1.c **** *******************************************************************************/
 125:Generated_Source\PSoC5/PowerMonitor_1.c **** void PowerMonitor_1_Init(void) 
 126:Generated_Source\PSoC5/PowerMonitor_1.c **** {
 127:Generated_Source\PSoC5/PowerMonitor_1.c ****     /* Set the mode, and mask for warn and fault. */
 128:Generated_Source\PSoC5/PowerMonitor_1.c ****     PowerMonitor_1_EnableFault();
 129:Generated_Source\PSoC5/PowerMonitor_1.c ****     PowerMonitor_1_EnableWarn();
 130:Generated_Source\PSoC5/PowerMonitor_1.c ****     PowerMonitor_1_SetFaultMode(PowerMonitor_1_DEFAULT_FAULT_MODE);
 131:Generated_Source\PSoC5/PowerMonitor_1.c ****     PowerMonitor_1_SetWarnMode(PowerMonitor_1_DEFAULT_WARN_MODE);
 132:Generated_Source\PSoC5/PowerMonitor_1.c ****     PowerMonitor_1_SetFaultMask(PowerMonitor_1_DEFAULT_FAULT_MASK);
 133:Generated_Source\PSoC5/PowerMonitor_1.c ****     PowerMonitor_1_SetWarnMask(PowerMonitor_1_DEFAULT_WARN_MASK);
 134:Generated_Source\PSoC5/PowerMonitor_1.c ****     #if (PowerMonitor_1_NUM_AUX_INPUTS > 0)
 135:Generated_Source\PSoC5/PowerMonitor_1.c ****         /* Enable all auxiliary channels by default */
 136:Generated_Source\PSoC5/PowerMonitor_1.c ****         PowerMonitor_1_auxEnableMask = PowerMonitor_1_DEFAULT_AUX_CHANNELS_MASK;
 137:Generated_Source\PSoC5/PowerMonitor_1.c ****     #endif /* (PowerMonitor_1_NUM_AUX_INPUTS > 0) */
ARM GAS  C:\Users\user\AppData\Local\Temp\ccywx0XT.s 			page 4


 138:Generated_Source\PSoC5/PowerMonitor_1.c ****     PowerMonitor_1_maxChannels = PowerMonitor_1_MAX_CHANNELS;
 139:Generated_Source\PSoC5/PowerMonitor_1.c **** }
 140:Generated_Source\PSoC5/PowerMonitor_1.c **** 
 141:Generated_Source\PSoC5/PowerMonitor_1.c **** 
 142:Generated_Source\PSoC5/PowerMonitor_1.c **** /******************************************************************************
 143:Generated_Source\PSoC5/PowerMonitor_1.c **** * Function Name: PowerMonitor_1_Enable
 144:Generated_Source\PSoC5/PowerMonitor_1.c **** *******************************************************************************
 145:Generated_Source\PSoC5/PowerMonitor_1.c **** *
 146:Generated_Source\PSoC5/PowerMonitor_1.c **** * Summary:
 147:Generated_Source\PSoC5/PowerMonitor_1.c **** *  Enables the power monitor component hardware blocks and starts scanning.
 148:Generated_Source\PSoC5/PowerMonitor_1.c **** *
 149:Generated_Source\PSoC5/PowerMonitor_1.c **** *
 150:Generated_Source\PSoC5/PowerMonitor_1.c **** * Parameters:
 151:Generated_Source\PSoC5/PowerMonitor_1.c **** *  None
 152:Generated_Source\PSoC5/PowerMonitor_1.c **** *
 153:Generated_Source\PSoC5/PowerMonitor_1.c **** * Return:
 154:Generated_Source\PSoC5/PowerMonitor_1.c **** *  None
 155:Generated_Source\PSoC5/PowerMonitor_1.c **** *
 156:Generated_Source\PSoC5/PowerMonitor_1.c **** *******************************************************************************/
 157:Generated_Source\PSoC5/PowerMonitor_1.c **** void PowerMonitor_1_Enable(void) 
 158:Generated_Source\PSoC5/PowerMonitor_1.c **** {
 159:Generated_Source\PSoC5/PowerMonitor_1.c ****     uint8 index;
 160:Generated_Source\PSoC5/PowerMonitor_1.c ****     /* Start the hardware blocks */
 161:Generated_Source\PSoC5/PowerMonitor_1.c ****     PowerMonitor_1_PM_AMux_Voltage_Start();
 162:Generated_Source\PSoC5/PowerMonitor_1.c ****     PowerMonitor_1_PM_AMux_Current_Start();
 163:Generated_Source\PSoC5/PowerMonitor_1.c ****     PowerMonitor_1_PGA_Start();
 164:Generated_Source\PSoC5/PowerMonitor_1.c ****     #if (PowerMonitor_1_DEFAULT_SE_VOLTAGE_RANGE == PowerMonitor_1_SE_VOLTAGE_RANGE_2048MV)
 165:Generated_Source\PSoC5/PowerMonitor_1.c ****         PowerMonitor_1_PGA_SetGain(PowerMonitor_1_PGA_GAIN_01);
 166:Generated_Source\PSoC5/PowerMonitor_1.c ****     #else
 167:Generated_Source\PSoC5/PowerMonitor_1.c ****         PowerMonitor_1_PGA_SetGain(PowerMonitor_1_PGA_GAIN_02);
 168:Generated_Source\PSoC5/PowerMonitor_1.c ****     #endif /* (PowerMonitor_1_DEFAULT_SE_VOLTAGE_RANGE == PowerMonitor_1_SE_VOLTAGE_RANGE_2048MV) *
 169:Generated_Source\PSoC5/PowerMonitor_1.c **** 
 170:Generated_Source\PSoC5/PowerMonitor_1.c ****     PowerMonitor_1_initThreshold = 0u;
 171:Generated_Source\PSoC5/PowerMonitor_1.c ****     PowerMonitor_1_StartupIsr();
 172:Generated_Source\PSoC5/PowerMonitor_1.c ****     /* Set warn and fault thresholds */
 173:Generated_Source\PSoC5/PowerMonitor_1.c ****     for (index = 0u; index < PowerMonitor_1_NUMBER_OF_CONVERTERS; index++)
 174:Generated_Source\PSoC5/PowerMonitor_1.c ****     {
 175:Generated_Source\PSoC5/PowerMonitor_1.c ****         PowerMonitor_1_SetOVFaultThreshold((index + 1), PowerMonitor_1_OVFaultThreshold[index]);
 176:Generated_Source\PSoC5/PowerMonitor_1.c ****         PowerMonitor_1_SetOVWarnThreshold((index + 1), PowerMonitor_1_OVWarnThreshold[index]);
 177:Generated_Source\PSoC5/PowerMonitor_1.c ****         PowerMonitor_1_SetUVWarnThreshold((index + 1), PowerMonitor_1_UVWarnThreshold[index]);
 178:Generated_Source\PSoC5/PowerMonitor_1.c ****         PowerMonitor_1_SetUVFaultThreshold((index + 1), PowerMonitor_1_UVFaultThreshold[index]);
 179:Generated_Source\PSoC5/PowerMonitor_1.c ****         PowerMonitor_1_SetOCFaultThreshold((index + 1), PowerMonitor_1_OCFaultThreshold[index]);
 180:Generated_Source\PSoC5/PowerMonitor_1.c ****         PowerMonitor_1_SetOCWarnThreshold((index + 1), PowerMonitor_1_OCWarnThreshold[index]);
 181:Generated_Source\PSoC5/PowerMonitor_1.c ****     }
 182:Generated_Source\PSoC5/PowerMonitor_1.c ****     PowerMonitor_1_initThreshold = 1u;
 183:Generated_Source\PSoC5/PowerMonitor_1.c **** }
 184:Generated_Source\PSoC5/PowerMonitor_1.c **** 
 185:Generated_Source\PSoC5/PowerMonitor_1.c **** 
 186:Generated_Source\PSoC5/PowerMonitor_1.c **** /*******************************************************************************
 187:Generated_Source\PSoC5/PowerMonitor_1.c **** * Function Name: PowerMonitor_1_Start
 188:Generated_Source\PSoC5/PowerMonitor_1.c **** ********************************************************************************
 189:Generated_Source\PSoC5/PowerMonitor_1.c **** *
 190:Generated_Source\PSoC5/PowerMonitor_1.c **** * Summary:
 191:Generated_Source\PSoC5/PowerMonitor_1.c **** *  The start function initializes the power monitor with the default
 192:Generated_Source\PSoC5/PowerMonitor_1.c **** *  values by calling Init() API if component has been not initialized before.
 193:Generated_Source\PSoC5/PowerMonitor_1.c **** *  Also calls Enable() API.
 194:Generated_Source\PSoC5/PowerMonitor_1.c **** *
ARM GAS  C:\Users\user\AppData\Local\Temp\ccywx0XT.s 			page 5


 195:Generated_Source\PSoC5/PowerMonitor_1.c **** * Parameters:
 196:Generated_Source\PSoC5/PowerMonitor_1.c **** *  None
 197:Generated_Source\PSoC5/PowerMonitor_1.c **** *
 198:Generated_Source\PSoC5/PowerMonitor_1.c **** * Return:
 199:Generated_Source\PSoC5/PowerMonitor_1.c **** *  None
 200:Generated_Source\PSoC5/PowerMonitor_1.c **** *
 201:Generated_Source\PSoC5/PowerMonitor_1.c **** * Global variables:
 202:Generated_Source\PSoC5/PowerMonitor_1.c **** *  PowerMonitor_1_initVar:  Used to check the initial configuration,
 203:Generated_Source\PSoC5/PowerMonitor_1.c **** *  modified when this function is called for the first time.
 204:Generated_Source\PSoC5/PowerMonitor_1.c **** *
 205:Generated_Source\PSoC5/PowerMonitor_1.c **** *******************************************************************************/
 206:Generated_Source\PSoC5/PowerMonitor_1.c **** void PowerMonitor_1_Start() 
 207:Generated_Source\PSoC5/PowerMonitor_1.c **** {
 208:Generated_Source\PSoC5/PowerMonitor_1.c ****     if(PowerMonitor_1_initVar == 0u)
 209:Generated_Source\PSoC5/PowerMonitor_1.c ****     {
 210:Generated_Source\PSoC5/PowerMonitor_1.c ****        PowerMonitor_1_Init();
 211:Generated_Source\PSoC5/PowerMonitor_1.c ****        PowerMonitor_1_initVar = 1u;
 212:Generated_Source\PSoC5/PowerMonitor_1.c ****     }
 213:Generated_Source\PSoC5/PowerMonitor_1.c **** 
 214:Generated_Source\PSoC5/PowerMonitor_1.c ****     /* Enable the component */
 215:Generated_Source\PSoC5/PowerMonitor_1.c ****     PowerMonitor_1_Enable();
 216:Generated_Source\PSoC5/PowerMonitor_1.c **** }
 217:Generated_Source\PSoC5/PowerMonitor_1.c **** 
 218:Generated_Source\PSoC5/PowerMonitor_1.c **** 
 219:Generated_Source\PSoC5/PowerMonitor_1.c **** /*******************************************************************************
 220:Generated_Source\PSoC5/PowerMonitor_1.c **** * Function Name: PowerMonitor_1_Stop
 221:Generated_Source\PSoC5/PowerMonitor_1.c **** ********************************************************************************
 222:Generated_Source\PSoC5/PowerMonitor_1.c **** *
 223:Generated_Source\PSoC5/PowerMonitor_1.c **** * Summary:
 224:Generated_Source\PSoC5/PowerMonitor_1.c **** *  Stops the power monitor block operation which includes stopping of ADC
 225:Generated_Source\PSoC5/PowerMonitor_1.c **** *  sampling.
 226:Generated_Source\PSoC5/PowerMonitor_1.c **** *
 227:Generated_Source\PSoC5/PowerMonitor_1.c **** * Parameters:
 228:Generated_Source\PSoC5/PowerMonitor_1.c **** *  None
 229:Generated_Source\PSoC5/PowerMonitor_1.c **** *
 230:Generated_Source\PSoC5/PowerMonitor_1.c **** * Return:
 231:Generated_Source\PSoC5/PowerMonitor_1.c **** *  None
 232:Generated_Source\PSoC5/PowerMonitor_1.c **** *
 233:Generated_Source\PSoC5/PowerMonitor_1.c **** * Side Effects:
 234:Generated_Source\PSoC5/PowerMonitor_1.c **** *  pgood, warn, fault and eoc outputs are de-asserted.
 235:Generated_Source\PSoC5/PowerMonitor_1.c **** *
 236:Generated_Source\PSoC5/PowerMonitor_1.c **** *******************************************************************************/
 237:Generated_Source\PSoC5/PowerMonitor_1.c **** void PowerMonitor_1_Stop(void) 
 238:Generated_Source\PSoC5/PowerMonitor_1.c **** {
 239:Generated_Source\PSoC5/PowerMonitor_1.c ****     /* Disable the interrupt */
 240:Generated_Source\PSoC5/PowerMonitor_1.c ****     PowerMonitor_1_IntDisable(PowerMonitor_1_IRQ__INTC_NUMBER);
 241:Generated_Source\PSoC5/PowerMonitor_1.c **** 
 242:Generated_Source\PSoC5/PowerMonitor_1.c ****     /* Stop the hardware */
 243:Generated_Source\PSoC5/PowerMonitor_1.c ****     PowerMonitor_1_PM_AMux_Voltage_Stop();
 244:Generated_Source\PSoC5/PowerMonitor_1.c ****     PowerMonitor_1_PM_AMux_Current_Stop();
 245:Generated_Source\PSoC5/PowerMonitor_1.c ****     PowerMonitor_1_PGA_Stop();
 246:Generated_Source\PSoC5/PowerMonitor_1.c ****     PowerMonitor_1_ADC_Stop();
 247:Generated_Source\PSoC5/PowerMonitor_1.c **** 
 248:Generated_Source\PSoC5/PowerMonitor_1.c ****     /* De-assert the output signals */
 249:Generated_Source\PSoC5/PowerMonitor_1.c ****     #if !defined(PowerMonitor_1_B_PowerMonitor_SyncCtl_ctrlreg1__REMOVED)
 250:Generated_Source\PSoC5/PowerMonitor_1.c ****         PowerMonitor_1_CONTROL1_REG &= ~(PowerMonitor_1_EOC_MASK | PowerMonitor_1_WARN_MASK |
 251:Generated_Source\PSoC5/PowerMonitor_1.c ****                                            PowerMonitor_1_FAULT_MASK);
ARM GAS  C:\Users\user\AppData\Local\Temp\ccywx0XT.s 			page 6


 252:Generated_Source\PSoC5/PowerMonitor_1.c ****     #endif /* (PowerMonitor_1_B_PowerMonitor_SyncCtl_ctrlreg1__REMOVED) */
 253:Generated_Source\PSoC5/PowerMonitor_1.c **** 
 254:Generated_Source\PSoC5/PowerMonitor_1.c ****     #if !defined(PowerMonitor_1_B_PowerMonitor_Sync_PM_1_8_Ctrl1__REMOVED)
 255:Generated_Source\PSoC5/PowerMonitor_1.c ****          PowerMonitor_1_PGOOD_CONTROL1_REG &= ~PowerMonitor_1_PGOOD_CTRL_MASK;
 256:Generated_Source\PSoC5/PowerMonitor_1.c ****     #endif /* (PowerMonitor_1_B_PowerMonitor_Sync_PM_1_8_Ctrl1__REMOVED) */
 257:Generated_Source\PSoC5/PowerMonitor_1.c **** 
 258:Generated_Source\PSoC5/PowerMonitor_1.c ****     #if !defined(PowerMonitor_1_B_PowerMonitor_Sync_PM_9_16_Ctrl2__REMOVED)
 259:Generated_Source\PSoC5/PowerMonitor_1.c ****         #if (PowerMonitor_1_NUMBER_OF_CONVERTERS > PowerMonitor_1_CONVERTERS_8)
 260:Generated_Source\PSoC5/PowerMonitor_1.c ****             PowerMonitor_1_PGOOD_CONTROL2_REG &= ~PowerMonitor_1_PGOOD_CTRL_MASK;
 261:Generated_Source\PSoC5/PowerMonitor_1.c ****         #endif /* (PowerMonitor_1_NUMBER_OF_CONVERTERS > PowerMonitor_1_CONVERTERS_8) */
 262:Generated_Source\PSoC5/PowerMonitor_1.c ****     #endif /* (PowerMonitor_1_B_PowerMonitor_Sync_PM_9_16_Ctrl2__REMOVED) */
 263:Generated_Source\PSoC5/PowerMonitor_1.c **** 
 264:Generated_Source\PSoC5/PowerMonitor_1.c ****     #if !defined(PowerMonitor_1_B_PowerMonitor_Sync_PM_17_24_Ctrl3__REMOVED)
 265:Generated_Source\PSoC5/PowerMonitor_1.c ****         #if (PowerMonitor_1_NUMBER_OF_CONVERTERS > PowerMonitor_1_CONVERTERS_16)
 266:Generated_Source\PSoC5/PowerMonitor_1.c ****             PowerMonitor_1_PGOOD_CONTROL3_REG &= ~PowerMonitor_1_PGOOD_CTRL_MASK;
 267:Generated_Source\PSoC5/PowerMonitor_1.c ****         #endif /* (PowerMonitor_1_NUMBER_OF_CONVERTERS > PowerMonitor_1_CONVERTERS_16) */
 268:Generated_Source\PSoC5/PowerMonitor_1.c ****     #endif /* (PowerMonitor_1_B_PowerMonitor_Sync_PM_17_24_Ctrl3__REMOVED) */
 269:Generated_Source\PSoC5/PowerMonitor_1.c **** 
 270:Generated_Source\PSoC5/PowerMonitor_1.c ****     #if !defined(PowerMonitor_1_B_PowerMonitor_Sync_PM_25_32_Ctrl4__REMOVED)
 271:Generated_Source\PSoC5/PowerMonitor_1.c ****         #if (PowerMonitor_1_NUMBER_OF_CONVERTERS > PowerMonitor_1_CONVERTERS_24)
 272:Generated_Source\PSoC5/PowerMonitor_1.c ****             PowerMonitor_1_PGOOD_CONTROL4_REG &= ~PowerMonitor_1_PGOOD_CTRL_MASK;
 273:Generated_Source\PSoC5/PowerMonitor_1.c ****         #endif /* (PowerMonitor_1_NUMBER_OF_CONVERTERS > PowerMonitor_1_CONVERTERS_24)*/
 274:Generated_Source\PSoC5/PowerMonitor_1.c ****     #endif /* (PowerMonitor_1_B_PowerMonitor_Sync_PM_25_32_Ctrl4__REMOVED) */
 275:Generated_Source\PSoC5/PowerMonitor_1.c **** }
 276:Generated_Source\PSoC5/PowerMonitor_1.c **** 
 277:Generated_Source\PSoC5/PowerMonitor_1.c **** 
 278:Generated_Source\PSoC5/PowerMonitor_1.c **** /*******************************************************************************
 279:Generated_Source\PSoC5/PowerMonitor_1.c **** * Function Name: PowerMonitor_1_EnableFault
 280:Generated_Source\PSoC5/PowerMonitor_1.c **** ********************************************************************************
 281:Generated_Source\PSoC5/PowerMonitor_1.c **** *
 282:Generated_Source\PSoC5/PowerMonitor_1.c **** * Summary:
 283:Generated_Source\PSoC5/PowerMonitor_1.c **** *  This API enables the generation of Fault signal. Enabling of fault sources
 284:Generated_Source\PSoC5/PowerMonitor_1.c **** *  is configured using the PowerMonitor_1_SetFaultMode() and the
 285:Generated_Source\PSoC5/PowerMonitor_1.c **** *  PowerMonitor_1_SetFaultMask() APIs. Fault signal generation is
 286:Generated_Source\PSoC5/PowerMonitor_1.c **** *  automatically enabled by Init() API.
 287:Generated_Source\PSoC5/PowerMonitor_1.c **** *
 288:Generated_Source\PSoC5/PowerMonitor_1.c **** * Parameters:
 289:Generated_Source\PSoC5/PowerMonitor_1.c **** *  None
 290:Generated_Source\PSoC5/PowerMonitor_1.c **** *
 291:Generated_Source\PSoC5/PowerMonitor_1.c **** * Return:
 292:Generated_Source\PSoC5/PowerMonitor_1.c **** *  None
 293:Generated_Source\PSoC5/PowerMonitor_1.c **** *
 294:Generated_Source\PSoC5/PowerMonitor_1.c **** *******************************************************************************/
 295:Generated_Source\PSoC5/PowerMonitor_1.c **** void PowerMonitor_1_EnableFault(void) 
 296:Generated_Source\PSoC5/PowerMonitor_1.c **** {
 297:Generated_Source\PSoC5/PowerMonitor_1.c ****     /* Enable fault */
 298:Generated_Source\PSoC5/PowerMonitor_1.c ****     PowerMonitor_1_faultEnable = PowerMonitor_1_CYTRUE;
 299:Generated_Source\PSoC5/PowerMonitor_1.c **** }
 300:Generated_Source\PSoC5/PowerMonitor_1.c **** 
 301:Generated_Source\PSoC5/PowerMonitor_1.c **** 
 302:Generated_Source\PSoC5/PowerMonitor_1.c **** /*******************************************************************************
 303:Generated_Source\PSoC5/PowerMonitor_1.c **** * Function Name: PowerMonitor_1_DisableFault
 304:Generated_Source\PSoC5/PowerMonitor_1.c **** ********************************************************************************
 305:Generated_Source\PSoC5/PowerMonitor_1.c **** *
 306:Generated_Source\PSoC5/PowerMonitor_1.c **** * Summary:
 307:Generated_Source\PSoC5/PowerMonitor_1.c **** *  Disables the genration of Fault signal.
 308:Generated_Source\PSoC5/PowerMonitor_1.c **** *
ARM GAS  C:\Users\user\AppData\Local\Temp\ccywx0XT.s 			page 7


 309:Generated_Source\PSoC5/PowerMonitor_1.c **** * Parameters:
 310:Generated_Source\PSoC5/PowerMonitor_1.c **** *  None
 311:Generated_Source\PSoC5/PowerMonitor_1.c **** *
 312:Generated_Source\PSoC5/PowerMonitor_1.c **** * Return:
 313:Generated_Source\PSoC5/PowerMonitor_1.c **** *  None
 314:Generated_Source\PSoC5/PowerMonitor_1.c **** *
 315:Generated_Source\PSoC5/PowerMonitor_1.c **** * Side Effects:
 316:Generated_Source\PSoC5/PowerMonitor_1.c **** *  Fault output is de-asserted.
 317:Generated_Source\PSoC5/PowerMonitor_1.c **** *
 318:Generated_Source\PSoC5/PowerMonitor_1.c **** *******************************************************************************/
 319:Generated_Source\PSoC5/PowerMonitor_1.c **** void PowerMonitor_1_DisableFault(void) 
 320:Generated_Source\PSoC5/PowerMonitor_1.c **** {
 321:Generated_Source\PSoC5/PowerMonitor_1.c ****     /* Disable the fault */
 322:Generated_Source\PSoC5/PowerMonitor_1.c ****     PowerMonitor_1_faultEnable = PowerMonitor_1_CYFALSE;
 323:Generated_Source\PSoC5/PowerMonitor_1.c ****     /* De-assert the fault output signal */
 324:Generated_Source\PSoC5/PowerMonitor_1.c ****     #if !defined(PowerMonitor_1_B_PowerMonitor_SyncCtl_ctrlreg1__REMOVED)
 325:Generated_Source\PSoC5/PowerMonitor_1.c ****         /* Disable the interrupt */
 326:Generated_Source\PSoC5/PowerMonitor_1.c ****         PowerMonitor_1_IntDisable(PowerMonitor_1_IRQ__INTC_NUMBER);
 327:Generated_Source\PSoC5/PowerMonitor_1.c ****         PowerMonitor_1_CONTROL1_REG &= ~PowerMonitor_1_FAULT_MASK;
 328:Generated_Source\PSoC5/PowerMonitor_1.c ****         /* Enable the interrupt */
 329:Generated_Source\PSoC5/PowerMonitor_1.c ****         PowerMonitor_1_IntEnable(PowerMonitor_1_IRQ__INTC_NUMBER);
 330:Generated_Source\PSoC5/PowerMonitor_1.c ****     #endif /* (PowerMonitor_1_B_PowerMonitor_SyncCtl_ctrlreg1__REMOVED) */
 331:Generated_Source\PSoC5/PowerMonitor_1.c **** }
 332:Generated_Source\PSoC5/PowerMonitor_1.c **** 
 333:Generated_Source\PSoC5/PowerMonitor_1.c **** 
 334:Generated_Source\PSoC5/PowerMonitor_1.c **** /*******************************************************************************
 335:Generated_Source\PSoC5/PowerMonitor_1.c **** * Function Name: PowerMonitor_1_SetFaultMode
 336:Generated_Source\PSoC5/PowerMonitor_1.c **** ********************************************************************************
 337:Generated_Source\PSoC5/PowerMonitor_1.c **** *
 338:Generated_Source\PSoC5/PowerMonitor_1.c **** * Summary:
 339:Generated_Source\PSoC5/PowerMonitor_1.c **** *  This API configures Fault sources for the component. Three Fault sources
 340:Generated_Source\PSoC5/PowerMonitor_1.c **** *  available are: OV, UV, and OC.
 341:Generated_Source\PSoC5/PowerMonitor_1.c **** *
 342:Generated_Source\PSoC5/PowerMonitor_1.c **** * Parameters:
 343:Generated_Source\PSoC5/PowerMonitor_1.c **** *  uint8 faultMode: Value to set Fault sources.
 344:Generated_Source\PSoC5/PowerMonitor_1.c **** *
 345:Generated_Source\PSoC5/PowerMonitor_1.c **** * Return:
 346:Generated_Source\PSoC5/PowerMonitor_1.c **** *  None
 347:Generated_Source\PSoC5/PowerMonitor_1.c **** *
 348:Generated_Source\PSoC5/PowerMonitor_1.c **** *******************************************************************************/
 349:Generated_Source\PSoC5/PowerMonitor_1.c **** void PowerMonitor_1_SetFaultMode(uint8 faultMode) 
 350:Generated_Source\PSoC5/PowerMonitor_1.c **** {
 351:Generated_Source\PSoC5/PowerMonitor_1.c ****     /* Set the fault mode */
 352:Generated_Source\PSoC5/PowerMonitor_1.c ****     PowerMonitor_1_faultSources = faultMode & PowerMonitor_1_FAULT_MODE_MASK;
 353:Generated_Source\PSoC5/PowerMonitor_1.c **** }
 354:Generated_Source\PSoC5/PowerMonitor_1.c **** 
 355:Generated_Source\PSoC5/PowerMonitor_1.c **** 
 356:Generated_Source\PSoC5/PowerMonitor_1.c **** /*******************************************************************************
 357:Generated_Source\PSoC5/PowerMonitor_1.c **** * Function Name: PowerMonitor_1_GetFaultMode
 358:Generated_Source\PSoC5/PowerMonitor_1.c **** ********************************************************************************
 359:Generated_Source\PSoC5/PowerMonitor_1.c **** *
 360:Generated_Source\PSoC5/PowerMonitor_1.c **** * Summary:
 361:Generated_Source\PSoC5/PowerMonitor_1.c **** *  This API returns the enabled Fault sources for the component.
 362:Generated_Source\PSoC5/PowerMonitor_1.c **** *
 363:Generated_Source\PSoC5/PowerMonitor_1.c **** * Parameters:
 364:Generated_Source\PSoC5/PowerMonitor_1.c **** *  None
 365:Generated_Source\PSoC5/PowerMonitor_1.c **** *
ARM GAS  C:\Users\user\AppData\Local\Temp\ccywx0XT.s 			page 8


 366:Generated_Source\PSoC5/PowerMonitor_1.c **** * Return:
 367:Generated_Source\PSoC5/PowerMonitor_1.c **** *  uint8: The value corresponding to the enabled fault sources.
 368:Generated_Source\PSoC5/PowerMonitor_1.c **** *
 369:Generated_Source\PSoC5/PowerMonitor_1.c **** *******************************************************************************/
 370:Generated_Source\PSoC5/PowerMonitor_1.c **** uint8 PowerMonitor_1_GetFaultMode(void) 
 371:Generated_Source\PSoC5/PowerMonitor_1.c **** {
 372:Generated_Source\PSoC5/PowerMonitor_1.c ****     return (PowerMonitor_1_faultSources);
 373:Generated_Source\PSoC5/PowerMonitor_1.c **** }
 374:Generated_Source\PSoC5/PowerMonitor_1.c **** 
 375:Generated_Source\PSoC5/PowerMonitor_1.c **** 
 376:Generated_Source\PSoC5/PowerMonitor_1.c **** /*******************************************************************************
 377:Generated_Source\PSoC5/PowerMonitor_1.c **** * Function Name: PowerMonitor_1_SetFaultMask
 378:Generated_Source\PSoC5/PowerMonitor_1.c **** ********************************************************************************
 379:Generated_Source\PSoC5/PowerMonitor_1.c **** *
 380:Generated_Source\PSoC5/PowerMonitor_1.c **** * Summary:
 381:Generated_Source\PSoC5/PowerMonitor_1.c **** *  This API enables or disables faults from each power converters through a
 382:Generated_Source\PSoC5/PowerMonitor_1.c **** *  mask. Masking applies to all fault sources. By default all power converters
 383:Generated_Source\PSoC5/PowerMonitor_1.c **** *  have their fault masks enabled.
 384:Generated_Source\PSoC5/PowerMonitor_1.c **** *
 385:Generated_Source\PSoC5/PowerMonitor_1.c **** * Parameters:
 386:Generated_Source\PSoC5/PowerMonitor_1.c **** *  uint32 faultMask: 32-bit mask value
 387:Generated_Source\PSoC5/PowerMonitor_1.c **** *
 388:Generated_Source\PSoC5/PowerMonitor_1.c **** * Return:
 389:Generated_Source\PSoC5/PowerMonitor_1.c **** *  None
 390:Generated_Source\PSoC5/PowerMonitor_1.c **** *
 391:Generated_Source\PSoC5/PowerMonitor_1.c **** *******************************************************************************/
 392:Generated_Source\PSoC5/PowerMonitor_1.c **** void PowerMonitor_1_SetFaultMask(uint32 faultMask) 
 393:Generated_Source\PSoC5/PowerMonitor_1.c **** {
 394:Generated_Source\PSoC5/PowerMonitor_1.c ****     /* Disable the interrupt */
 395:Generated_Source\PSoC5/PowerMonitor_1.c ****     PowerMonitor_1_IntDisable(PowerMonitor_1_IRQ__INTC_NUMBER);
 396:Generated_Source\PSoC5/PowerMonitor_1.c ****     /* Set the fault mask */
 397:Generated_Source\PSoC5/PowerMonitor_1.c ****     PowerMonitor_1_faultMask = faultMask & PowerMonitor_1_DEFAULT_FAULT_MASK;
 398:Generated_Source\PSoC5/PowerMonitor_1.c ****     /* Enable the interrupt */
 399:Generated_Source\PSoC5/PowerMonitor_1.c ****     PowerMonitor_1_IntEnable(PowerMonitor_1_IRQ__INTC_NUMBER);
 400:Generated_Source\PSoC5/PowerMonitor_1.c **** }
 401:Generated_Source\PSoC5/PowerMonitor_1.c **** 
 402:Generated_Source\PSoC5/PowerMonitor_1.c **** 
 403:Generated_Source\PSoC5/PowerMonitor_1.c **** /*******************************************************************************
 404:Generated_Source\PSoC5/PowerMonitor_1.c **** * Function Name: PowerMonitor_1_GetFaultMask
 405:Generated_Source\PSoC5/PowerMonitor_1.c **** ********************************************************************************
 406:Generated_Source\PSoC5/PowerMonitor_1.c **** *
 407:Generated_Source\PSoC5/PowerMonitor_1.c **** * Summary:
 408:Generated_Source\PSoC5/PowerMonitor_1.c **** *  This API returns fault mask status of each power converter. Masking applies
 409:Generated_Source\PSoC5/PowerMonitor_1.c **** *  to all sources.
 410:Generated_Source\PSoC5/PowerMonitor_1.c **** *
 411:Generated_Source\PSoC5/PowerMonitor_1.c **** * Parameters:
 412:Generated_Source\PSoC5/PowerMonitor_1.c **** *  None
 413:Generated_Source\PSoC5/PowerMonitor_1.c **** *
 414:Generated_Source\PSoC5/PowerMonitor_1.c **** * Return:
 415:Generated_Source\PSoC5/PowerMonitor_1.c **** *  uint32: 32-bit mask value set for each of the sources.
 416:Generated_Source\PSoC5/PowerMonitor_1.c **** *
 417:Generated_Source\PSoC5/PowerMonitor_1.c **** *******************************************************************************/
 418:Generated_Source\PSoC5/PowerMonitor_1.c **** uint32 PowerMonitor_1_GetFaultMask(void) 
 419:Generated_Source\PSoC5/PowerMonitor_1.c **** {
 420:Generated_Source\PSoC5/PowerMonitor_1.c ****     return (PowerMonitor_1_faultMask);
 421:Generated_Source\PSoC5/PowerMonitor_1.c **** }
 422:Generated_Source\PSoC5/PowerMonitor_1.c **** 
ARM GAS  C:\Users\user\AppData\Local\Temp\ccywx0XT.s 			page 9


 423:Generated_Source\PSoC5/PowerMonitor_1.c **** 
 424:Generated_Source\PSoC5/PowerMonitor_1.c **** /*******************************************************************************
 425:Generated_Source\PSoC5/PowerMonitor_1.c **** * Function Name: PowerMonitor_1_GetFaultSource
 426:Generated_Source\PSoC5/PowerMonitor_1.c **** ********************************************************************************
 427:Generated_Source\PSoC5/PowerMonitor_1.c **** *
 428:Generated_Source\PSoC5/PowerMonitor_1.c **** * Summary:
 429:Generated_Source\PSoC5/PowerMonitor_1.c **** *  This API returns the pending fault source. This API can
 430:Generated_Source\PSoC5/PowerMonitor_1.c **** *  be used to poll the fault status of the component.
 431:Generated_Source\PSoC5/PowerMonitor_1.c **** *
 432:Generated_Source\PSoC5/PowerMonitor_1.c **** * Parameters:
 433:Generated_Source\PSoC5/PowerMonitor_1.c **** *  None
 434:Generated_Source\PSoC5/PowerMonitor_1.c **** *
 435:Generated_Source\PSoC5/PowerMonitor_1.c **** * Return:
 436:Generated_Source\PSoC5/PowerMonitor_1.c **** *  uint8: 8-bit value indicating pending fault sources form the component.
 437:Generated_Source\PSoC5/PowerMonitor_1.c **** *
 438:Generated_Source\PSoC5/PowerMonitor_1.c **** *******************************************************************************/
 439:Generated_Source\PSoC5/PowerMonitor_1.c **** uint8 PowerMonitor_1_GetFaultSource(void) 
 440:Generated_Source\PSoC5/PowerMonitor_1.c **** {
 441:Generated_Source\PSoC5/PowerMonitor_1.c ****     /* Get the status */
 442:Generated_Source\PSoC5/PowerMonitor_1.c ****     return (PowerMonitor_1_faultSourceStatus);
 443:Generated_Source\PSoC5/PowerMonitor_1.c **** }
 444:Generated_Source\PSoC5/PowerMonitor_1.c **** 
 445:Generated_Source\PSoC5/PowerMonitor_1.c **** 
 446:Generated_Source\PSoC5/PowerMonitor_1.c **** /*******************************************************************************
 447:Generated_Source\PSoC5/PowerMonitor_1.c **** * Function Name: PowerMonitor_1_GetOVFaultStatus
 448:Generated_Source\PSoC5/PowerMonitor_1.c **** ********************************************************************************
 449:Generated_Source\PSoC5/PowerMonitor_1.c **** *
 450:Generated_Source\PSoC5/PowerMonitor_1.c **** * Summary:
 451:Generated_Source\PSoC5/PowerMonitor_1.c **** *  This API returns over voltage fault status of each of the power converters.
 452:Generated_Source\PSoC5/PowerMonitor_1.c **** *  Status is reported regardless of the Fault Mask.
 453:Generated_Source\PSoC5/PowerMonitor_1.c **** *
 454:Generated_Source\PSoC5/PowerMonitor_1.c **** * Parameters:
 455:Generated_Source\PSoC5/PowerMonitor_1.c **** *  None
 456:Generated_Source\PSoC5/PowerMonitor_1.c **** *
 457:Generated_Source\PSoC5/PowerMonitor_1.c **** * Return:
 458:Generated_Source\PSoC5/PowerMonitor_1.c **** *  uint32: 32-bit value indicating OV status of power converters
 459:Generated_Source\PSoC5/PowerMonitor_1.c **** *
 460:Generated_Source\PSoC5/PowerMonitor_1.c **** * Side Effects:
 461:Generated_Source\PSoC5/PowerMonitor_1.c **** *  Calling this API clears the Fault condition source sticky bits.
 462:Generated_Source\PSoC5/PowerMonitor_1.c **** *
 463:Generated_Source\PSoC5/PowerMonitor_1.c **** *******************************************************************************/
 464:Generated_Source\PSoC5/PowerMonitor_1.c **** uint32 PowerMonitor_1_GetOVFaultStatus(void) 
 465:Generated_Source\PSoC5/PowerMonitor_1.c **** {
 466:Generated_Source\PSoC5/PowerMonitor_1.c ****     uint32 OVFaultStatus;
 467:Generated_Source\PSoC5/PowerMonitor_1.c ****     /* Disable the interrupt */
 468:Generated_Source\PSoC5/PowerMonitor_1.c ****     PowerMonitor_1_IntDisable(PowerMonitor_1_IRQ__INTC_NUMBER);
 469:Generated_Source\PSoC5/PowerMonitor_1.c ****     /* Read the over voltage fault status */
 470:Generated_Source\PSoC5/PowerMonitor_1.c ****     OVFaultStatus = PowerMonitor_1_OVFaultStatus;
 471:Generated_Source\PSoC5/PowerMonitor_1.c ****     /* Clear OV fault source status bit */
 472:Generated_Source\PSoC5/PowerMonitor_1.c ****     PowerMonitor_1_faultSourceStatus &= ~PowerMonitor_1_ENABLE_OV_FAULT_SOURCE;
 473:Generated_Source\PSoC5/PowerMonitor_1.c ****     /* Clear OV fault status */
 474:Generated_Source\PSoC5/PowerMonitor_1.c ****     PowerMonitor_1_OVFaultStatus = PowerMonitor_1_RESET_OV_FAULT_STATUS;
 475:Generated_Source\PSoC5/PowerMonitor_1.c ****     /* Check for other possible fault and then clear the hardware */
 476:Generated_Source\PSoC5/PowerMonitor_1.c ****     #if !defined(PowerMonitor_1_B_PowerMonitor_SyncCtl_ctrlreg1__REMOVED)
 477:Generated_Source\PSoC5/PowerMonitor_1.c ****         if((PowerMonitor_1_UVFaultStatus == PowerMonitor_1_RESET_UV_FAULT_STATUS) &&
 478:Generated_Source\PSoC5/PowerMonitor_1.c ****            (PowerMonitor_1_OCFaultStatus == PowerMonitor_1_RESET_OC_FAULT_STATUS))
 479:Generated_Source\PSoC5/PowerMonitor_1.c ****         {
ARM GAS  C:\Users\user\AppData\Local\Temp\ccywx0XT.s 			page 10


 480:Generated_Source\PSoC5/PowerMonitor_1.c ****             PowerMonitor_1_CONTROL1_REG &= ~PowerMonitor_1_FAULT_MASK;
 481:Generated_Source\PSoC5/PowerMonitor_1.c ****         }
 482:Generated_Source\PSoC5/PowerMonitor_1.c ****     #endif /* (PowerMonitor_1_B_PowerMonitor_SyncCtl_ctrlreg1__REMOVED) */
 483:Generated_Source\PSoC5/PowerMonitor_1.c **** 
 484:Generated_Source\PSoC5/PowerMonitor_1.c ****     /* Enable the interrupt */
 485:Generated_Source\PSoC5/PowerMonitor_1.c ****     PowerMonitor_1_IntEnable(PowerMonitor_1_IRQ__INTC_NUMBER);
 486:Generated_Source\PSoC5/PowerMonitor_1.c **** 
 487:Generated_Source\PSoC5/PowerMonitor_1.c ****     return (OVFaultStatus);
 488:Generated_Source\PSoC5/PowerMonitor_1.c **** }
 489:Generated_Source\PSoC5/PowerMonitor_1.c **** 
 490:Generated_Source\PSoC5/PowerMonitor_1.c **** 
 491:Generated_Source\PSoC5/PowerMonitor_1.c **** /*******************************************************************************
 492:Generated_Source\PSoC5/PowerMonitor_1.c **** * Function Name: PowerMonitor_1_GetUVFaultStatus
 493:Generated_Source\PSoC5/PowerMonitor_1.c **** ********************************************************************************
 494:Generated_Source\PSoC5/PowerMonitor_1.c **** *
 495:Generated_Source\PSoC5/PowerMonitor_1.c **** * Summary:
 496:Generated_Source\PSoC5/PowerMonitor_1.c **** *  This API returns under voltage fault status of each of the power converters.
 497:Generated_Source\PSoC5/PowerMonitor_1.c **** *
 498:Generated_Source\PSoC5/PowerMonitor_1.c **** * Parameters:
 499:Generated_Source\PSoC5/PowerMonitor_1.c **** *  None
 500:Generated_Source\PSoC5/PowerMonitor_1.c **** *
 501:Generated_Source\PSoC5/PowerMonitor_1.c **** * Return:
 502:Generated_Source\PSoC5/PowerMonitor_1.c **** *  uint32: 32-bit value indicating under voltage status of power converters.
 503:Generated_Source\PSoC5/PowerMonitor_1.c **** *
 504:Generated_Source\PSoC5/PowerMonitor_1.c **** * Side Effects:
 505:Generated_Source\PSoC5/PowerMonitor_1.c **** *  Calling this API clears the fault condition source sticky bits.
 506:Generated_Source\PSoC5/PowerMonitor_1.c **** *
 507:Generated_Source\PSoC5/PowerMonitor_1.c **** *******************************************************************************/
 508:Generated_Source\PSoC5/PowerMonitor_1.c **** uint32 PowerMonitor_1_GetUVFaultStatus(void) 
 509:Generated_Source\PSoC5/PowerMonitor_1.c **** {
 510:Generated_Source\PSoC5/PowerMonitor_1.c ****     uint32 UVFaultStatus;
 511:Generated_Source\PSoC5/PowerMonitor_1.c **** 
 512:Generated_Source\PSoC5/PowerMonitor_1.c ****     /* Disable the interrupt */
 513:Generated_Source\PSoC5/PowerMonitor_1.c ****     PowerMonitor_1_IntDisable(PowerMonitor_1_IRQ__INTC_NUMBER);
 514:Generated_Source\PSoC5/PowerMonitor_1.c ****     /* Read the under voltage fault status */
 515:Generated_Source\PSoC5/PowerMonitor_1.c ****     UVFaultStatus = PowerMonitor_1_UVFaultStatus;
 516:Generated_Source\PSoC5/PowerMonitor_1.c ****     /* Clear UV fault source status bit */
 517:Generated_Source\PSoC5/PowerMonitor_1.c ****     PowerMonitor_1_faultSourceStatus &= ~PowerMonitor_1_ENABLE_UV_FAULT_SOURCE;
 518:Generated_Source\PSoC5/PowerMonitor_1.c ****     /* Clear UV fault status */
 519:Generated_Source\PSoC5/PowerMonitor_1.c ****     PowerMonitor_1_UVFaultStatus = PowerMonitor_1_RESET_UV_FAULT_STATUS;
 520:Generated_Source\PSoC5/PowerMonitor_1.c ****     /* Check for other possible fault and then clear the hardware */
 521:Generated_Source\PSoC5/PowerMonitor_1.c ****     #if !defined(PowerMonitor_1_B_PowerMonitor_SyncCtl_ctrlreg1__REMOVED)
 522:Generated_Source\PSoC5/PowerMonitor_1.c ****         if((PowerMonitor_1_OVFaultStatus == PowerMonitor_1_RESET_OV_FAULT_STATUS) &&
 523:Generated_Source\PSoC5/PowerMonitor_1.c ****            (PowerMonitor_1_OCFaultStatus == PowerMonitor_1_RESET_OC_FAULT_STATUS))
 524:Generated_Source\PSoC5/PowerMonitor_1.c ****         {
 525:Generated_Source\PSoC5/PowerMonitor_1.c ****             PowerMonitor_1_CONTROL1_REG &= ~PowerMonitor_1_FAULT_MASK;
 526:Generated_Source\PSoC5/PowerMonitor_1.c ****         }
 527:Generated_Source\PSoC5/PowerMonitor_1.c ****     #endif /* (PowerMonitor_1_B_PowerMonitor_SyncCtl_ctrlreg1__REMOVED) */
 528:Generated_Source\PSoC5/PowerMonitor_1.c **** 
 529:Generated_Source\PSoC5/PowerMonitor_1.c ****     /* Enable the interrupt */
 530:Generated_Source\PSoC5/PowerMonitor_1.c ****     PowerMonitor_1_IntEnable(PowerMonitor_1_IRQ__INTC_NUMBER);
 531:Generated_Source\PSoC5/PowerMonitor_1.c **** 
 532:Generated_Source\PSoC5/PowerMonitor_1.c ****     return (UVFaultStatus);
 533:Generated_Source\PSoC5/PowerMonitor_1.c **** }
 534:Generated_Source\PSoC5/PowerMonitor_1.c **** 
 535:Generated_Source\PSoC5/PowerMonitor_1.c **** 
 536:Generated_Source\PSoC5/PowerMonitor_1.c **** /*******************************************************************************
ARM GAS  C:\Users\user\AppData\Local\Temp\ccywx0XT.s 			page 11


 537:Generated_Source\PSoC5/PowerMonitor_1.c **** * Function Name: PowerMonitor_1_GetOCFaultStatus
 538:Generated_Source\PSoC5/PowerMonitor_1.c **** ********************************************************************************
 539:Generated_Source\PSoC5/PowerMonitor_1.c **** *
 540:Generated_Source\PSoC5/PowerMonitor_1.c **** * Summary:
 541:Generated_Source\PSoC5/PowerMonitor_1.c **** *  This API returns Over current fault status of each of the power converters.
 542:Generated_Source\PSoC5/PowerMonitor_1.c **** *  The status is regardless of fault mask.
 543:Generated_Source\PSoC5/PowerMonitor_1.c **** *
 544:Generated_Source\PSoC5/PowerMonitor_1.c **** * Parameters:
 545:Generated_Source\PSoC5/PowerMonitor_1.c **** *  None
 546:Generated_Source\PSoC5/PowerMonitor_1.c **** *
 547:Generated_Source\PSoC5/PowerMonitor_1.c **** * Return:
 548:Generated_Source\PSoC5/PowerMonitor_1.c **** *  uint32: 32-bit valud indicating Over current status of power converters.
 549:Generated_Source\PSoC5/PowerMonitor_1.c **** *
 550:Generated_Source\PSoC5/PowerMonitor_1.c **** * Side Effects:
 551:Generated_Source\PSoC5/PowerMonitor_1.c **** *  Calling this API clears the fault condition source sticky bits.
 552:Generated_Source\PSoC5/PowerMonitor_1.c **** *
 553:Generated_Source\PSoC5/PowerMonitor_1.c **** *******************************************************************************/
 554:Generated_Source\PSoC5/PowerMonitor_1.c **** uint32 PowerMonitor_1_GetOCFaultStatus(void) 
 555:Generated_Source\PSoC5/PowerMonitor_1.c **** {
 556:Generated_Source\PSoC5/PowerMonitor_1.c ****     uint32 OCFaultStatus;
 557:Generated_Source\PSoC5/PowerMonitor_1.c ****     /* Disable the interrupt */
 558:Generated_Source\PSoC5/PowerMonitor_1.c ****     PowerMonitor_1_IntDisable(PowerMonitor_1_IRQ__INTC_NUMBER);
 559:Generated_Source\PSoC5/PowerMonitor_1.c ****     /* Read the over current fault status */
 560:Generated_Source\PSoC5/PowerMonitor_1.c ****     OCFaultStatus = PowerMonitor_1_OCFaultStatus;
 561:Generated_Source\PSoC5/PowerMonitor_1.c ****     /* Clear OC fault source status bit */
 562:Generated_Source\PSoC5/PowerMonitor_1.c ****     PowerMonitor_1_faultSourceStatus &= ~PowerMonitor_1_ENABLE_OC_FAULT_SOURCE;
 563:Generated_Source\PSoC5/PowerMonitor_1.c ****     /* Clear OC fault status */
 564:Generated_Source\PSoC5/PowerMonitor_1.c ****     PowerMonitor_1_OCFaultStatus = PowerMonitor_1_RESET_OC_FAULT_STATUS;
 565:Generated_Source\PSoC5/PowerMonitor_1.c ****     /* Check for other possible fault and then clear the hardware */
 566:Generated_Source\PSoC5/PowerMonitor_1.c ****     #if !defined(PowerMonitor_1_B_PowerMonitor_SyncCtl_ctrlreg1__REMOVED)
 567:Generated_Source\PSoC5/PowerMonitor_1.c ****         if((PowerMonitor_1_UVFaultStatus == PowerMonitor_1_RESET_UV_FAULT_STATUS) &&
 568:Generated_Source\PSoC5/PowerMonitor_1.c ****            (PowerMonitor_1_OVFaultStatus == PowerMonitor_1_RESET_OV_FAULT_STATUS))
 569:Generated_Source\PSoC5/PowerMonitor_1.c ****         {
 570:Generated_Source\PSoC5/PowerMonitor_1.c ****             PowerMonitor_1_CONTROL1_REG &= ~PowerMonitor_1_FAULT_MASK;
 571:Generated_Source\PSoC5/PowerMonitor_1.c ****         }
 572:Generated_Source\PSoC5/PowerMonitor_1.c ****     #endif /* (PowerMonitor_1_B_PowerMonitor_SyncCtl_ctrlreg1__REMOVED) */
 573:Generated_Source\PSoC5/PowerMonitor_1.c **** 
 574:Generated_Source\PSoC5/PowerMonitor_1.c ****     /* Enable the interrupt */
 575:Generated_Source\PSoC5/PowerMonitor_1.c ****     PowerMonitor_1_IntEnable(PowerMonitor_1_IRQ__INTC_NUMBER);
 576:Generated_Source\PSoC5/PowerMonitor_1.c **** 
 577:Generated_Source\PSoC5/PowerMonitor_1.c ****     return (OCFaultStatus);
 578:Generated_Source\PSoC5/PowerMonitor_1.c **** }
 579:Generated_Source\PSoC5/PowerMonitor_1.c **** 
 580:Generated_Source\PSoC5/PowerMonitor_1.c **** 
 581:Generated_Source\PSoC5/PowerMonitor_1.c **** /*******************************************************************************
 582:Generated_Source\PSoC5/PowerMonitor_1.c **** * Function Name: PowerMonitor_1_EnableWarn
 583:Generated_Source\PSoC5/PowerMonitor_1.c **** ********************************************************************************
 584:Generated_Source\PSoC5/PowerMonitor_1.c **** *
 585:Generated_Source\PSoC5/PowerMonitor_1.c **** * Summary:
 586:Generated_Source\PSoC5/PowerMonitor_1.c **** *  This API enables the generation of warning signal. Enabling of warning
 587:Generated_Source\PSoC5/PowerMonitor_1.c **** *  sources is configured using PowerMonitor_1_SetWarnMode() and
 588:Generated_Source\PSoC5/PowerMonitor_1.c **** *  PowerMonitor_1_SetWarnMask() APIs. Warning signal generation is
 589:Generated_Source\PSoC5/PowerMonitor_1.c **** *  automatically enabled by the Init() API.
 590:Generated_Source\PSoC5/PowerMonitor_1.c **** *
 591:Generated_Source\PSoC5/PowerMonitor_1.c **** * Parameters:
 592:Generated_Source\PSoC5/PowerMonitor_1.c **** *  None
 593:Generated_Source\PSoC5/PowerMonitor_1.c **** *
ARM GAS  C:\Users\user\AppData\Local\Temp\ccywx0XT.s 			page 12


 594:Generated_Source\PSoC5/PowerMonitor_1.c **** * Return:
 595:Generated_Source\PSoC5/PowerMonitor_1.c **** *  None
 596:Generated_Source\PSoC5/PowerMonitor_1.c **** *
 597:Generated_Source\PSoC5/PowerMonitor_1.c **** *******************************************************************************/
 598:Generated_Source\PSoC5/PowerMonitor_1.c **** void PowerMonitor_1_EnableWarn(void) 
 599:Generated_Source\PSoC5/PowerMonitor_1.c **** {
 600:Generated_Source\PSoC5/PowerMonitor_1.c ****     /* Enable the warn */
 601:Generated_Source\PSoC5/PowerMonitor_1.c ****     PowerMonitor_1_warnEnable = PowerMonitor_1_CYTRUE;
 602:Generated_Source\PSoC5/PowerMonitor_1.c **** }
 603:Generated_Source\PSoC5/PowerMonitor_1.c **** 
 604:Generated_Source\PSoC5/PowerMonitor_1.c **** 
 605:Generated_Source\PSoC5/PowerMonitor_1.c **** /*******************************************************************************
 606:Generated_Source\PSoC5/PowerMonitor_1.c **** * Function Name: PowerMonitor_1_DisableWarn
 607:Generated_Source\PSoC5/PowerMonitor_1.c **** ********************************************************************************
 608:Generated_Source\PSoC5/PowerMonitor_1.c **** *
 609:Generated_Source\PSoC5/PowerMonitor_1.c **** * Summary:
 610:Generated_Source\PSoC5/PowerMonitor_1.c **** *  Disables the generation of warning signal.
 611:Generated_Source\PSoC5/PowerMonitor_1.c **** *
 612:Generated_Source\PSoC5/PowerMonitor_1.c **** * Parameters:
 613:Generated_Source\PSoC5/PowerMonitor_1.c **** *  None
 614:Generated_Source\PSoC5/PowerMonitor_1.c **** *
 615:Generated_Source\PSoC5/PowerMonitor_1.c **** * Return:
 616:Generated_Source\PSoC5/PowerMonitor_1.c **** *  None
 617:Generated_Source\PSoC5/PowerMonitor_1.c **** *
 618:Generated_Source\PSoC5/PowerMonitor_1.c **** * Side Effects:
 619:Generated_Source\PSoC5/PowerMonitor_1.c **** *  Warning output is de-asserted.
 620:Generated_Source\PSoC5/PowerMonitor_1.c **** *
 621:Generated_Source\PSoC5/PowerMonitor_1.c **** *******************************************************************************/
 622:Generated_Source\PSoC5/PowerMonitor_1.c **** void PowerMonitor_1_DisableWarn(void) 
 623:Generated_Source\PSoC5/PowerMonitor_1.c **** {
 624:Generated_Source\PSoC5/PowerMonitor_1.c ****     /* Disable the warn */
 625:Generated_Source\PSoC5/PowerMonitor_1.c ****     PowerMonitor_1_warnEnable = PowerMonitor_1_CYFALSE;
 626:Generated_Source\PSoC5/PowerMonitor_1.c ****     /* De-assert the warn signal */
 627:Generated_Source\PSoC5/PowerMonitor_1.c ****     #if !defined(PowerMonitor_1_B_PowerMonitor_SyncCtl_ctrlreg1__REMOVED)
 628:Generated_Source\PSoC5/PowerMonitor_1.c ****         /* Disable the interrupt */
 629:Generated_Source\PSoC5/PowerMonitor_1.c ****         PowerMonitor_1_IntDisable(PowerMonitor_1_IRQ__INTC_NUMBER);
 630:Generated_Source\PSoC5/PowerMonitor_1.c ****         PowerMonitor_1_CONTROL1_REG &= ~PowerMonitor_1_WARN_MASK;
 631:Generated_Source\PSoC5/PowerMonitor_1.c ****         /* Enable the interrupt */
 632:Generated_Source\PSoC5/PowerMonitor_1.c ****         PowerMonitor_1_IntEnable(PowerMonitor_1_IRQ__INTC_NUMBER);
 633:Generated_Source\PSoC5/PowerMonitor_1.c ****     #endif /* (PowerMonitor_1_B_PowerMonitor_SyncCtl_ctrlreg1__REMOVED) */
 634:Generated_Source\PSoC5/PowerMonitor_1.c **** }
 635:Generated_Source\PSoC5/PowerMonitor_1.c **** 
 636:Generated_Source\PSoC5/PowerMonitor_1.c **** 
 637:Generated_Source\PSoC5/PowerMonitor_1.c **** /*******************************************************************************
 638:Generated_Source\PSoC5/PowerMonitor_1.c **** * Function Name: PowerMonitor_1_SetWarnMode
 639:Generated_Source\PSoC5/PowerMonitor_1.c **** ********************************************************************************
 640:Generated_Source\PSoC5/PowerMonitor_1.c **** *
 641:Generated_Source\PSoC5/PowerMonitor_1.c **** * Summary:
 642:Generated_Source\PSoC5/PowerMonitor_1.c **** *  This API sets the warning sources for the component. Available three
 643:Generated_Source\PSoC5/PowerMonitor_1.c **** *  warning sources are OV, UV, OC.
 644:Generated_Source\PSoC5/PowerMonitor_1.c **** *
 645:Generated_Source\PSoC5/PowerMonitor_1.c **** * Parameters:
 646:Generated_Source\PSoC5/PowerMonitor_1.c **** *  uint8 warnMode: 8-bit value indicating the warn source to set.
 647:Generated_Source\PSoC5/PowerMonitor_1.c **** *
 648:Generated_Source\PSoC5/PowerMonitor_1.c **** * Return:
 649:Generated_Source\PSoC5/PowerMonitor_1.c **** *  None
 650:Generated_Source\PSoC5/PowerMonitor_1.c **** *
ARM GAS  C:\Users\user\AppData\Local\Temp\ccywx0XT.s 			page 13


 651:Generated_Source\PSoC5/PowerMonitor_1.c **** *******************************************************************************/
 652:Generated_Source\PSoC5/PowerMonitor_1.c **** void PowerMonitor_1_SetWarnMode(uint8 warnMode) 
 653:Generated_Source\PSoC5/PowerMonitor_1.c **** {
 654:Generated_Source\PSoC5/PowerMonitor_1.c ****     /* Set the warn mode */
 655:Generated_Source\PSoC5/PowerMonitor_1.c ****     PowerMonitor_1_warnSources = (warnMode & PowerMonitor_1_WARN_MODE_MASK);
 656:Generated_Source\PSoC5/PowerMonitor_1.c **** }
 657:Generated_Source\PSoC5/PowerMonitor_1.c **** 
 658:Generated_Source\PSoC5/PowerMonitor_1.c **** 
 659:Generated_Source\PSoC5/PowerMonitor_1.c **** /*******************************************************************************
 660:Generated_Source\PSoC5/PowerMonitor_1.c **** * Function Name: PowerMonitor_1_GetWarnMode
 661:Generated_Source\PSoC5/PowerMonitor_1.c **** ********************************************************************************
 662:Generated_Source\PSoC5/PowerMonitor_1.c **** *
 663:Generated_Source\PSoC5/PowerMonitor_1.c **** * Summary:
 664:Generated_Source\PSoC5/PowerMonitor_1.c **** *  This API retruns the enabled warning sources for the component.
 665:Generated_Source\PSoC5/PowerMonitor_1.c **** *
 666:Generated_Source\PSoC5/PowerMonitor_1.c **** * Parameters:
 667:Generated_Source\PSoC5/PowerMonitor_1.c **** *  None
 668:Generated_Source\PSoC5/PowerMonitor_1.c **** *
 669:Generated_Source\PSoC5/PowerMonitor_1.c **** * Return:
 670:Generated_Source\PSoC5/PowerMonitor_1.c **** *  uint8: 8-bit value indicating the enabled warning sources
 671:Generated_Source\PSoC5/PowerMonitor_1.c **** *
 672:Generated_Source\PSoC5/PowerMonitor_1.c **** *******************************************************************************/
 673:Generated_Source\PSoC5/PowerMonitor_1.c **** uint8 PowerMonitor_1_GetWarnMode(void) 
 674:Generated_Source\PSoC5/PowerMonitor_1.c **** {
 675:Generated_Source\PSoC5/PowerMonitor_1.c ****     return (PowerMonitor_1_warnSources);
 676:Generated_Source\PSoC5/PowerMonitor_1.c **** }
 677:Generated_Source\PSoC5/PowerMonitor_1.c **** 
 678:Generated_Source\PSoC5/PowerMonitor_1.c **** 
 679:Generated_Source\PSoC5/PowerMonitor_1.c **** /*******************************************************************************
 680:Generated_Source\PSoC5/PowerMonitor_1.c **** * Function Name: PowerMonitor_1_SetWarnMask
 681:Generated_Source\PSoC5/PowerMonitor_1.c **** ********************************************************************************
 682:Generated_Source\PSoC5/PowerMonitor_1.c **** *
 683:Generated_Source\PSoC5/PowerMonitor_1.c **** * Summary:
 684:Generated_Source\PSoC5/PowerMonitor_1.c **** *  Calling this API enables or disables warnings from each power converter
 685:Generated_Source\PSoC5/PowerMonitor_1.c **** *  through a mask. Masking applies to all warning sources. By default
 686:Generated_Source\PSoC5/PowerMonitor_1.c **** *  warning masks are enabled for each of the power converter.
 687:Generated_Source\PSoC5/PowerMonitor_1.c **** *
 688:Generated_Source\PSoC5/PowerMonitor_1.c **** * Parameters:
 689:Generated_Source\PSoC5/PowerMonitor_1.c **** *  uint32 warnMask: 32-bit warning mask value.
 690:Generated_Source\PSoC5/PowerMonitor_1.c **** *
 691:Generated_Source\PSoC5/PowerMonitor_1.c **** * Return:
 692:Generated_Source\PSoC5/PowerMonitor_1.c **** *  None
 693:Generated_Source\PSoC5/PowerMonitor_1.c **** *
 694:Generated_Source\PSoC5/PowerMonitor_1.c **** *******************************************************************************/
 695:Generated_Source\PSoC5/PowerMonitor_1.c **** void PowerMonitor_1_SetWarnMask(uint32 warnMask) 
 696:Generated_Source\PSoC5/PowerMonitor_1.c **** {
 697:Generated_Source\PSoC5/PowerMonitor_1.c ****     /* Disable the interrupt */
 698:Generated_Source\PSoC5/PowerMonitor_1.c ****     PowerMonitor_1_IntDisable(PowerMonitor_1_IRQ__INTC_NUMBER);
 699:Generated_Source\PSoC5/PowerMonitor_1.c ****     /* Set the warn mask */
 700:Generated_Source\PSoC5/PowerMonitor_1.c ****     PowerMonitor_1_warnMask = (warnMask & PowerMonitor_1_DEFAULT_WARN_MASK);
 701:Generated_Source\PSoC5/PowerMonitor_1.c ****     /* Enable the interrupt */
 702:Generated_Source\PSoC5/PowerMonitor_1.c ****     PowerMonitor_1_IntEnable(PowerMonitor_1_IRQ__INTC_NUMBER);
 703:Generated_Source\PSoC5/PowerMonitor_1.c **** }
 704:Generated_Source\PSoC5/PowerMonitor_1.c **** 
 705:Generated_Source\PSoC5/PowerMonitor_1.c **** 
 706:Generated_Source\PSoC5/PowerMonitor_1.c **** /*******************************************************************************
 707:Generated_Source\PSoC5/PowerMonitor_1.c **** * Function Name: PowerMonitor_1_GetWarnMask
ARM GAS  C:\Users\user\AppData\Local\Temp\ccywx0XT.s 			page 14


 708:Generated_Source\PSoC5/PowerMonitor_1.c **** ********************************************************************************
 709:Generated_Source\PSoC5/PowerMonitor_1.c **** *
 710:Generated_Source\PSoC5/PowerMonitor_1.c **** * Summary:
 711:Generated_Source\PSoC5/PowerMonitor_1.c **** *  This API returns the warning mask status of each of the power converter.
 712:Generated_Source\PSoC5/PowerMonitor_1.c **** *
 713:Generated_Source\PSoC5/PowerMonitor_1.c **** * Parameters:
 714:Generated_Source\PSoC5/PowerMonitor_1.c **** *  None
 715:Generated_Source\PSoC5/PowerMonitor_1.c **** *
 716:Generated_Source\PSoC5/PowerMonitor_1.c **** * Return:
 717:Generated_Source\PSoC5/PowerMonitor_1.c **** *  uint32: 32-bit value indicating warning mask status.
 718:Generated_Source\PSoC5/PowerMonitor_1.c **** *
 719:Generated_Source\PSoC5/PowerMonitor_1.c **** *******************************************************************************/
 720:Generated_Source\PSoC5/PowerMonitor_1.c **** uint32 PowerMonitor_1_GetWarnMask(void) 
 721:Generated_Source\PSoC5/PowerMonitor_1.c **** {
 722:Generated_Source\PSoC5/PowerMonitor_1.c ****     return (PowerMonitor_1_warnMask);
 723:Generated_Source\PSoC5/PowerMonitor_1.c **** }
 724:Generated_Source\PSoC5/PowerMonitor_1.c **** 
 725:Generated_Source\PSoC5/PowerMonitor_1.c **** 
 726:Generated_Source\PSoC5/PowerMonitor_1.c **** /*******************************************************************************
 727:Generated_Source\PSoC5/PowerMonitor_1.c **** * Function Name: PowerMonitor_1_GetWarnSource
 728:Generated_Source\PSoC5/PowerMonitor_1.c **** ********************************************************************************
 729:Generated_Source\PSoC5/PowerMonitor_1.c **** *
 730:Generated_Source\PSoC5/PowerMonitor_1.c **** * Summary:
 731:Generated_Source\PSoC5/PowerMonitor_1.c **** *  This API returns pending warning source. This API can be
 732:Generated_Source\PSoC5/PowerMonitor_1.c **** *  used to poll the warning status of the component.
 733:Generated_Source\PSoC5/PowerMonitor_1.c **** *
 734:Generated_Source\PSoC5/PowerMonitor_1.c **** * Parameters:
 735:Generated_Source\PSoC5/PowerMonitor_1.c **** *  None
 736:Generated_Source\PSoC5/PowerMonitor_1.c **** *
 737:Generated_Source\PSoC5/PowerMonitor_1.c **** * Return:
 738:Generated_Source\PSoC5/PowerMonitor_1.c **** *  uint8: 8-bit value indicating the pending warning sources.
 739:Generated_Source\PSoC5/PowerMonitor_1.c **** *
 740:Generated_Source\PSoC5/PowerMonitor_1.c **** *******************************************************************************/
 741:Generated_Source\PSoC5/PowerMonitor_1.c **** uint8 PowerMonitor_1_GetWarnSource(void) 
 742:Generated_Source\PSoC5/PowerMonitor_1.c **** {
 743:Generated_Source\PSoC5/PowerMonitor_1.c ****     /* Get the status */
 744:Generated_Source\PSoC5/PowerMonitor_1.c ****     return (PowerMonitor_1_warnSourceStatus);
 745:Generated_Source\PSoC5/PowerMonitor_1.c **** }
 746:Generated_Source\PSoC5/PowerMonitor_1.c **** 
 747:Generated_Source\PSoC5/PowerMonitor_1.c **** 
 748:Generated_Source\PSoC5/PowerMonitor_1.c **** /*******************************************************************************
 749:Generated_Source\PSoC5/PowerMonitor_1.c **** * Function Name: PowerMonitor_1_GetOVWarnStatus
 750:Generated_Source\PSoC5/PowerMonitor_1.c **** ********************************************************************************
 751:Generated_Source\PSoC5/PowerMonitor_1.c **** *
 752:Generated_Source\PSoC5/PowerMonitor_1.c **** * Summary:
 753:Generated_Source\PSoC5/PowerMonitor_1.c **** *  This API can be used to get the over voltage warning status of each power
 754:Generated_Source\PSoC5/PowerMonitor_1.c **** *  converter. The status is regardless of Warning Mask set.
 755:Generated_Source\PSoC5/PowerMonitor_1.c **** *
 756:Generated_Source\PSoC5/PowerMonitor_1.c **** * Parameters:
 757:Generated_Source\PSoC5/PowerMonitor_1.c **** *  None
 758:Generated_Source\PSoC5/PowerMonitor_1.c **** *
 759:Generated_Source\PSoC5/PowerMonitor_1.c **** * Return:
 760:Generated_Source\PSoC5/PowerMonitor_1.c **** *  uint32: 32-bit status indicating the over voltage warning status of each
 761:Generated_Source\PSoC5/PowerMonitor_1.c **** *  power converter.
 762:Generated_Source\PSoC5/PowerMonitor_1.c **** *
 763:Generated_Source\PSoC5/PowerMonitor_1.c **** *******************************************************************************/
 764:Generated_Source\PSoC5/PowerMonitor_1.c **** uint32 PowerMonitor_1_GetOVWarnStatus(void) 
ARM GAS  C:\Users\user\AppData\Local\Temp\ccywx0XT.s 			page 15


 765:Generated_Source\PSoC5/PowerMonitor_1.c **** {
 766:Generated_Source\PSoC5/PowerMonitor_1.c ****     uint32 OVWarnStatus;
 767:Generated_Source\PSoC5/PowerMonitor_1.c **** 
 768:Generated_Source\PSoC5/PowerMonitor_1.c ****     /* Disable the interrupt */
 769:Generated_Source\PSoC5/PowerMonitor_1.c ****     PowerMonitor_1_IntDisable(PowerMonitor_1_IRQ__INTC_NUMBER);
 770:Generated_Source\PSoC5/PowerMonitor_1.c ****     /* Read the over voltage warn status */
 771:Generated_Source\PSoC5/PowerMonitor_1.c ****     OVWarnStatus = PowerMonitor_1_OVWarnStatus;
 772:Generated_Source\PSoC5/PowerMonitor_1.c ****     /* Clear OV warn status bit */
 773:Generated_Source\PSoC5/PowerMonitor_1.c ****     PowerMonitor_1_warnSourceStatus &= ~PowerMonitor_1_ENABLE_OV_WARN_SOURCE;
 774:Generated_Source\PSoC5/PowerMonitor_1.c ****     /* Clear OV warn status */
 775:Generated_Source\PSoC5/PowerMonitor_1.c ****     PowerMonitor_1_OVWarnStatus = PowerMonitor_1_RESET_OV_WARN_STATUS;
 776:Generated_Source\PSoC5/PowerMonitor_1.c ****     /* Check for other possible warn and then clear the hardware */
 777:Generated_Source\PSoC5/PowerMonitor_1.c ****     #if !defined(PowerMonitor_1_B_PowerMonitor_SyncCtl_ctrlreg1__REMOVED)
 778:Generated_Source\PSoC5/PowerMonitor_1.c ****         if((PowerMonitor_1_UVWarnStatus == PowerMonitor_1_RESET_UV_WARN_STATUS) &&
 779:Generated_Source\PSoC5/PowerMonitor_1.c ****            (PowerMonitor_1_OCWarnStatus == PowerMonitor_1_RESET_OC_WARN_STATUS))
 780:Generated_Source\PSoC5/PowerMonitor_1.c ****         {
 781:Generated_Source\PSoC5/PowerMonitor_1.c ****             PowerMonitor_1_CONTROL1_REG &= ~PowerMonitor_1_WARN_MASK;
 782:Generated_Source\PSoC5/PowerMonitor_1.c ****         }
 783:Generated_Source\PSoC5/PowerMonitor_1.c ****     #endif /* (PowerMonitor_1_B_PowerMonitor_SyncCtl_ctrlreg1__REMOVED) */
 784:Generated_Source\PSoC5/PowerMonitor_1.c **** 
 785:Generated_Source\PSoC5/PowerMonitor_1.c ****     /* Enable the interrupt */
 786:Generated_Source\PSoC5/PowerMonitor_1.c ****     PowerMonitor_1_IntEnable(PowerMonitor_1_IRQ__INTC_NUMBER);
 787:Generated_Source\PSoC5/PowerMonitor_1.c **** 
 788:Generated_Source\PSoC5/PowerMonitor_1.c ****     return (OVWarnStatus);
 789:Generated_Source\PSoC5/PowerMonitor_1.c **** }
 790:Generated_Source\PSoC5/PowerMonitor_1.c **** 
 791:Generated_Source\PSoC5/PowerMonitor_1.c **** 
 792:Generated_Source\PSoC5/PowerMonitor_1.c **** /*******************************************************************************
 793:Generated_Source\PSoC5/PowerMonitor_1.c **** * Function Name: PowerMonitor_1_GetUVWarnStatus
 794:Generated_Source\PSoC5/PowerMonitor_1.c **** ********************************************************************************
 795:Generated_Source\PSoC5/PowerMonitor_1.c **** *
 796:Generated_Source\PSoC5/PowerMonitor_1.c **** * Summary:
 797:Generated_Source\PSoC5/PowerMonitor_1.c **** *  This API returns the under voltage warning status of each power converter.
 798:Generated_Source\PSoC5/PowerMonitor_1.c **** *  The status is regardless of Warning mask.
 799:Generated_Source\PSoC5/PowerMonitor_1.c **** *
 800:Generated_Source\PSoC5/PowerMonitor_1.c **** * Parameters:
 801:Generated_Source\PSoC5/PowerMonitor_1.c **** *  None
 802:Generated_Source\PSoC5/PowerMonitor_1.c **** *
 803:Generated_Source\PSoC5/PowerMonitor_1.c **** * Return:
 804:Generated_Source\PSoC5/PowerMonitor_1.c **** *  uint32: 32-bit value indicating under voltage warning status for each power
 805:Generated_Source\PSoC5/PowerMonitor_1.c **** *  converter.
 806:Generated_Source\PSoC5/PowerMonitor_1.c **** *
 807:Generated_Source\PSoC5/PowerMonitor_1.c **** *******************************************************************************/
 808:Generated_Source\PSoC5/PowerMonitor_1.c **** uint32 PowerMonitor_1_GetUVWarnStatus(void) 
 809:Generated_Source\PSoC5/PowerMonitor_1.c **** {
 810:Generated_Source\PSoC5/PowerMonitor_1.c ****     uint32 UVWarnStatus;
 811:Generated_Source\PSoC5/PowerMonitor_1.c **** 
 812:Generated_Source\PSoC5/PowerMonitor_1.c ****     /* Disable the interrupt */
 813:Generated_Source\PSoC5/PowerMonitor_1.c ****     PowerMonitor_1_IntDisable(PowerMonitor_1_IRQ__INTC_NUMBER);
 814:Generated_Source\PSoC5/PowerMonitor_1.c ****     /* Read the under voltage warn status */
 815:Generated_Source\PSoC5/PowerMonitor_1.c ****     UVWarnStatus = PowerMonitor_1_UVWarnStatus;
 816:Generated_Source\PSoC5/PowerMonitor_1.c ****     /* Clear UV warn source status bit */
 817:Generated_Source\PSoC5/PowerMonitor_1.c ****     PowerMonitor_1_warnSourceStatus &= ~PowerMonitor_1_ENABLE_UV_WARN_SOURCE;
 818:Generated_Source\PSoC5/PowerMonitor_1.c ****     /* Clear UV warn status */
 819:Generated_Source\PSoC5/PowerMonitor_1.c ****     PowerMonitor_1_UVWarnStatus = PowerMonitor_1_RESET_UV_WARN_STATUS;
 820:Generated_Source\PSoC5/PowerMonitor_1.c ****     /* Check for other possible warn and then clear the hardware */
 821:Generated_Source\PSoC5/PowerMonitor_1.c ****     #if !defined(PowerMonitor_1_B_PowerMonitor_SyncCtl_ctrlreg1__REMOVED)
ARM GAS  C:\Users\user\AppData\Local\Temp\ccywx0XT.s 			page 16


 822:Generated_Source\PSoC5/PowerMonitor_1.c ****         if((PowerMonitor_1_OVWarnStatus == PowerMonitor_1_RESET_OV_WARN_STATUS) &&
 823:Generated_Source\PSoC5/PowerMonitor_1.c ****            (PowerMonitor_1_OCWarnStatus == PowerMonitor_1_RESET_OC_WARN_STATUS))
 824:Generated_Source\PSoC5/PowerMonitor_1.c ****         {
 825:Generated_Source\PSoC5/PowerMonitor_1.c ****             PowerMonitor_1_CONTROL1_REG &= ~PowerMonitor_1_WARN_MASK;
 826:Generated_Source\PSoC5/PowerMonitor_1.c ****         }
 827:Generated_Source\PSoC5/PowerMonitor_1.c ****     #endif /* (PowerMonitor_1_B_PowerMonitor_SyncCtl_ctrlreg1__REMOVED) */
 828:Generated_Source\PSoC5/PowerMonitor_1.c **** 
 829:Generated_Source\PSoC5/PowerMonitor_1.c ****     /* Enable the interrupt */
 830:Generated_Source\PSoC5/PowerMonitor_1.c ****     PowerMonitor_1_IntEnable(PowerMonitor_1_IRQ__INTC_NUMBER);
 831:Generated_Source\PSoC5/PowerMonitor_1.c **** 
 832:Generated_Source\PSoC5/PowerMonitor_1.c ****     return (UVWarnStatus);
 833:Generated_Source\PSoC5/PowerMonitor_1.c **** }
 834:Generated_Source\PSoC5/PowerMonitor_1.c **** 
 835:Generated_Source\PSoC5/PowerMonitor_1.c **** 
 836:Generated_Source\PSoC5/PowerMonitor_1.c **** /*******************************************************************************
 837:Generated_Source\PSoC5/PowerMonitor_1.c **** * Function Name: PowerMonitor_1_GetOCWarnStatus
 838:Generated_Source\PSoC5/PowerMonitor_1.c **** ********************************************************************************
 839:Generated_Source\PSoC5/PowerMonitor_1.c **** *
 840:Generated_Source\PSoC5/PowerMonitor_1.c **** * Summary:
 841:Generated_Source\PSoC5/PowerMonitor_1.c **** *  This API returns over current warning status for each power converter. The
 842:Generated_Source\PSoC5/PowerMonitor_1.c **** *  status is regardless of Warning mask.
 843:Generated_Source\PSoC5/PowerMonitor_1.c **** *
 844:Generated_Source\PSoC5/PowerMonitor_1.c **** * Parameters:
 845:Generated_Source\PSoC5/PowerMonitor_1.c **** *  None
 846:Generated_Source\PSoC5/PowerMonitor_1.c **** *
 847:Generated_Source\PSoC5/PowerMonitor_1.c **** * Return:
 848:Generated_Source\PSoC5/PowerMonitor_1.c **** *  uint32: 32-bit value indicating the over current warning status of each
 849:Generated_Source\PSoC5/PowerMonitor_1.c **** *  power converter.
 850:Generated_Source\PSoC5/PowerMonitor_1.c **** *
 851:Generated_Source\PSoC5/PowerMonitor_1.c **** *******************************************************************************/
 852:Generated_Source\PSoC5/PowerMonitor_1.c **** uint32 PowerMonitor_1_GetOCWarnStatus(void) 
 853:Generated_Source\PSoC5/PowerMonitor_1.c **** {
 854:Generated_Source\PSoC5/PowerMonitor_1.c ****     uint32 OCWarnStatus;
 855:Generated_Source\PSoC5/PowerMonitor_1.c **** 
 856:Generated_Source\PSoC5/PowerMonitor_1.c ****     /* Disable the interrupt */
 857:Generated_Source\PSoC5/PowerMonitor_1.c ****     PowerMonitor_1_IntDisable(PowerMonitor_1_IRQ__INTC_NUMBER);
 858:Generated_Source\PSoC5/PowerMonitor_1.c ****     /* Read the over current warn status */
 859:Generated_Source\PSoC5/PowerMonitor_1.c ****     OCWarnStatus = PowerMonitor_1_OCWarnStatus;
 860:Generated_Source\PSoC5/PowerMonitor_1.c ****     /* Clear OC warn source status bit */
 861:Generated_Source\PSoC5/PowerMonitor_1.c ****     PowerMonitor_1_warnSourceStatus &= ~PowerMonitor_1_ENABLE_OC_WARN_SOURCE;
 862:Generated_Source\PSoC5/PowerMonitor_1.c ****     /* Clear OC warn status */
 863:Generated_Source\PSoC5/PowerMonitor_1.c ****     PowerMonitor_1_OCWarnStatus = PowerMonitor_1_RESET_OC_WARN_STATUS;
 864:Generated_Source\PSoC5/PowerMonitor_1.c ****     /* Check for other possible warn and then clear the hardware */
 865:Generated_Source\PSoC5/PowerMonitor_1.c ****     #if !defined(PowerMonitor_1_B_PowerMonitor_SyncCtl_ctrlreg1__REMOVED)
 866:Generated_Source\PSoC5/PowerMonitor_1.c ****         if((PowerMonitor_1_UVWarnStatus == PowerMonitor_1_RESET_UV_WARN_STATUS) &&
 867:Generated_Source\PSoC5/PowerMonitor_1.c ****            (PowerMonitor_1_OVWarnStatus == PowerMonitor_1_RESET_OV_WARN_STATUS))
 868:Generated_Source\PSoC5/PowerMonitor_1.c ****         {
 869:Generated_Source\PSoC5/PowerMonitor_1.c ****             PowerMonitor_1_CONTROL1_REG &= ~PowerMonitor_1_WARN_MASK;
 870:Generated_Source\PSoC5/PowerMonitor_1.c ****         }
 871:Generated_Source\PSoC5/PowerMonitor_1.c ****     #endif /* (PowerMonitor_1_B_PowerMonitor_SyncCtl_ctrlreg1__REMOVED) */
 872:Generated_Source\PSoC5/PowerMonitor_1.c **** 
 873:Generated_Source\PSoC5/PowerMonitor_1.c ****     /* Enable the interrupt */
 874:Generated_Source\PSoC5/PowerMonitor_1.c ****     PowerMonitor_1_IntEnable(PowerMonitor_1_IRQ__INTC_NUMBER);
 875:Generated_Source\PSoC5/PowerMonitor_1.c **** 
 876:Generated_Source\PSoC5/PowerMonitor_1.c ****     return (OCWarnStatus);
 877:Generated_Source\PSoC5/PowerMonitor_1.c **** }
 878:Generated_Source\PSoC5/PowerMonitor_1.c **** 
ARM GAS  C:\Users\user\AppData\Local\Temp\ccywx0XT.s 			page 17


 879:Generated_Source\PSoC5/PowerMonitor_1.c **** 
 880:Generated_Source\PSoC5/PowerMonitor_1.c **** /*******************************************************************************
 881:Generated_Source\PSoC5/PowerMonitor_1.c **** * Function Name: PowerMonitor_1_SetUVWarnThreshold
 882:Generated_Source\PSoC5/PowerMonitor_1.c **** ********************************************************************************
 883:Generated_Source\PSoC5/PowerMonitor_1.c **** *
 884:Generated_Source\PSoC5/PowerMonitor_1.c **** * Summary:
 885:Generated_Source\PSoC5/PowerMonitor_1.c **** *  This API can be used to set the under voltage warning threshold for the
 886:Generated_Source\PSoC5/PowerMonitor_1.c **** *  specified power converter.
 887:Generated_Source\PSoC5/PowerMonitor_1.c **** *
 888:Generated_Source\PSoC5/PowerMonitor_1.c **** * Parameters:
 889:Generated_Source\PSoC5/PowerMonitor_1.c **** *  uint8 converterNum: Converter number for which the threshold to be set.
 890:Generated_Source\PSoC5/PowerMonitor_1.c **** *                      Valid range is 1-32.
 891:Generated_Source\PSoC5/PowerMonitor_1.c **** *  uint16 uvWarnThreshold: Under voltage warning threshold in mv. Valid range
 892:Generated_Source\PSoC5/PowerMonitor_1.c **** *                          is 1-65,535.
 893:Generated_Source\PSoC5/PowerMonitor_1.c **** *
 894:Generated_Source\PSoC5/PowerMonitor_1.c **** * Return:
 895:Generated_Source\PSoC5/PowerMonitor_1.c **** *  None
 896:Generated_Source\PSoC5/PowerMonitor_1.c **** *
 897:Generated_Source\PSoC5/PowerMonitor_1.c **** *******************************************************************************/
 898:Generated_Source\PSoC5/PowerMonitor_1.c **** void PowerMonitor_1_SetUVWarnThreshold(uint8 converterNum, uint16 uvWarnThreshold) \
 899:Generated_Source\PSoC5/PowerMonitor_1.c ****      
 900:Generated_Source\PSoC5/PowerMonitor_1.c **** {
 901:Generated_Source\PSoC5/PowerMonitor_1.c ****     int32 uvWarnCounts;
 902:Generated_Source\PSoC5/PowerMonitor_1.c ****     uint8 convRes = PowerMonitor_1_CYFALSE;
 903:Generated_Source\PSoC5/PowerMonitor_1.c **** 
 904:Generated_Source\PSoC5/PowerMonitor_1.c ****     uvWarnCounts = PowerMonitor_1_mVToCounts(uvWarnThreshold, converterNum, &convRes);
 905:Generated_Source\PSoC5/PowerMonitor_1.c ****     if(convRes == PowerMonitor_1_CYTRUE)
 906:Generated_Source\PSoC5/PowerMonitor_1.c ****     {
 907:Generated_Source\PSoC5/PowerMonitor_1.c ****         /* Disable the interrupt */
 908:Generated_Source\PSoC5/PowerMonitor_1.c ****         PowerMonitor_1_IntDisable(PowerMonitor_1_IRQ__INTC_NUMBER);
 909:Generated_Source\PSoC5/PowerMonitor_1.c ****         /* Set the under voltage warn threshold */
 910:Generated_Source\PSoC5/PowerMonitor_1.c ****         PowerMonitor_1_warnWin[converterNum - 1u].UVWarnThrshldCounts = uvWarnCounts;
 911:Generated_Source\PSoC5/PowerMonitor_1.c ****         PowerMonitor_1_warnWin[converterNum - 1u].UVWarnThrshldVolts = uvWarnThreshold;
 912:Generated_Source\PSoC5/PowerMonitor_1.c ****         /* Enable the interrupt */
 913:Generated_Source\PSoC5/PowerMonitor_1.c ****         PowerMonitor_1_IntEnable(PowerMonitor_1_IRQ__INTC_NUMBER);
 914:Generated_Source\PSoC5/PowerMonitor_1.c ****     }
 915:Generated_Source\PSoC5/PowerMonitor_1.c **** }
 916:Generated_Source\PSoC5/PowerMonitor_1.c **** 
 917:Generated_Source\PSoC5/PowerMonitor_1.c **** 
 918:Generated_Source\PSoC5/PowerMonitor_1.c **** /*******************************************************************************
 919:Generated_Source\PSoC5/PowerMonitor_1.c **** * Function Name: PowerMonitor_1_GetUVWarnThreshold
 920:Generated_Source\PSoC5/PowerMonitor_1.c **** ********************************************************************************
 921:Generated_Source\PSoC5/PowerMonitor_1.c **** *
 922:Generated_Source\PSoC5/PowerMonitor_1.c **** * Summary:
 923:Generated_Source\PSoC5/PowerMonitor_1.c **** *  This API returns the power converter under voltage warning threshold for
 924:Generated_Source\PSoC5/PowerMonitor_1.c **** *  the specified power converter.
 925:Generated_Source\PSoC5/PowerMonitor_1.c **** *
 926:Generated_Source\PSoC5/PowerMonitor_1.c **** * Parameters:
 927:Generated_Source\PSoC5/PowerMonitor_1.c **** *  uint8 converterNum: Converter number for which to get the UV threshold
 928:Generated_Source\PSoC5/PowerMonitor_1.c **** *                      value. Valid range is 1-32.
 929:Generated_Source\PSoC5/PowerMonitor_1.c **** *
 930:Generated_Source\PSoC5/PowerMonitor_1.c **** * Return:
 931:Generated_Source\PSoC5/PowerMonitor_1.c **** *  uint16: 16-bit value indicating the under voltage threshold in mV.
 932:Generated_Source\PSoC5/PowerMonitor_1.c **** *
 933:Generated_Source\PSoC5/PowerMonitor_1.c **** *******************************************************************************/
 934:Generated_Source\PSoC5/PowerMonitor_1.c **** uint16 PowerMonitor_1_GetUVWarnThreshold(uint8 converterNum) \
 935:Generated_Source\PSoC5/PowerMonitor_1.c ****        
ARM GAS  C:\Users\user\AppData\Local\Temp\ccywx0XT.s 			page 18


 936:Generated_Source\PSoC5/PowerMonitor_1.c **** {
 937:Generated_Source\PSoC5/PowerMonitor_1.c ****     uint16 uvWarnThreshold = 0u;
 938:Generated_Source\PSoC5/PowerMonitor_1.c **** 
 939:Generated_Source\PSoC5/PowerMonitor_1.c ****     if ((converterNum > 0u) && (converterNum <= PowerMonitor_1_NUMBER_OF_CONVERTERS))
 940:Generated_Source\PSoC5/PowerMonitor_1.c ****     {
 941:Generated_Source\PSoC5/PowerMonitor_1.c ****         uvWarnThreshold = PowerMonitor_1_warnWin[converterNum - 1u].UVWarnThrshldVolts;
 942:Generated_Source\PSoC5/PowerMonitor_1.c ****     }
 943:Generated_Source\PSoC5/PowerMonitor_1.c **** 
 944:Generated_Source\PSoC5/PowerMonitor_1.c ****     return (uvWarnThreshold);
 945:Generated_Source\PSoC5/PowerMonitor_1.c **** }
 946:Generated_Source\PSoC5/PowerMonitor_1.c **** 
 947:Generated_Source\PSoC5/PowerMonitor_1.c **** 
 948:Generated_Source\PSoC5/PowerMonitor_1.c **** /*******************************************************************************
 949:Generated_Source\PSoC5/PowerMonitor_1.c **** * Function Name: PowerMonitor_1_SetOVWarnThreshold
 950:Generated_Source\PSoC5/PowerMonitor_1.c **** ********************************************************************************
 951:Generated_Source\PSoC5/PowerMonitor_1.c **** *
 952:Generated_Source\PSoC5/PowerMonitor_1.c **** * Summary:
 953:Generated_Source\PSoC5/PowerMonitor_1.c **** *  This API can be used to set the over voltage warning threshold for the
 954:Generated_Source\PSoC5/PowerMonitor_1.c **** *  specified.power converter.
 955:Generated_Source\PSoC5/PowerMonitor_1.c **** *
 956:Generated_Source\PSoC5/PowerMonitor_1.c **** * Parameters:
 957:Generated_Source\PSoC5/PowerMonitor_1.c **** *  uint8 converterNum: 8-bit value indicating the converter number for which
 958:Generated_Source\PSoC5/PowerMonitor_1.c ****                        OV warning threshold to be set.
 959:Generated_Source\PSoC5/PowerMonitor_1.c **** *  uint16 ovWarnThreshold: Over voltage warning threshold in mV. Valid range
 960:Generated_Source\PSoC5/PowerMonitor_1.c ****                            is 1 - 65,535.
 961:Generated_Source\PSoC5/PowerMonitor_1.c **** *
 962:Generated_Source\PSoC5/PowerMonitor_1.c **** * Return:
 963:Generated_Source\PSoC5/PowerMonitor_1.c **** *  None
 964:Generated_Source\PSoC5/PowerMonitor_1.c **** *
 965:Generated_Source\PSoC5/PowerMonitor_1.c **** *******************************************************************************/
 966:Generated_Source\PSoC5/PowerMonitor_1.c **** void PowerMonitor_1_SetOVWarnThreshold(uint8 converterNum, uint16 ovWarnThreshold) \
 967:Generated_Source\PSoC5/PowerMonitor_1.c ****      
 968:Generated_Source\PSoC5/PowerMonitor_1.c **** {
 969:Generated_Source\PSoC5/PowerMonitor_1.c ****     int32 ovWarnCounts;
 970:Generated_Source\PSoC5/PowerMonitor_1.c ****     uint8 convRes = PowerMonitor_1_CYFALSE;
 971:Generated_Source\PSoC5/PowerMonitor_1.c **** 
 972:Generated_Source\PSoC5/PowerMonitor_1.c ****     ovWarnCounts = PowerMonitor_1_mVToCounts(ovWarnThreshold, converterNum, &convRes);
 973:Generated_Source\PSoC5/PowerMonitor_1.c ****     if(convRes == PowerMonitor_1_CYTRUE)
 974:Generated_Source\PSoC5/PowerMonitor_1.c ****     {
 975:Generated_Source\PSoC5/PowerMonitor_1.c ****         /* Disable the interrupt */
 976:Generated_Source\PSoC5/PowerMonitor_1.c ****         PowerMonitor_1_IntDisable(PowerMonitor_1_IRQ__INTC_NUMBER);
 977:Generated_Source\PSoC5/PowerMonitor_1.c ****         /* Set the over voltage warn threshold for warn checking */
 978:Generated_Source\PSoC5/PowerMonitor_1.c ****         PowerMonitor_1_warnWin[converterNum - 1u].OVWarnThrshldCounts = ovWarnCounts;
 979:Generated_Source\PSoC5/PowerMonitor_1.c ****         PowerMonitor_1_warnWin[converterNum - 1u].OVWarnThrshldVolts = ovWarnThreshold;
 980:Generated_Source\PSoC5/PowerMonitor_1.c ****         /* Enable the interrupt */
 981:Generated_Source\PSoC5/PowerMonitor_1.c ****         PowerMonitor_1_IntEnable(PowerMonitor_1_IRQ__INTC_NUMBER);
 982:Generated_Source\PSoC5/PowerMonitor_1.c ****     }
 983:Generated_Source\PSoC5/PowerMonitor_1.c **** }
 984:Generated_Source\PSoC5/PowerMonitor_1.c **** 
 985:Generated_Source\PSoC5/PowerMonitor_1.c **** 
 986:Generated_Source\PSoC5/PowerMonitor_1.c **** /*******************************************************************************
 987:Generated_Source\PSoC5/PowerMonitor_1.c **** * Function Name: PowerMonitor_1_GetOVWarnThreshold
 988:Generated_Source\PSoC5/PowerMonitor_1.c **** ********************************************************************************
 989:Generated_Source\PSoC5/PowerMonitor_1.c **** *
 990:Generated_Source\PSoC5/PowerMonitor_1.c **** * Summary:
 991:Generated_Source\PSoC5/PowerMonitor_1.c **** *  This API returns the Over voltage warning threshold set for specified.power
 992:Generated_Source\PSoC5/PowerMonitor_1.c **** *  converter.
ARM GAS  C:\Users\user\AppData\Local\Temp\ccywx0XT.s 			page 19


 993:Generated_Source\PSoC5/PowerMonitor_1.c **** *
 994:Generated_Source\PSoC5/PowerMonitor_1.c **** * Parameters:
 995:Generated_Source\PSoC5/PowerMonitor_1.c **** *  uint8 converterNum: Converter number for which to get the OV threshold
 996:Generated_Source\PSoC5/PowerMonitor_1.c **** *                      value. Valid range is 1-32.
 997:Generated_Source\PSoC5/PowerMonitor_1.c **** *
 998:Generated_Source\PSoC5/PowerMonitor_1.c **** * Return:
 999:Generated_Source\PSoC5/PowerMonitor_1.c **** *  uint16: 16-bit value indicating the over voltage threshold in mV.
1000:Generated_Source\PSoC5/PowerMonitor_1.c **** *
1001:Generated_Source\PSoC5/PowerMonitor_1.c **** *******************************************************************************/
1002:Generated_Source\PSoC5/PowerMonitor_1.c **** uint16 PowerMonitor_1_GetOVWarnThreshold(uint8 converterNum) \
1003:Generated_Source\PSoC5/PowerMonitor_1.c ****        
1004:Generated_Source\PSoC5/PowerMonitor_1.c **** {
1005:Generated_Source\PSoC5/PowerMonitor_1.c ****     uint16 ovWarnThreshold = 0u;
1006:Generated_Source\PSoC5/PowerMonitor_1.c **** 
1007:Generated_Source\PSoC5/PowerMonitor_1.c ****     if ((converterNum > 0u) && (converterNum <= PowerMonitor_1_NUMBER_OF_CONVERTERS))
1008:Generated_Source\PSoC5/PowerMonitor_1.c ****     {
1009:Generated_Source\PSoC5/PowerMonitor_1.c ****         ovWarnThreshold = PowerMonitor_1_warnWin[converterNum - 1u].OVWarnThrshldVolts;
1010:Generated_Source\PSoC5/PowerMonitor_1.c ****     }
1011:Generated_Source\PSoC5/PowerMonitor_1.c **** 
1012:Generated_Source\PSoC5/PowerMonitor_1.c ****     return (ovWarnThreshold);
1013:Generated_Source\PSoC5/PowerMonitor_1.c **** }
1014:Generated_Source\PSoC5/PowerMonitor_1.c **** 
1015:Generated_Source\PSoC5/PowerMonitor_1.c **** 
1016:Generated_Source\PSoC5/PowerMonitor_1.c **** /*******************************************************************************
1017:Generated_Source\PSoC5/PowerMonitor_1.c **** * Function Name: PowerMonitor_1_SetUVFaultThreshold
1018:Generated_Source\PSoC5/PowerMonitor_1.c **** ********************************************************************************
1019:Generated_Source\PSoC5/PowerMonitor_1.c **** *
1020:Generated_Source\PSoC5/PowerMonitor_1.c **** * Summary:
1021:Generated_Source\PSoC5/PowerMonitor_1.c **** *  This API can be used to set the under voltage fault threshold for the
1022:Generated_Source\PSoC5/PowerMonitor_1.c **** *  specified power converter.
1023:Generated_Source\PSoC5/PowerMonitor_1.c **** *
1024:Generated_Source\PSoC5/PowerMonitor_1.c **** * Parameters:
1025:Generated_Source\PSoC5/PowerMonitor_1.c **** *  uint8 converterNum: 8-bit value indicating the converter number for which
1026:Generated_Source\PSoC5/PowerMonitor_1.c ****                        UV fault threshold to be set.
1027:Generated_Source\PSoC5/PowerMonitor_1.c **** *  uint16 UVFaultThreshold: Under voltage fault threshold in mV. Valid range
1028:Generated_Source\PSoC5/PowerMonitor_1.c ****                            is 1 - 65,535.
1029:Generated_Source\PSoC5/PowerMonitor_1.c **** *
1030:Generated_Source\PSoC5/PowerMonitor_1.c **** * Return:
1031:Generated_Source\PSoC5/PowerMonitor_1.c **** *  None
1032:Generated_Source\PSoC5/PowerMonitor_1.c **** *
1033:Generated_Source\PSoC5/PowerMonitor_1.c **** *******************************************************************************/
1034:Generated_Source\PSoC5/PowerMonitor_1.c **** void PowerMonitor_1_SetUVFaultThreshold(uint8 converterNum, uint16 uvFaultThreshold) \
1035:Generated_Source\PSoC5/PowerMonitor_1.c ****      
1036:Generated_Source\PSoC5/PowerMonitor_1.c **** {
1037:Generated_Source\PSoC5/PowerMonitor_1.c ****     int32 uvFaultCounts;
1038:Generated_Source\PSoC5/PowerMonitor_1.c ****     uint8 convRes = PowerMonitor_1_CYFALSE;
1039:Generated_Source\PSoC5/PowerMonitor_1.c **** 
1040:Generated_Source\PSoC5/PowerMonitor_1.c ****     uvFaultCounts = PowerMonitor_1_mVToCounts(uvFaultThreshold, converterNum, &convRes);
1041:Generated_Source\PSoC5/PowerMonitor_1.c ****     if(convRes == PowerMonitor_1_CYTRUE)
1042:Generated_Source\PSoC5/PowerMonitor_1.c ****     {
1043:Generated_Source\PSoC5/PowerMonitor_1.c ****         /* Disable the interrupt */
1044:Generated_Source\PSoC5/PowerMonitor_1.c ****         PowerMonitor_1_IntDisable(PowerMonitor_1_IRQ__INTC_NUMBER);
1045:Generated_Source\PSoC5/PowerMonitor_1.c ****         /* Set the threshold */
1046:Generated_Source\PSoC5/PowerMonitor_1.c ****         PowerMonitor_1_faultWin[converterNum - 1u].UVFaultThrshldCounts = uvFaultCounts;
1047:Generated_Source\PSoC5/PowerMonitor_1.c ****         PowerMonitor_1_faultWin[converterNum - 1u].UVFaultThrshldVolts = uvFaultThreshold;
1048:Generated_Source\PSoC5/PowerMonitor_1.c ****         /* Enable the interrupt */
1049:Generated_Source\PSoC5/PowerMonitor_1.c ****         PowerMonitor_1_IntEnable(PowerMonitor_1_IRQ__INTC_NUMBER);
ARM GAS  C:\Users\user\AppData\Local\Temp\ccywx0XT.s 			page 20


1050:Generated_Source\PSoC5/PowerMonitor_1.c ****     }
1051:Generated_Source\PSoC5/PowerMonitor_1.c **** }
1052:Generated_Source\PSoC5/PowerMonitor_1.c **** 
1053:Generated_Source\PSoC5/PowerMonitor_1.c **** 
1054:Generated_Source\PSoC5/PowerMonitor_1.c **** /*******************************************************************************
1055:Generated_Source\PSoC5/PowerMonitor_1.c **** * Function Name: PowerMonitor_1_GetUVFaultThreshold
1056:Generated_Source\PSoC5/PowerMonitor_1.c **** ********************************************************************************
1057:Generated_Source\PSoC5/PowerMonitor_1.c **** *
1058:Generated_Source\PSoC5/PowerMonitor_1.c **** * Summary:
1059:Generated_Source\PSoC5/PowerMonitor_1.c **** *  This API can be used to get the under voltage fault threshold set for the
1060:Generated_Source\PSoC5/PowerMonitor_1.c **** *  specified power converter..
1061:Generated_Source\PSoC5/PowerMonitor_1.c **** *
1062:Generated_Source\PSoC5/PowerMonitor_1.c **** * Parameters:
1063:Generated_Source\PSoC5/PowerMonitor_1.c **** *  uint8 converterNum: Converter number for which to get the UV fault threshold
1064:Generated_Source\PSoC5/PowerMonitor_1.c **** *                      value. Valid range is 1-32.
1065:Generated_Source\PSoC5/PowerMonitor_1.c **** *
1066:Generated_Source\PSoC5/PowerMonitor_1.c **** * Return:
1067:Generated_Source\PSoC5/PowerMonitor_1.c **** *  uint16: 16-bit value indicating the under voltage fault threshold in mV.
1068:Generated_Source\PSoC5/PowerMonitor_1.c **** *
1069:Generated_Source\PSoC5/PowerMonitor_1.c **** *******************************************************************************/
1070:Generated_Source\PSoC5/PowerMonitor_1.c **** uint16 PowerMonitor_1_GetUVFaultThreshold(uint8 converterNum) \
1071:Generated_Source\PSoC5/PowerMonitor_1.c ****        
1072:Generated_Source\PSoC5/PowerMonitor_1.c **** {
1073:Generated_Source\PSoC5/PowerMonitor_1.c ****     uint16 uvFaultThreshold = 0u;
1074:Generated_Source\PSoC5/PowerMonitor_1.c **** 
1075:Generated_Source\PSoC5/PowerMonitor_1.c ****     if ((converterNum > 0u) && (converterNum <= PowerMonitor_1_NUMBER_OF_CONVERTERS))
1076:Generated_Source\PSoC5/PowerMonitor_1.c ****     {
1077:Generated_Source\PSoC5/PowerMonitor_1.c ****         uvFaultThreshold = PowerMonitor_1_faultWin[converterNum - 1u].UVFaultThrshldVolts;
1078:Generated_Source\PSoC5/PowerMonitor_1.c ****     }
1079:Generated_Source\PSoC5/PowerMonitor_1.c **** 
1080:Generated_Source\PSoC5/PowerMonitor_1.c ****     return (uvFaultThreshold);
1081:Generated_Source\PSoC5/PowerMonitor_1.c **** }
1082:Generated_Source\PSoC5/PowerMonitor_1.c **** 
1083:Generated_Source\PSoC5/PowerMonitor_1.c **** 
1084:Generated_Source\PSoC5/PowerMonitor_1.c **** /*******************************************************************************
1085:Generated_Source\PSoC5/PowerMonitor_1.c **** * Function Name: PowerMonitor_1_SetOVFaultThreshold
1086:Generated_Source\PSoC5/PowerMonitor_1.c **** ********************************************************************************
1087:Generated_Source\PSoC5/PowerMonitor_1.c **** *
1088:Generated_Source\PSoC5/PowerMonitor_1.c **** * Summary:
1089:Generated_Source\PSoC5/PowerMonitor_1.c **** *  This API can be used to set the over voltage fault threshold for the
1090:Generated_Source\PSoC5/PowerMonitor_1.c **** *  specified power converter.
1091:Generated_Source\PSoC5/PowerMonitor_1.c **** *
1092:Generated_Source\PSoC5/PowerMonitor_1.c **** * Parameters:
1093:Generated_Source\PSoC5/PowerMonitor_1.c **** *  uint8 converterNum: 8-bit value indicating the converter number for which
1094:Generated_Source\PSoC5/PowerMonitor_1.c ****                        OV fault threshold to be set.
1095:Generated_Source\PSoC5/PowerMonitor_1.c **** *  uint16 OVFaultThreshold: Over voltage fault threshold in mV. Valid range
1096:Generated_Source\PSoC5/PowerMonitor_1.c ****                            is 1 - 65,535.
1097:Generated_Source\PSoC5/PowerMonitor_1.c **** *
1098:Generated_Source\PSoC5/PowerMonitor_1.c **** * Return:
1099:Generated_Source\PSoC5/PowerMonitor_1.c **** *  None
1100:Generated_Source\PSoC5/PowerMonitor_1.c **** *
1101:Generated_Source\PSoC5/PowerMonitor_1.c **** *******************************************************************************/
1102:Generated_Source\PSoC5/PowerMonitor_1.c **** void PowerMonitor_1_SetOVFaultThreshold(uint8 converterNum, uint16 ovFaultThreshold) \
1103:Generated_Source\PSoC5/PowerMonitor_1.c ****      
1104:Generated_Source\PSoC5/PowerMonitor_1.c **** {
1105:Generated_Source\PSoC5/PowerMonitor_1.c ****     int32 ovFaultCounts;
1106:Generated_Source\PSoC5/PowerMonitor_1.c ****     uint8 convRes = PowerMonitor_1_CYFALSE;
ARM GAS  C:\Users\user\AppData\Local\Temp\ccywx0XT.s 			page 21


1107:Generated_Source\PSoC5/PowerMonitor_1.c **** 
1108:Generated_Source\PSoC5/PowerMonitor_1.c ****     ovFaultCounts = PowerMonitor_1_mVToCounts(ovFaultThreshold, converterNum, &convRes);
1109:Generated_Source\PSoC5/PowerMonitor_1.c ****     if(convRes == PowerMonitor_1_CYTRUE)
1110:Generated_Source\PSoC5/PowerMonitor_1.c ****     {
1111:Generated_Source\PSoC5/PowerMonitor_1.c ****         /* Disable the interrupt */
1112:Generated_Source\PSoC5/PowerMonitor_1.c ****         PowerMonitor_1_IntDisable(PowerMonitor_1_IRQ__INTC_NUMBER);
1113:Generated_Source\PSoC5/PowerMonitor_1.c ****         /* Set the over voltage fault threshold */
1114:Generated_Source\PSoC5/PowerMonitor_1.c ****         PowerMonitor_1_faultWin[converterNum - 1u].OVFaultThrshldCounts = ovFaultCounts;
1115:Generated_Source\PSoC5/PowerMonitor_1.c ****         PowerMonitor_1_faultWin[converterNum - 1u].OVFaultThrshldVolts = ovFaultThreshold;
1116:Generated_Source\PSoC5/PowerMonitor_1.c ****         PowerMonitor_1_IntEnable(PowerMonitor_1_IRQ__INTC_NUMBER);
1117:Generated_Source\PSoC5/PowerMonitor_1.c ****     }
1118:Generated_Source\PSoC5/PowerMonitor_1.c **** }
1119:Generated_Source\PSoC5/PowerMonitor_1.c **** 
1120:Generated_Source\PSoC5/PowerMonitor_1.c **** 
1121:Generated_Source\PSoC5/PowerMonitor_1.c **** /*******************************************************************************
1122:Generated_Source\PSoC5/PowerMonitor_1.c **** * Function Name: PowerMonitor_1_GetOVFaultThreshold
1123:Generated_Source\PSoC5/PowerMonitor_1.c **** ********************************************************************************
1124:Generated_Source\PSoC5/PowerMonitor_1.c **** *
1125:Generated_Source\PSoC5/PowerMonitor_1.c **** * Summary:
1126:Generated_Source\PSoC5/PowerMonitor_1.c **** *  This API can be used to get the over voltage fault threshold for the
1127:Generated_Source\PSoC5/PowerMonitor_1.c **** *  specified power converter.
1128:Generated_Source\PSoC5/PowerMonitor_1.c **** *
1129:Generated_Source\PSoC5/PowerMonitor_1.c **** * Parameters:
1130:Generated_Source\PSoC5/PowerMonitor_1.c **** *  uint8 converterNum: Converter number for which to get the OV fault threshold
1131:Generated_Source\PSoC5/PowerMonitor_1.c **** *                      value. Valid range is 1-32.
1132:Generated_Source\PSoC5/PowerMonitor_1.c **** *
1133:Generated_Source\PSoC5/PowerMonitor_1.c **** * Return:
1134:Generated_Source\PSoC5/PowerMonitor_1.c **** *  uint16: 16-bit value indicating the over voltage fault threshold in mV.
1135:Generated_Source\PSoC5/PowerMonitor_1.c **** *
1136:Generated_Source\PSoC5/PowerMonitor_1.c **** *******************************************************************************/
1137:Generated_Source\PSoC5/PowerMonitor_1.c **** uint16 PowerMonitor_1_GetOVFaultThreshold(uint8 converterNum) \
1138:Generated_Source\PSoC5/PowerMonitor_1.c ****        
1139:Generated_Source\PSoC5/PowerMonitor_1.c **** {
1140:Generated_Source\PSoC5/PowerMonitor_1.c ****     uint16 ovFaultThreshold = 0u;
1141:Generated_Source\PSoC5/PowerMonitor_1.c **** 
1142:Generated_Source\PSoC5/PowerMonitor_1.c ****     if ((converterNum > 0u) && (converterNum <= PowerMonitor_1_NUMBER_OF_CONVERTERS))
1143:Generated_Source\PSoC5/PowerMonitor_1.c ****     {
1144:Generated_Source\PSoC5/PowerMonitor_1.c ****        ovFaultThreshold = PowerMonitor_1_faultWin[converterNum - 1u].OVFaultThrshldVolts;
1145:Generated_Source\PSoC5/PowerMonitor_1.c ****     }
1146:Generated_Source\PSoC5/PowerMonitor_1.c **** 
1147:Generated_Source\PSoC5/PowerMonitor_1.c ****     return (ovFaultThreshold);
1148:Generated_Source\PSoC5/PowerMonitor_1.c **** }
1149:Generated_Source\PSoC5/PowerMonitor_1.c **** 
1150:Generated_Source\PSoC5/PowerMonitor_1.c **** 
1151:Generated_Source\PSoC5/PowerMonitor_1.c **** /*******************************************************************************
1152:Generated_Source\PSoC5/PowerMonitor_1.c **** * Function Name: PowerMonitor_1_SetOCWarnThreshold
1153:Generated_Source\PSoC5/PowerMonitor_1.c **** ********************************************************************************
1154:Generated_Source\PSoC5/PowerMonitor_1.c **** *
1155:Generated_Source\PSoC5/PowerMonitor_1.c **** * Summary:
1156:Generated_Source\PSoC5/PowerMonitor_1.c **** *  This API can be used to set the over current warning threshold for the
1157:Generated_Source\PSoC5/PowerMonitor_1.c **** *  specified power converter.
1158:Generated_Source\PSoC5/PowerMonitor_1.c **** *
1159:Generated_Source\PSoC5/PowerMonitor_1.c **** * Parameters:
1160:Generated_Source\PSoC5/PowerMonitor_1.c **** *  uint8 converterNum: 8-bit value indicating the converter number for which
1161:Generated_Source\PSoC5/PowerMonitor_1.c ****                        over current warning threshold to be set.
1162:Generated_Source\PSoC5/PowerMonitor_1.c **** *  float OCWarnThreshold: Over Current warning threshold in A.
1163:Generated_Source\PSoC5/PowerMonitor_1.c **** *
ARM GAS  C:\Users\user\AppData\Local\Temp\ccywx0XT.s 			page 22


1164:Generated_Source\PSoC5/PowerMonitor_1.c **** * Return:
1165:Generated_Source\PSoC5/PowerMonitor_1.c **** *  None
1166:Generated_Source\PSoC5/PowerMonitor_1.c **** *
1167:Generated_Source\PSoC5/PowerMonitor_1.c **** *******************************************************************************/
1168:Generated_Source\PSoC5/PowerMonitor_1.c **** void PowerMonitor_1_SetOCWarnThreshold(uint8 converterNum, float ocWarnThreshold) \
1169:Generated_Source\PSoC5/PowerMonitor_1.c ****      
1170:Generated_Source\PSoC5/PowerMonitor_1.c **** {
1171:Generated_Source\PSoC5/PowerMonitor_1.c ****     int32 ocWarnCounts;
1172:Generated_Source\PSoC5/PowerMonitor_1.c ****     uint8 convRes = PowerMonitor_1_CYFALSE;
1173:Generated_Source\PSoC5/PowerMonitor_1.c **** 
1174:Generated_Source\PSoC5/PowerMonitor_1.c ****     ocWarnCounts = PowerMonitor_1_AToCounts(ocWarnThreshold, converterNum, &convRes);
1175:Generated_Source\PSoC5/PowerMonitor_1.c ****     if(convRes == PowerMonitor_1_CYTRUE)
1176:Generated_Source\PSoC5/PowerMonitor_1.c ****     {
1177:Generated_Source\PSoC5/PowerMonitor_1.c ****         /* Disable the interrupt */
1178:Generated_Source\PSoC5/PowerMonitor_1.c ****         PowerMonitor_1_IntDisable(PowerMonitor_1_IRQ__INTC_NUMBER);
1179:Generated_Source\PSoC5/PowerMonitor_1.c ****         PowerMonitor_1_warnWin[converterNum - 1u].OCWarnThrshldCounts = ocWarnCounts;
1180:Generated_Source\PSoC5/PowerMonitor_1.c ****         PowerMonitor_1_warnWin[converterNum - 1u].OCWarnThrshldAmps = ocWarnThreshold;
1181:Generated_Source\PSoC5/PowerMonitor_1.c ****         PowerMonitor_1_IntEnable(PowerMonitor_1_IRQ__INTC_NUMBER);
1182:Generated_Source\PSoC5/PowerMonitor_1.c ****     }
1183:Generated_Source\PSoC5/PowerMonitor_1.c **** }
1184:Generated_Source\PSoC5/PowerMonitor_1.c **** 
1185:Generated_Source\PSoC5/PowerMonitor_1.c **** 
1186:Generated_Source\PSoC5/PowerMonitor_1.c **** /*******************************************************************************
1187:Generated_Source\PSoC5/PowerMonitor_1.c **** * Function Name: PowerMonitor_1_GetOCWarnThreshold
1188:Generated_Source\PSoC5/PowerMonitor_1.c **** ********************************************************************************
1189:Generated_Source\PSoC5/PowerMonitor_1.c **** *
1190:Generated_Source\PSoC5/PowerMonitor_1.c **** * Summary:
1191:Generated_Source\PSoC5/PowerMonitor_1.c **** *  This API returns the over current warning theshold set for specified power
1192:Generated_Source\PSoC5/PowerMonitor_1.c **** *  converter.
1193:Generated_Source\PSoC5/PowerMonitor_1.c **** *
1194:Generated_Source\PSoC5/PowerMonitor_1.c **** * Parameters:
1195:Generated_Source\PSoC5/PowerMonitor_1.c **** *  uint8 converterNum: Converter number for which to get the over current
1196:Generated_Source\PSoC5/PowerMonitor_1.c **** *                      warning threshold value. Valid range is 1-32.
1197:Generated_Source\PSoC5/PowerMonitor_1.c **** *
1198:Generated_Source\PSoC5/PowerMonitor_1.c **** * Return:
1199:Generated_Source\PSoC5/PowerMonitor_1.c **** *  float: value indicating the over current warning threshold in A.
1200:Generated_Source\PSoC5/PowerMonitor_1.c **** *
1201:Generated_Source\PSoC5/PowerMonitor_1.c **** *******************************************************************************/
1202:Generated_Source\PSoC5/PowerMonitor_1.c **** float PowerMonitor_1_GetOCWarnThreshold(uint8 converterNum) \
1203:Generated_Source\PSoC5/PowerMonitor_1.c ****        
1204:Generated_Source\PSoC5/PowerMonitor_1.c **** {
1205:Generated_Source\PSoC5/PowerMonitor_1.c ****     float ocWarnThreshold = 0.0f;
1206:Generated_Source\PSoC5/PowerMonitor_1.c **** 
1207:Generated_Source\PSoC5/PowerMonitor_1.c ****     if ((converterNum > 0u) && (converterNum <= PowerMonitor_1_NUMBER_OF_CONVERTERS))
1208:Generated_Source\PSoC5/PowerMonitor_1.c ****     {
1209:Generated_Source\PSoC5/PowerMonitor_1.c ****         if(PowerMonitor_1_CurrentType[converterNum - 1u] != PowerMonitor_1_CURRENT_TYPE_NA)
1210:Generated_Source\PSoC5/PowerMonitor_1.c ****         {
1211:Generated_Source\PSoC5/PowerMonitor_1.c ****             ocWarnThreshold = PowerMonitor_1_warnWin[converterNum - 1u].OCWarnThrshldAmps;
1212:Generated_Source\PSoC5/PowerMonitor_1.c ****         }
1213:Generated_Source\PSoC5/PowerMonitor_1.c ****     }
1214:Generated_Source\PSoC5/PowerMonitor_1.c **** 
1215:Generated_Source\PSoC5/PowerMonitor_1.c ****     return (ocWarnThreshold);
1216:Generated_Source\PSoC5/PowerMonitor_1.c **** }
1217:Generated_Source\PSoC5/PowerMonitor_1.c **** 
1218:Generated_Source\PSoC5/PowerMonitor_1.c **** 
1219:Generated_Source\PSoC5/PowerMonitor_1.c **** /*******************************************************************************
1220:Generated_Source\PSoC5/PowerMonitor_1.c **** * Function Name: PowerMonitor_1_SetOCFaultThreshold
ARM GAS  C:\Users\user\AppData\Local\Temp\ccywx0XT.s 			page 23


1221:Generated_Source\PSoC5/PowerMonitor_1.c **** ********************************************************************************
1222:Generated_Source\PSoC5/PowerMonitor_1.c **** *
1223:Generated_Source\PSoC5/PowerMonitor_1.c **** * Summary:
1224:Generated_Source\PSoC5/PowerMonitor_1.c **** *  This API can be used to set the over current fault threshold for the
1225:Generated_Source\PSoC5/PowerMonitor_1.c **** *  specified power converter.
1226:Generated_Source\PSoC5/PowerMonitor_1.c **** *
1227:Generated_Source\PSoC5/PowerMonitor_1.c **** * Parameters:
1228:Generated_Source\PSoC5/PowerMonitor_1.c **** *  uint8 converterNum: 8-bit value indicating the converter number for which
1229:Generated_Source\PSoC5/PowerMonitor_1.c ****                        over current fault threshold to be set.
1230:Generated_Source\PSoC5/PowerMonitor_1.c **** *  float OCFaultThreshold: Over Current fault threshold in A.
1231:Generated_Source\PSoC5/PowerMonitor_1.c **** *
1232:Generated_Source\PSoC5/PowerMonitor_1.c **** * Return:
1233:Generated_Source\PSoC5/PowerMonitor_1.c **** *  None
1234:Generated_Source\PSoC5/PowerMonitor_1.c **** *
1235:Generated_Source\PSoC5/PowerMonitor_1.c **** *******************************************************************************/
1236:Generated_Source\PSoC5/PowerMonitor_1.c **** void PowerMonitor_1_SetOCFaultThreshold(uint8 converterNum, float ocFaultThreshold) \
1237:Generated_Source\PSoC5/PowerMonitor_1.c ****      
1238:Generated_Source\PSoC5/PowerMonitor_1.c **** {
1239:Generated_Source\PSoC5/PowerMonitor_1.c ****     int32 ocFaultCounts;
1240:Generated_Source\PSoC5/PowerMonitor_1.c ****     uint8 convRes = PowerMonitor_1_CYFALSE;
1241:Generated_Source\PSoC5/PowerMonitor_1.c **** 
1242:Generated_Source\PSoC5/PowerMonitor_1.c ****     ocFaultCounts = PowerMonitor_1_AToCounts(ocFaultThreshold, converterNum, &convRes);
1243:Generated_Source\PSoC5/PowerMonitor_1.c ****     if(convRes == PowerMonitor_1_CYTRUE)
1244:Generated_Source\PSoC5/PowerMonitor_1.c ****     {
1245:Generated_Source\PSoC5/PowerMonitor_1.c ****         /* Disable the interrupt */
1246:Generated_Source\PSoC5/PowerMonitor_1.c ****         PowerMonitor_1_IntDisable(PowerMonitor_1_IRQ__INTC_NUMBER);
1247:Generated_Source\PSoC5/PowerMonitor_1.c ****         PowerMonitor_1_faultWin[converterNum - 1u].OCFaultThrshldCounts = ocFaultCounts;
1248:Generated_Source\PSoC5/PowerMonitor_1.c ****         PowerMonitor_1_faultWin[converterNum - 1u].OCFaultThrshldAmps = ocFaultThreshold;
1249:Generated_Source\PSoC5/PowerMonitor_1.c ****         PowerMonitor_1_IntEnable(PowerMonitor_1_IRQ__INTC_NUMBER);
1250:Generated_Source\PSoC5/PowerMonitor_1.c ****     }
1251:Generated_Source\PSoC5/PowerMonitor_1.c **** }
1252:Generated_Source\PSoC5/PowerMonitor_1.c **** 
1253:Generated_Source\PSoC5/PowerMonitor_1.c **** 
1254:Generated_Source\PSoC5/PowerMonitor_1.c **** /*******************************************************************************
1255:Generated_Source\PSoC5/PowerMonitor_1.c **** * Function Name: PowerMonitor_1_GetOCFaultThreshold
1256:Generated_Source\PSoC5/PowerMonitor_1.c **** ********************************************************************************
1257:Generated_Source\PSoC5/PowerMonitor_1.c **** *
1258:Generated_Source\PSoC5/PowerMonitor_1.c **** * Summary:
1259:Generated_Source\PSoC5/PowerMonitor_1.c **** *  This API returns the over current fault theshold set for specified power
1260:Generated_Source\PSoC5/PowerMonitor_1.c **** *  converter.
1261:Generated_Source\PSoC5/PowerMonitor_1.c **** *
1262:Generated_Source\PSoC5/PowerMonitor_1.c **** * Parameters:
1263:Generated_Source\PSoC5/PowerMonitor_1.c **** *  uint8 converterNum: Converter number for which to get the over current
1264:Generated_Source\PSoC5/PowerMonitor_1.c **** *                      fault threshold value. Valid range is 1-32.
1265:Generated_Source\PSoC5/PowerMonitor_1.c **** *
1266:Generated_Source\PSoC5/PowerMonitor_1.c **** * Return:
1267:Generated_Source\PSoC5/PowerMonitor_1.c **** *  float: value indicating the over current fault threshold in A.
1268:Generated_Source\PSoC5/PowerMonitor_1.c **** *
1269:Generated_Source\PSoC5/PowerMonitor_1.c **** *******************************************************************************/
1270:Generated_Source\PSoC5/PowerMonitor_1.c **** float PowerMonitor_1_GetOCFaultThreshold(uint8 converterNum) \
1271:Generated_Source\PSoC5/PowerMonitor_1.c ****        
1272:Generated_Source\PSoC5/PowerMonitor_1.c **** {
1273:Generated_Source\PSoC5/PowerMonitor_1.c ****     float ocFaultThreshold = 0.0f;
1274:Generated_Source\PSoC5/PowerMonitor_1.c **** 
1275:Generated_Source\PSoC5/PowerMonitor_1.c **** 
1276:Generated_Source\PSoC5/PowerMonitor_1.c ****     if ((converterNum > 0u) && (converterNum <= PowerMonitor_1_NUMBER_OF_CONVERTERS))
1277:Generated_Source\PSoC5/PowerMonitor_1.c ****     {
ARM GAS  C:\Users\user\AppData\Local\Temp\ccywx0XT.s 			page 24


1278:Generated_Source\PSoC5/PowerMonitor_1.c ****         if(PowerMonitor_1_CurrentType[converterNum - 1u] != PowerMonitor_1_CURRENT_TYPE_NA)
1279:Generated_Source\PSoC5/PowerMonitor_1.c ****         {
1280:Generated_Source\PSoC5/PowerMonitor_1.c ****             ocFaultThreshold = PowerMonitor_1_faultWin[converterNum - 1u].OCFaultThrshldAmps;
1281:Generated_Source\PSoC5/PowerMonitor_1.c ****         }
1282:Generated_Source\PSoC5/PowerMonitor_1.c ****     }
1283:Generated_Source\PSoC5/PowerMonitor_1.c **** 
1284:Generated_Source\PSoC5/PowerMonitor_1.c ****     return (ocFaultThreshold);
1285:Generated_Source\PSoC5/PowerMonitor_1.c **** }
1286:Generated_Source\PSoC5/PowerMonitor_1.c **** 
1287:Generated_Source\PSoC5/PowerMonitor_1.c **** 
1288:Generated_Source\PSoC5/PowerMonitor_1.c **** /*******************************************************************************
1289:Generated_Source\PSoC5/PowerMonitor_1.c **** * Function Name: PowerMonitor_1_GetConverterVoltage
1290:Generated_Source\PSoC5/PowerMonitor_1.c **** ********************************************************************************
1291:Generated_Source\PSoC5/PowerMonitor_1.c **** *
1292:Generated_Source\PSoC5/PowerMonitor_1.c **** * Summary:
1293:Generated_Source\PSoC5/PowerMonitor_1.c **** *  This API returns the power converter output voltage for the specified power
1294:Generated_Source\PSoC5/PowerMonitor_1.c **** *  converter. If averaging is enabled, then value returned is the averaged
1295:Generated_Source\PSoC5/PowerMonitor_1.c **** *  value.
1296:Generated_Source\PSoC5/PowerMonitor_1.c **** *
1297:Generated_Source\PSoC5/PowerMonitor_1.c **** * Parameters:
1298:Generated_Source\PSoC5/PowerMonitor_1.c **** *  uint8 converterNum: Converter number for which to read the voltage. Valid
1299:Generated_Source\PSoC5/PowerMonitor_1.c **** *                      Range is 1 - 32.
1300:Generated_Source\PSoC5/PowerMonitor_1.c **** *
1301:Generated_Source\PSoC5/PowerMonitor_1.c **** * Return:
1302:Generated_Source\PSoC5/PowerMonitor_1.c **** *  uint16: Output voltage for the specified converter in mV Valid range
1303:Generated_Source\PSoC5/PowerMonitor_1.c **** *          is 1 - 65535.
1304:Generated_Source\PSoC5/PowerMonitor_1.c **** *
1305:Generated_Source\PSoC5/PowerMonitor_1.c **** *******************************************************************************/
1306:Generated_Source\PSoC5/PowerMonitor_1.c **** uint16 PowerMonitor_1_GetConverterVoltage(uint8 converterNum) \
1307:Generated_Source\PSoC5/PowerMonitor_1.c ****        
1308:Generated_Source\PSoC5/PowerMonitor_1.c **** {
1309:Generated_Source\PSoC5/PowerMonitor_1.c ****     float retval = 0.0f;
1310:Generated_Source\PSoC5/PowerMonitor_1.c **** 
1311:Generated_Source\PSoC5/PowerMonitor_1.c ****     if ((converterNum <= PowerMonitor_1_NUMBER_OF_CONVERTERS) && (converterNum > 0u))
1312:Generated_Source\PSoC5/PowerMonitor_1.c ****     {
1313:Generated_Source\PSoC5/PowerMonitor_1.c ****         /* raw pin voltage, in mV   */
1314:Generated_Source\PSoC5/PowerMonitor_1.c ****         retval  = PowerMonitor_1_GetMeasuredVal((converterNum - 1), PowerMonitor_1_VOLTAGE);
1315:Generated_Source\PSoC5/PowerMonitor_1.c ****         retval /= PowerMonitor_1_VoltageScale[converterNum - 1];
1316:Generated_Source\PSoC5/PowerMonitor_1.c ****         retval += 0.5f;                                      /* Ret rounded-off integer  */
1317:Generated_Source\PSoC5/PowerMonitor_1.c ****     }
1318:Generated_Source\PSoC5/PowerMonitor_1.c ****     if(retval < 0u)
1319:Generated_Source\PSoC5/PowerMonitor_1.c ****     {
1320:Generated_Source\PSoC5/PowerMonitor_1.c ****         retval = 0u;
1321:Generated_Source\PSoC5/PowerMonitor_1.c ****     }
1322:Generated_Source\PSoC5/PowerMonitor_1.c ****     return ((uint16)retval);
1323:Generated_Source\PSoC5/PowerMonitor_1.c **** }
1324:Generated_Source\PSoC5/PowerMonitor_1.c **** 
1325:Generated_Source\PSoC5/PowerMonitor_1.c **** 
1326:Generated_Source\PSoC5/PowerMonitor_1.c **** /*******************************************************************************
1327:Generated_Source\PSoC5/PowerMonitor_1.c **** * Function Name: PowerMonitor_1_GetConverterCurrent
1328:Generated_Source\PSoC5/PowerMonitor_1.c **** ********************************************************************************
1329:Generated_Source\PSoC5/PowerMonitor_1.c **** *
1330:Generated_Source\PSoC5/PowerMonitor_1.c **** * Summary:
1331:Generated_Source\PSoC5/PowerMonitor_1.c **** *  This API returns the power converter load current for the specified power
1332:Generated_Source\PSoC5/PowerMonitor_1.c **** *  converter. If averaging is enabled, then value returned is the averaged
1333:Generated_Source\PSoC5/PowerMonitor_1.c **** *  value.
1334:Generated_Source\PSoC5/PowerMonitor_1.c **** *
ARM GAS  C:\Users\user\AppData\Local\Temp\ccywx0XT.s 			page 25


1335:Generated_Source\PSoC5/PowerMonitor_1.c **** * Parameters:
1336:Generated_Source\PSoC5/PowerMonitor_1.c **** *  uint8 converterNum: Converter number for which to read the current. Valid
1337:Generated_Source\PSoC5/PowerMonitor_1.c **** *                      Range is 1 - 32.
1338:Generated_Source\PSoC5/PowerMonitor_1.c **** *
1339:Generated_Source\PSoC5/PowerMonitor_1.c **** * Return:
1340:Generated_Source\PSoC5/PowerMonitor_1.c **** *  float: value indicating the output current for the specified converter in A.
1341:Generated_Source\PSoC5/PowerMonitor_1.c **** *
1342:Generated_Source\PSoC5/PowerMonitor_1.c **** *******************************************************************************/
1343:Generated_Source\PSoC5/PowerMonitor_1.c **** float PowerMonitor_1_GetConverterCurrent(uint8 converterNum) \
1344:Generated_Source\PSoC5/PowerMonitor_1.c ****        
1345:Generated_Source\PSoC5/PowerMonitor_1.c **** {
1346:Generated_Source\PSoC5/PowerMonitor_1.c ****     float retval = 0.0f;
1347:Generated_Source\PSoC5/PowerMonitor_1.c **** 
1348:Generated_Source\PSoC5/PowerMonitor_1.c ****     if ((converterNum <= PowerMonitor_1_NUMBER_OF_CONVERTERS) && (converterNum > 0u))
1349:Generated_Source\PSoC5/PowerMonitor_1.c ****     {
1350:Generated_Source\PSoC5/PowerMonitor_1.c ****         #if (PowerMonitor_1_NUM_CURRENT_SOURCES > 0)
1351:Generated_Source\PSoC5/PowerMonitor_1.c ****             /* raw pin voltage, in mV   */
1352:Generated_Source\PSoC5/PowerMonitor_1.c ****             retval  = PowerMonitor_1_GetMeasuredVal((converterNum - 1), PowerMonitor_1_CURRENT);
1353:Generated_Source\PSoC5/PowerMonitor_1.c ****             /* Convert pin voltage to current */
1354:Generated_Source\PSoC5/PowerMonitor_1.c ****             if (PowerMonitor_1_CurrentType[converterNum - 1] == PowerMonitor_1_CURRENT_TYPE_DIRECT)
1355:Generated_Source\PSoC5/PowerMonitor_1.c ****             {
1356:Generated_Source\PSoC5/PowerMonitor_1.c ****                 retval /= PowerMonitor_1_RShunt[converterNum - 1];
1357:Generated_Source\PSoC5/PowerMonitor_1.c ****             }
1358:Generated_Source\PSoC5/PowerMonitor_1.c ****             else if (PowerMonitor_1_CurrentType[converterNum - 1] == PowerMonitor_1_CURRENT_TYPE_CS
1359:Generated_Source\PSoC5/PowerMonitor_1.c ****             {
1360:Generated_Source\PSoC5/PowerMonitor_1.c ****                 retval /= (PowerMonitor_1_CSAGain[converterNum - 1] * PowerMonitor_1_RShunt[convert
1361:Generated_Source\PSoC5/PowerMonitor_1.c ****             }
1362:Generated_Source\PSoC5/PowerMonitor_1.c ****             else
1363:Generated_Source\PSoC5/PowerMonitor_1.c ****             {
1364:Generated_Source\PSoC5/PowerMonitor_1.c ****                 /* No action */
1365:Generated_Source\PSoC5/PowerMonitor_1.c ****             }
1366:Generated_Source\PSoC5/PowerMonitor_1.c ****         #endif /* (PowerMonitor_1_NUM_CURRENT_SOURCES > 0 */
1367:Generated_Source\PSoC5/PowerMonitor_1.c ****     }
1368:Generated_Source\PSoC5/PowerMonitor_1.c ****     return (retval);
1369:Generated_Source\PSoC5/PowerMonitor_1.c **** }
1370:Generated_Source\PSoC5/PowerMonitor_1.c **** 
1371:Generated_Source\PSoC5/PowerMonitor_1.c **** 
1372:Generated_Source\PSoC5/PowerMonitor_1.c **** /*******************************************************************************
1373:Generated_Source\PSoC5/PowerMonitor_1.c **** * Function Name: PowerMonitor_1_GetAuxiliaryVoltage
1374:Generated_Source\PSoC5/PowerMonitor_1.c **** ********************************************************************************
1375:Generated_Source\PSoC5/PowerMonitor_1.c **** *
1376:Generated_Source\PSoC5/PowerMonitor_1.c **** * Summary:
1377:Generated_Source\PSoC5/PowerMonitor_1.c **** *  This API returns the output voltage for one of the four auxiliary inputs.
1378:Generated_Source\PSoC5/PowerMonitor_1.c **** *
1379:Generated_Source\PSoC5/PowerMonitor_1.c **** * Parameters:
1380:Generated_Source\PSoC5/PowerMonitor_1.c **** *  uint8 auxNum: Auxiliary input number. Valid range is 1 - 4.
1381:Generated_Source\PSoC5/PowerMonitor_1.c **** *
1382:Generated_Source\PSoC5/PowerMonitor_1.c **** * Return:
1383:Generated_Source\PSoC5/PowerMonitor_1.c **** *  float value indicating the output voltage for one of the four
1384:Generated_Source\PSoC5/PowerMonitor_1.c **** *  auxiliary inputs.
1385:Generated_Source\PSoC5/PowerMonitor_1.c **** *
1386:Generated_Source\PSoC5/PowerMonitor_1.c **** *******************************************************************************/
1387:Generated_Source\PSoC5/PowerMonitor_1.c **** float PowerMonitor_1_GetAuxiliaryVoltage(uint8 auxNum) 
1388:Generated_Source\PSoC5/PowerMonitor_1.c **** {
1389:Generated_Source\PSoC5/PowerMonitor_1.c ****     float retval = 0.0f;
1390:Generated_Source\PSoC5/PowerMonitor_1.c **** 
1391:Generated_Source\PSoC5/PowerMonitor_1.c ****     if ((auxNum <= PowerMonitor_1_NUM_AUX_INPUTS) && (auxNum > 0u))
ARM GAS  C:\Users\user\AppData\Local\Temp\ccywx0XT.s 			page 26


1392:Generated_Source\PSoC5/PowerMonitor_1.c ****     {
1393:Generated_Source\PSoC5/PowerMonitor_1.c ****         #if (PowerMonitor_1_NUM_AUX_INPUTS > 0)
1394:Generated_Source\PSoC5/PowerMonitor_1.c ****             /* Disable the interrupt before fetching the raw ADC data */
1395:Generated_Source\PSoC5/PowerMonitor_1.c ****             PowerMonitor_1_IntDisable(PowerMonitor_1_IRQ__INTC_NUMBER);
1396:Generated_Source\PSoC5/PowerMonitor_1.c ****             retval  = PowerMonitor_1_auxVoltCtl[auxNum - 1].filtVal;
1397:Generated_Source\PSoC5/PowerMonitor_1.c ****             /* Re-enable the interrupt */
1398:Generated_Source\PSoC5/PowerMonitor_1.c ****             PowerMonitor_1_IntEnable(PowerMonitor_1_IRQ__INTC_NUMBER);
1399:Generated_Source\PSoC5/PowerMonitor_1.c **** 
1400:Generated_Source\PSoC5/PowerMonitor_1.c ****             retval /= PowerMonitor_1_AUX_VOLTAGE_FILTER_SIZE;
1401:Generated_Source\PSoC5/PowerMonitor_1.c **** 
1402:Generated_Source\PSoC5/PowerMonitor_1.c ****             if ((PowerMonitor_1_AuxVoltageType[auxNum - 1] == PowerMonitor_1_AUX_VOLTAGE_64MV_DIFF)
1403:Generated_Source\PSoC5/PowerMonitor_1.c ****                 (PowerMonitor_1_AuxVoltageType[auxNum - 1] == PowerMonitor_1_AUX_VOLTAGE_128MV_DIFF
1404:Generated_Source\PSoC5/PowerMonitor_1.c ****             {
1405:Generated_Source\PSoC5/PowerMonitor_1.c ****                 /* Use config-2 correction value */
1406:Generated_Source\PSoC5/PowerMonitor_1.c ****                 retval *= PowerMonitor_1_adcGainCfg2;
1407:Generated_Source\PSoC5/PowerMonitor_1.c ****             }
1408:Generated_Source\PSoC5/PowerMonitor_1.c ****             else
1409:Generated_Source\PSoC5/PowerMonitor_1.c ****             {
1410:Generated_Source\PSoC5/PowerMonitor_1.c ****                 /* Use config-1 or 4 correction value */
1411:Generated_Source\PSoC5/PowerMonitor_1.c ****                 if (PowerMonitor_1_AuxVoltageType[auxNum - 1] != PowerMonitor_1_AUX_VOLTAGE_SINGLE)
1412:Generated_Source\PSoC5/PowerMonitor_1.c ****                 {
1413:Generated_Source\PSoC5/PowerMonitor_1.c ****                     retval *= PowerMonitor_1_adcGainCfg1;    /* Convert counts to 1mV units   */
1414:Generated_Source\PSoC5/PowerMonitor_1.c ****                 }
1415:Generated_Source\PSoC5/PowerMonitor_1.c ****                 else
1416:Generated_Source\PSoC5/PowerMonitor_1.c ****                 {
1417:Generated_Source\PSoC5/PowerMonitor_1.c ****                     #if (PowerMonitor_1_DEFAULT_SE_VOLTAGE_RANGE == PowerMonitor_1_SE_VOLTAGE_RANGE
1418:Generated_Source\PSoC5/PowerMonitor_1.c ****                         retval *= PowerMonitor_1_adcGainCfg1;    /* Convert counts to 1mV units   *
1419:Generated_Source\PSoC5/PowerMonitor_1.c ****                         retval += PowerMonitor_1_adcSeAdjCfg1;
1420:Generated_Source\PSoC5/PowerMonitor_1.c ****                     #else
1421:Generated_Source\PSoC5/PowerMonitor_1.c ****                         retval *= PowerMonitor_1_adcGainCfg3;    /* Convert counts to 1mV units   *
1422:Generated_Source\PSoC5/PowerMonitor_1.c ****                         retval += PowerMonitor_1_adcSeAdjCfg3;
1423:Generated_Source\PSoC5/PowerMonitor_1.c ****                     #endif /* (PowerMonitor_1_DEFAULT_SE_VOLTAGE_RANGE == PowerMonitor_1_SE_VOLTAGE
1424:Generated_Source\PSoC5/PowerMonitor_1.c ****                 }
1425:Generated_Source\PSoC5/PowerMonitor_1.c ****             }
1426:Generated_Source\PSoC5/PowerMonitor_1.c ****             retval = retval / PowerMonitor_1_VOLTAGE_SCALE;
1427:Generated_Source\PSoC5/PowerMonitor_1.c ****         #endif /* PowerMonitor_1_NUM_AUX_INPUTS > 0 */
1428:Generated_Source\PSoC5/PowerMonitor_1.c ****     }
1429:Generated_Source\PSoC5/PowerMonitor_1.c ****     return (retval);
1430:Generated_Source\PSoC5/PowerMonitor_1.c **** }
1431:Generated_Source\PSoC5/PowerMonitor_1.c **** 
1432:Generated_Source\PSoC5/PowerMonitor_1.c **** 
1433:Generated_Source\PSoC5/PowerMonitor_1.c **** /*******************************************************************************
1434:Generated_Source\PSoC5/PowerMonitor_1.c **** * Function Name: PowerMonitor_1_StartupISR
1435:Generated_Source\PSoC5/PowerMonitor_1.c **** ********************************************************************************
1436:Generated_Source\PSoC5/PowerMonitor_1.c **** *
1437:Generated_Source\PSoC5/PowerMonitor_1.c **** * Summary:
1438:Generated_Source\PSoC5/PowerMonitor_1.c **** *  This is an internal API. This starts the ISR routine manually by setting the
1439:Generated_Source\PSoC5/PowerMonitor_1.c **** *  interrupt pending register. This also sets the initial state for ADC to start
1440:Generated_Source\PSoC5/PowerMonitor_1.c **** *  after software reset happens..
1441:Generated_Source\PSoC5/PowerMonitor_1.c **** *
1442:Generated_Source\PSoC5/PowerMonitor_1.c **** * Parameters:
1443:Generated_Source\PSoC5/PowerMonitor_1.c **** *  None.
1444:Generated_Source\PSoC5/PowerMonitor_1.c **** *
1445:Generated_Source\PSoC5/PowerMonitor_1.c **** * Return:
1446:Generated_Source\PSoC5/PowerMonitor_1.c **** *  None.
1447:Generated_Source\PSoC5/PowerMonitor_1.c **** *
1448:Generated_Source\PSoC5/PowerMonitor_1.c **** *******************************************************************************/
ARM GAS  C:\Users\user\AppData\Local\Temp\ccywx0XT.s 			page 27


1449:Generated_Source\PSoC5/PowerMonitor_1.c **** static void PowerMonitor_1_StartupIsr(void) 
1450:Generated_Source\PSoC5/PowerMonitor_1.c **** {
1451:Generated_Source\PSoC5/PowerMonitor_1.c ****      /* last voltage, current annd auxiliary voltage channels */
1452:Generated_Source\PSoC5/PowerMonitor_1.c ****     PowerMonitor_1_lastVoltageChan = PowerMonitor_1_NUMBER_OF_CONVERTERS;
1453:Generated_Source\PSoC5/PowerMonitor_1.c ****     PowerMonitor_1_lastCurrentChan = PowerMonitor_1_NUM_CURRENT_SOURCES + PowerMonitor_1_NUMBER_OF_
1454:Generated_Source\PSoC5/PowerMonitor_1.c ****     PowerMonitor_1_lastAuxVoltChan = PowerMonitor_1_NUM_AUX_INPUTS + PowerMonitor_1_lastCurrentChan
1455:Generated_Source\PSoC5/PowerMonitor_1.c ****     PowerMonitor_1_iirInit = PowerMonitor_1_INITIALIZE_IIR_FILTER;
1456:Generated_Source\PSoC5/PowerMonitor_1.c **** 
1457:Generated_Source\PSoC5/PowerMonitor_1.c ****     /* Manually start the first ADC ISR */
1458:Generated_Source\PSoC5/PowerMonitor_1.c ****     PowerMonitor_1_IsrStart();
1459:Generated_Source\PSoC5/PowerMonitor_1.c **** 
1460:Generated_Source\PSoC5/PowerMonitor_1.c ****     /* Start the calibration process */
1461:Generated_Source\PSoC5/PowerMonitor_1.c ****     PowerMonitor_1_Calibrate();
1462:Generated_Source\PSoC5/PowerMonitor_1.c ****     PowerMonitor_1_iirInit = PowerMonitor_1_NEXTSAMPLE_IIR_FILTER;
1463:Generated_Source\PSoC5/PowerMonitor_1.c **** }
1464:Generated_Source\PSoC5/PowerMonitor_1.c **** 
1465:Generated_Source\PSoC5/PowerMonitor_1.c **** /*******************************************************************************
1466:Generated_Source\PSoC5/PowerMonitor_1.c **** * Function Name: PowerMonitor_1_mVToCounts()
1467:Generated_Source\PSoC5/PowerMonitor_1.c **** ********************************************************************************
1468:Generated_Source\PSoC5/PowerMonitor_1.c **** *
1469:Generated_Source\PSoC5/PowerMonitor_1.c **** * Summary:
1470:Generated_Source\PSoC5/PowerMonitor_1.c **** *  Convert mV to Counts for DelSig Config #1 +/- 2048 mV range or 
1471:Generated_Source\PSoC5/PowerMonitor_1.c **** *                           DelSig Config #4 +/- 1024 mV
1472:Generated_Source\PSoC5/PowerMonitor_1.c **** *
1473:Generated_Source\PSoC5/PowerMonitor_1.c **** * Parameters:
1474:Generated_Source\PSoC5/PowerMonitor_1.c **** *  mV = millivolt value to convert to counts
1475:Generated_Source\PSoC5/PowerMonitor_1.c **** *  chan = channel id
1476:Generated_Source\PSoC5/PowerMonitor_1.c **** *  convSuccess = pointer to conversion result returns: 1 - success, 0 - failed
1477:Generated_Source\PSoC5/PowerMonitor_1.c **** *
1478:Generated_Source\PSoC5/PowerMonitor_1.c **** * Return:
1479:Generated_Source\PSoC5/PowerMonitor_1.c **** *  counts = DelSig raw counts corresponding to desired mV value
1480:Generated_Source\PSoC5/PowerMonitor_1.c **** *
1481:Generated_Source\PSoC5/PowerMonitor_1.c **** *******************************************************************************/
1482:Generated_Source\PSoC5/PowerMonitor_1.c **** static int32 PowerMonitor_1_mVToCounts(uint16 mV, uint8 chan, uint8 * convSuccess)     \
1483:Generated_Source\PSoC5/PowerMonitor_1.c ****                                                                 
1484:Generated_Source\PSoC5/PowerMonitor_1.c **** {
  35              		.loc 1 1484 0
  36              		.cfi_startproc
  37              		@ args = 0, pretend = 0, frame = 0
  38              		@ frame_needed = 0, uses_anonymous_args = 0
  39              	.LVL0:
  40 0000 70B5     		push	{r4, r5, r6, lr}
  41              		.cfi_def_cfa_offset 16
  42              		.cfi_offset 4, -16
  43              		.cfi_offset 5, -12
  44              		.cfi_offset 6, -8
  45              		.cfi_offset 14, -4
  46 0002 0C46     		mov	r4, r1
  47 0004 1546     		mov	r5, r2
1485:Generated_Source\PSoC5/PowerMonitor_1.c ****     float pinV = mV;
  48              		.loc 1 1485 0
  49 0006 FFF7FEFF 		bl	__aeabi_ui2f
  50              	.LVL1:
1486:Generated_Source\PSoC5/PowerMonitor_1.c ****     float counts = 0.0f;
1487:Generated_Source\PSoC5/PowerMonitor_1.c **** 
1488:Generated_Source\PSoC5/PowerMonitor_1.c ****     *convSuccess = PowerMonitor_1_CYFALSE;
  51              		.loc 1 1488 0
ARM GAS  C:\Users\user\AppData\Local\Temp\ccywx0XT.s 			page 28


  52 000a 0023     		movs	r3, #0
  53 000c 2B70     		strb	r3, [r5]
1489:Generated_Source\PSoC5/PowerMonitor_1.c ****     if ((chan > 0u) && (chan <= PowerMonitor_1_NUMBER_OF_CONVERTERS))
  54              		.loc 1 1489 0
  55 000e 631E     		subs	r3, r4, #1
  56 0010 DBB2     		uxtb	r3, r3
  57 0012 012B     		cmp	r3, #1
  58 0014 39D8     		bhi	.L7
1490:Generated_Source\PSoC5/PowerMonitor_1.c ****     {
1491:Generated_Source\PSoC5/PowerMonitor_1.c ****         pinV *= PowerMonitor_1_VoltageScale[chan - 1u];
  59              		.loc 1 1491 0
  60 0016 013C     		subs	r4, r4, #1
  61 0018 1F4B     		ldr	r3, .L12
  62 001a 53F82410 		ldr	r1, [r3, r4, lsl #2]	@ float
  63 001e FFF7FEFF 		bl	__aeabi_fmul
  64              	.LVL2:
  65 0022 0646     		mov	r6, r0
  66              	.LVL3:
1492:Generated_Source\PSoC5/PowerMonitor_1.c **** 
1493:Generated_Source\PSoC5/PowerMonitor_1.c ****         if (PowerMonitor_1_VoltageType[chan - 1] == PowerMonitor_1_VOLTAGE_TYPE_SINGLE)
  67              		.loc 1 1493 0
  68 0024 1D4B     		ldr	r3, .L12+4
  69 0026 1B5D     		ldrb	r3, [r3, r4]	@ zero_extendqisi2
  70 0028 ABB9     		cbnz	r3, .L3
1494:Generated_Source\PSoC5/PowerMonitor_1.c ****         {
1495:Generated_Source\PSoC5/PowerMonitor_1.c ****             #if (PowerMonitor_1_DEFAULT_SE_VOLTAGE_RANGE == PowerMonitor_1_SE_VOLTAGE_RANGE_4096MV)
1496:Generated_Source\PSoC5/PowerMonitor_1.c ****                 if(pinV <= PowerMonitor_1_VOLTAGE_4096MV)
  71              		.loc 1 1496 0
  72 002a 4FF08B41 		mov	r1, #1166016512
  73 002e FFF7FEFF 		bl	__aeabi_fcmple
  74              	.LVL4:
  75 0032 E8B1     		cbz	r0, .L4
1497:Generated_Source\PSoC5/PowerMonitor_1.c ****                 {
1498:Generated_Source\PSoC5/PowerMonitor_1.c ****                     *convSuccess = PowerMonitor_1_CYTRUE;
  76              		.loc 1 1498 0
  77 0034 0123     		movs	r3, #1
  78 0036 2B70     		strb	r3, [r5]
1499:Generated_Source\PSoC5/PowerMonitor_1.c ****                     pinV -= PowerMonitor_1_adcSeAdjCfg1;
  79              		.loc 1 1499 0
  80 0038 194B     		ldr	r3, .L12+8
  81 003a B3F90000 		ldrsh	r0, [r3]
  82 003e FFF7FEFF 		bl	__aeabi_i2f
  83              	.LVL5:
  84 0042 0146     		mov	r1, r0
  85 0044 3046     		mov	r0, r6
  86 0046 FFF7FEFF 		bl	__aeabi_fsub
  87              	.LVL6:
1500:Generated_Source\PSoC5/PowerMonitor_1.c ****                     pinV /= PowerMonitor_1_adcGainCfg1;
  88              		.loc 1 1500 0
  89 004a 164B     		ldr	r3, .L12+12
  90 004c 1968     		ldr	r1, [r3]	@ float
  91 004e FFF7FEFF 		bl	__aeabi_fdiv
  92              	.LVL7:
  93 0052 0646     		mov	r6, r0
  94              	.LVL8:
  95 0054 0CE0     		b	.L4
  96              	.L3:
ARM GAS  C:\Users\user\AppData\Local\Temp\ccywx0XT.s 			page 29


1501:Generated_Source\PSoC5/PowerMonitor_1.c ****                 }
1502:Generated_Source\PSoC5/PowerMonitor_1.c ****             #else
1503:Generated_Source\PSoC5/PowerMonitor_1.c ****                 if(pinV <= PowerMonitor_1_VOLTAGE_2048MV)
1504:Generated_Source\PSoC5/PowerMonitor_1.c ****                 {
1505:Generated_Source\PSoC5/PowerMonitor_1.c ****                     *convSuccess = PowerMonitor_1_CYTRUE;
1506:Generated_Source\PSoC5/PowerMonitor_1.c ****                     pinV -= PowerMonitor_1_adcSeAdjCfg3;
1507:Generated_Source\PSoC5/PowerMonitor_1.c ****                     pinV /= PowerMonitor_1_adcGainCfg3;
1508:Generated_Source\PSoC5/PowerMonitor_1.c ****                 }
1509:Generated_Source\PSoC5/PowerMonitor_1.c ****             #endif /* (PowerMonitor_1_DEFAULT_SE_VOLTAGE_RANGE == PowerMonitor_1_SE_VOLTAGE_RANGE_4
1510:Generated_Source\PSoC5/PowerMonitor_1.c ****         }
1511:Generated_Source\PSoC5/PowerMonitor_1.c ****         else
1512:Generated_Source\PSoC5/PowerMonitor_1.c ****         {
1513:Generated_Source\PSoC5/PowerMonitor_1.c ****             if(pinV <= PowerMonitor_1_VOLTAGE_2048MV)
  97              		.loc 1 1513 0
  98 0056 4FF08A41 		mov	r1, #1157627904
  99 005a FFF7FEFF 		bl	__aeabi_fcmple
 100              	.LVL9:
 101 005e 38B1     		cbz	r0, .L4
1514:Generated_Source\PSoC5/PowerMonitor_1.c ****             {
1515:Generated_Source\PSoC5/PowerMonitor_1.c ****                 *convSuccess = PowerMonitor_1_CYTRUE;
 102              		.loc 1 1515 0
 103 0060 0123     		movs	r3, #1
 104 0062 2B70     		strb	r3, [r5]
1516:Generated_Source\PSoC5/PowerMonitor_1.c ****                 pinV  /= PowerMonitor_1_adcGainCfg1;
 105              		.loc 1 1516 0
 106 0064 0F4B     		ldr	r3, .L12+12
 107 0066 1968     		ldr	r1, [r3]	@ float
 108 0068 3046     		mov	r0, r6
 109 006a FFF7FEFF 		bl	__aeabi_fdiv
 110              	.LVL10:
 111 006e 0646     		mov	r6, r0
 112              	.LVL11:
 113              	.L4:
1517:Generated_Source\PSoC5/PowerMonitor_1.c ****             }
1518:Generated_Source\PSoC5/PowerMonitor_1.c ****         }
1519:Generated_Source\PSoC5/PowerMonitor_1.c ****         if(*convSuccess == PowerMonitor_1_CYTRUE)
 114              		.loc 1 1519 0
 115 0070 2B78     		ldrb	r3, [r5]	@ zero_extendqisi2
 116 0072 012B     		cmp	r3, #1
 117 0074 0BD1     		bne	.L8
1520:Generated_Source\PSoC5/PowerMonitor_1.c ****         {
1521:Generated_Source\PSoC5/PowerMonitor_1.c ****             counts = pinV * PowerMonitor_1_VOLTAGE_FILTER_SIZE + 0.5f;   /* runing total */
 118              		.loc 1 1521 0
 119 0076 4FF08341 		mov	r1, #1098907648
 120 007a 3046     		mov	r0, r6
 121 007c FFF7FEFF 		bl	__aeabi_fmul
 122              	.LVL12:
 123 0080 4FF07C51 		mov	r1, #1056964608
 124 0084 FFF7FEFF 		bl	__aeabi_fadd
 125              	.LVL13:
 126 0088 02E0     		b	.L2
 127              	.LVL14:
 128              	.L7:
1486:Generated_Source\PSoC5/PowerMonitor_1.c **** 
 129              		.loc 1 1486 0
 130 008a 0020     		movs	r0, #0
 131              	.LVL15:
ARM GAS  C:\Users\user\AppData\Local\Temp\ccywx0XT.s 			page 30


 132 008c 00E0     		b	.L2
 133              	.LVL16:
 134              	.L8:
 135 008e 0020     		movs	r0, #0
 136              	.LVL17:
 137              	.L2:
1522:Generated_Source\PSoC5/PowerMonitor_1.c ****         }
1523:Generated_Source\PSoC5/PowerMonitor_1.c ****     }
1524:Generated_Source\PSoC5/PowerMonitor_1.c ****     return (int32)(counts);
 138              		.loc 1 1524 0
 139 0090 FFF7FEFF 		bl	__aeabi_f2iz
 140              	.LVL18:
1525:Generated_Source\PSoC5/PowerMonitor_1.c **** }
 141              		.loc 1 1525 0
 142 0094 70BD     		pop	{r4, r5, r6, pc}
 143              	.LVL19:
 144              	.L13:
 145 0096 00BF     		.align	2
 146              	.L12:
 147 0098 00000000 		.word	.LANCHOR0
 148 009c 00000000 		.word	.LANCHOR1
 149 00a0 00000000 		.word	PowerMonitor_1_adcSeAdjCfg1
 150 00a4 00000000 		.word	PowerMonitor_1_adcGainCfg1
 151              		.cfi_endproc
 152              	.LFE40:
 153              		.size	PowerMonitor_1_mVToCounts, .-PowerMonitor_1_mVToCounts
 154              		.section	.text.PowerMonitor_1_AToCounts,"ax",%progbits
 155              		.align	2
 156              		.thumb
 157              		.thumb_func
 158              		.type	PowerMonitor_1_AToCounts, %function
 159              	PowerMonitor_1_AToCounts:
 160              	.LFB41:
1526:Generated_Source\PSoC5/PowerMonitor_1.c **** 
1527:Generated_Source\PSoC5/PowerMonitor_1.c **** 
1528:Generated_Source\PSoC5/PowerMonitor_1.c **** /*******************************************************************************
1529:Generated_Source\PSoC5/PowerMonitor_1.c **** * Function Name: PowerMonitor_1_AToCounts()
1530:Generated_Source\PSoC5/PowerMonitor_1.c **** ********************************************************************************
1531:Generated_Source\PSoC5/PowerMonitor_1.c **** *
1532:Generated_Source\PSoC5/PowerMonitor_1.c **** * Summary:
1533:Generated_Source\PSoC5/PowerMonitor_1.c **** *  Converts current to Counts for DelSig Config #1 +/- 2048 mV range
1534:Generated_Source\PSoC5/PowerMonitor_1.c **** *  and Config #2 +/- 64mV range
1535:Generated_Source\PSoC5/PowerMonitor_1.c **** *
1536:Generated_Source\PSoC5/PowerMonitor_1.c **** * Parameters:
1537:Generated_Source\PSoC5/PowerMonitor_1.c **** *  current = Amp value to convert to counts
1538:Generated_Source\PSoC5/PowerMonitor_1.c **** *  chan = channel id
1539:Generated_Source\PSoC5/PowerMonitor_1.c **** *  convSuccess = pointer to conversion result returns: 1 - success, 0 - failed
1540:Generated_Source\PSoC5/PowerMonitor_1.c **** *
1541:Generated_Source\PSoC5/PowerMonitor_1.c **** * Return:
1542:Generated_Source\PSoC5/PowerMonitor_1.c **** *  counts = DelSig raw counts corresponding to desired A value
1543:Generated_Source\PSoC5/PowerMonitor_1.c **** *
1544:Generated_Source\PSoC5/PowerMonitor_1.c **** *******************************************************************************/
1545:Generated_Source\PSoC5/PowerMonitor_1.c **** static int32 PowerMonitor_1_AToCounts(float current, uint8 chan, uint8 * convSuccess)  \
1546:Generated_Source\PSoC5/PowerMonitor_1.c ****                                                                 
1547:Generated_Source\PSoC5/PowerMonitor_1.c **** {
 161              		.loc 1 1547 0
 162              		.cfi_startproc
ARM GAS  C:\Users\user\AppData\Local\Temp\ccywx0XT.s 			page 31


 163              		@ args = 0, pretend = 0, frame = 0
 164              		@ frame_needed = 0, uses_anonymous_args = 0
 165              	.LVL20:
 166 0000 38B5     		push	{r3, r4, r5, lr}
 167              		.cfi_def_cfa_offset 16
 168              		.cfi_offset 3, -16
 169              		.cfi_offset 4, -12
 170              		.cfi_offset 5, -8
 171              		.cfi_offset 14, -4
 172              	.LVL21:
1548:Generated_Source\PSoC5/PowerMonitor_1.c ****     float pinV = current;
1549:Generated_Source\PSoC5/PowerMonitor_1.c ****     float counts = 0.0f;
1550:Generated_Source\PSoC5/PowerMonitor_1.c **** 
1551:Generated_Source\PSoC5/PowerMonitor_1.c ****     *convSuccess = PowerMonitor_1_CYFALSE;
 173              		.loc 1 1551 0
 174 0002 0023     		movs	r3, #0
 175 0004 1370     		strb	r3, [r2]
1552:Generated_Source\PSoC5/PowerMonitor_1.c ****     if ((chan > 0u) && (chan <= PowerMonitor_1_NUMBER_OF_CONVERTERS))
 176              		.loc 1 1552 0
 177 0006 4B1E     		subs	r3, r1, #1
 178 0008 DBB2     		uxtb	r3, r3
 179 000a 012B     		cmp	r3, #1
 180 000c 4CD8     		bhi	.L20
 181 000e 0546     		mov	r5, r0
 182 0010 1446     		mov	r4, r2
1553:Generated_Source\PSoC5/PowerMonitor_1.c ****     {
1554:Generated_Source\PSoC5/PowerMonitor_1.c ****         if(PowerMonitor_1_CurrentType[chan - 1u] != PowerMonitor_1_CURRENT_TYPE_NA)
 183              		.loc 1 1554 0
 184 0012 0139     		subs	r1, r1, #1
 185              	.LVL22:
 186 0014 284B     		ldr	r3, .L26
 187 0016 0B44     		add	r3, r3, r1
 188 0018 1B7A     		ldrb	r3, [r3, #8]	@ zero_extendqisi2
 189 001a 002B     		cmp	r3, #0
 190 001c 46D0     		beq	.L21
1555:Generated_Source\PSoC5/PowerMonitor_1.c ****         {
1556:Generated_Source\PSoC5/PowerMonitor_1.c ****             if (PowerMonitor_1_CurrentType[chan - 1u] == PowerMonitor_1_CURRENT_TYPE_CSA)
 191              		.loc 1 1556 0
 192 001e 022B     		cmp	r3, #2
 193 0020 21D1     		bne	.L16
1557:Generated_Source\PSoC5/PowerMonitor_1.c ****             {
1558:Generated_Source\PSoC5/PowerMonitor_1.c ****                 /* Convert current to mV */
1559:Generated_Source\PSoC5/PowerMonitor_1.c ****                 pinV *= (PowerMonitor_1_CSAGain[chan - 1u] * PowerMonitor_1_RShunt[chan - 1u]);
 194              		.loc 1 1559 0
 195 0022 254B     		ldr	r3, .L26
 196 0024 03EB8103 		add	r3, r3, r1, lsl #2
 197 0028 5969     		ldr	r1, [r3, #20]	@ float
 198 002a D868     		ldr	r0, [r3, #12]	@ float
 199              	.LVL23:
 200 002c FFF7FEFF 		bl	__aeabi_fmul
 201              	.LVL24:
 202 0030 0146     		mov	r1, r0
 203 0032 2846     		mov	r0, r5
 204 0034 FFF7FEFF 		bl	__aeabi_fmul
 205              	.LVL25:
 206 0038 0546     		mov	r5, r0
 207              	.LVL26:
ARM GAS  C:\Users\user\AppData\Local\Temp\ccywx0XT.s 			page 32


1560:Generated_Source\PSoC5/PowerMonitor_1.c ****                 #if (PowerMonitor_1_DEFAULT_SE_VOLTAGE_RANGE == PowerMonitor_1_SE_VOLTAGE_RANGE_409
1561:Generated_Source\PSoC5/PowerMonitor_1.c ****                     if(pinV <= PowerMonitor_1_VOLTAGE_4096MV)
 208              		.loc 1 1561 0
 209 003a 4FF08B41 		mov	r1, #1166016512
 210 003e FFF7FEFF 		bl	__aeabi_fcmple
 211              	.LVL27:
 212 0042 20B3     		cbz	r0, .L17
1562:Generated_Source\PSoC5/PowerMonitor_1.c ****                     {
1563:Generated_Source\PSoC5/PowerMonitor_1.c ****                         *convSuccess = PowerMonitor_1_CYTRUE;
 213              		.loc 1 1563 0
 214 0044 0123     		movs	r3, #1
 215 0046 2370     		strb	r3, [r4]
1564:Generated_Source\PSoC5/PowerMonitor_1.c ****                         pinV -= PowerMonitor_1_adcSeAdjCfg1;     /* Apply PGA 2048 mV offset   */
 216              		.loc 1 1564 0
 217 0048 1C4B     		ldr	r3, .L26+4
 218 004a B3F90000 		ldrsh	r0, [r3]
 219 004e FFF7FEFF 		bl	__aeabi_i2f
 220              	.LVL28:
 221 0052 0146     		mov	r1, r0
 222 0054 2846     		mov	r0, r5
 223 0056 FFF7FEFF 		bl	__aeabi_fsub
 224              	.LVL29:
1565:Generated_Source\PSoC5/PowerMonitor_1.c ****                         pinV /= PowerMonitor_1_adcGainCfg1;      /* counts = mV / mV/count     */
 225              		.loc 1 1565 0
 226 005a 194B     		ldr	r3, .L26+8
 227 005c 1968     		ldr	r1, [r3]	@ float
 228 005e FFF7FEFF 		bl	__aeabi_fdiv
 229              	.LVL30:
 230 0062 0546     		mov	r5, r0
 231              	.LVL31:
 232 0064 13E0     		b	.L17
 233              	.LVL32:
 234              	.L16:
1566:Generated_Source\PSoC5/PowerMonitor_1.c ****                     }
1567:Generated_Source\PSoC5/PowerMonitor_1.c ****                 #else
1568:Generated_Source\PSoC5/PowerMonitor_1.c ****                     if(pinV <= PowerMonitor_1_VOLTAGE_2048MV)
1569:Generated_Source\PSoC5/PowerMonitor_1.c ****                     {
1570:Generated_Source\PSoC5/PowerMonitor_1.c ****                         *convSuccess = PowerMonitor_1_CYTRUE;
1571:Generated_Source\PSoC5/PowerMonitor_1.c ****                         pinV -= PowerMonitor_1_adcSeAdjCfg3;     /* Apply Ref 1024 mV offset   */
1572:Generated_Source\PSoC5/PowerMonitor_1.c ****                         pinV /= PowerMonitor_1_adcGainCfg3;      /* counts = mV / mV/count     */
1573:Generated_Source\PSoC5/PowerMonitor_1.c ****                     }
1574:Generated_Source\PSoC5/PowerMonitor_1.c ****                 #endif /* PowerMonitor_1_DEFAULT_SE_VOLTAGE_RANGE == PowerMonitor_1_SE_VOLTAGE_RANG
1575:Generated_Source\PSoC5/PowerMonitor_1.c ****             }
1576:Generated_Source\PSoC5/PowerMonitor_1.c ****             else
1577:Generated_Source\PSoC5/PowerMonitor_1.c ****             {
1578:Generated_Source\PSoC5/PowerMonitor_1.c ****                 /* Convert current to mV */
1579:Generated_Source\PSoC5/PowerMonitor_1.c ****                 pinV *= PowerMonitor_1_RShunt[chan - 1u];
 235              		.loc 1 1579 0
 236 0066 144B     		ldr	r3, .L26
 237 0068 03EB8101 		add	r1, r3, r1, lsl #2
 238 006c 4969     		ldr	r1, [r1, #20]	@ float
 239 006e FFF7FEFF 		bl	__aeabi_fmul
 240              	.LVL33:
 241 0072 0546     		mov	r5, r0
 242              	.LVL34:
1580:Generated_Source\PSoC5/PowerMonitor_1.c ****                 #if (PowerMonitor_1_DEFAULT_DIFF_CURRENT_RANGE == PowerMonitor_1_DIFF_CURRENT_RANGE
1581:Generated_Source\PSoC5/PowerMonitor_1.c ****                     if(pinV <= PowerMonitor_1_VOLTAGE_64MV)
ARM GAS  C:\Users\user\AppData\Local\Temp\ccywx0XT.s 			page 33


 243              		.loc 1 1581 0
 244 0074 4FF08541 		mov	r1, #1115684864
 245 0078 FFF7FEFF 		bl	__aeabi_fcmple
 246              	.LVL35:
 247 007c 38B1     		cbz	r0, .L17
1582:Generated_Source\PSoC5/PowerMonitor_1.c ****                     {
1583:Generated_Source\PSoC5/PowerMonitor_1.c ****                         *convSuccess = PowerMonitor_1_CYTRUE;
 248              		.loc 1 1583 0
 249 007e 0123     		movs	r3, #1
 250 0080 2370     		strb	r3, [r4]
1584:Generated_Source\PSoC5/PowerMonitor_1.c ****                         pinV /= PowerMonitor_1_adcGainCfg2;   /* divide by mV/count         */
 251              		.loc 1 1584 0
 252 0082 104B     		ldr	r3, .L26+12
 253 0084 1968     		ldr	r1, [r3]	@ float
 254 0086 2846     		mov	r0, r5
 255 0088 FFF7FEFF 		bl	__aeabi_fdiv
 256              	.LVL36:
 257 008c 0546     		mov	r5, r0
 258              	.LVL37:
 259              	.L17:
1585:Generated_Source\PSoC5/PowerMonitor_1.c ****                     }
1586:Generated_Source\PSoC5/PowerMonitor_1.c ****                 #else
1587:Generated_Source\PSoC5/PowerMonitor_1.c ****                     if(pinV <= PowerMonitor_1_VOLTAGE_128MV)
1588:Generated_Source\PSoC5/PowerMonitor_1.c ****                     {
1589:Generated_Source\PSoC5/PowerMonitor_1.c ****                         *convSuccess = PowerMonitor_1_CYTRUE;
1590:Generated_Source\PSoC5/PowerMonitor_1.c ****                         pinV /= PowerMonitor_1_adcGainCfg2;   /* divide by mV/count         */
1591:Generated_Source\PSoC5/PowerMonitor_1.c ****                     }
1592:Generated_Source\PSoC5/PowerMonitor_1.c ****                 #endif /* PowerMonitor_1_DEFAULT_DIFF_CURRENT_RANGE == PowerMonitor_1_DIFF_CURRENT_
1593:Generated_Source\PSoC5/PowerMonitor_1.c ****             }
1594:Generated_Source\PSoC5/PowerMonitor_1.c ****             if(*convSuccess == PowerMonitor_1_CYTRUE)
 260              		.loc 1 1594 0
 261 008e 2378     		ldrb	r3, [r4]	@ zero_extendqisi2
 262 0090 012B     		cmp	r3, #1
 263 0092 0DD1     		bne	.L22
1595:Generated_Source\PSoC5/PowerMonitor_1.c ****             {
1596:Generated_Source\PSoC5/PowerMonitor_1.c ****                 counts = pinV * PowerMonitor_1_CURRENT_FILTER_SIZE + 0.5f;   /* runing total */
 264              		.loc 1 1596 0
 265 0094 4FF08341 		mov	r1, #1098907648
 266 0098 2846     		mov	r0, r5
 267 009a FFF7FEFF 		bl	__aeabi_fmul
 268              	.LVL38:
 269 009e 4FF07C51 		mov	r1, #1056964608
 270 00a2 FFF7FEFF 		bl	__aeabi_fadd
 271              	.LVL39:
 272 00a6 04E0     		b	.L15
 273              	.LVL40:
 274              	.L20:
1549:Generated_Source\PSoC5/PowerMonitor_1.c **** 
 275              		.loc 1 1549 0
 276 00a8 0020     		movs	r0, #0
 277              	.LVL41:
 278 00aa 02E0     		b	.L15
 279              	.LVL42:
 280              	.L21:
 281 00ac 0020     		movs	r0, #0
 282              	.LVL43:
 283 00ae 00E0     		b	.L15
ARM GAS  C:\Users\user\AppData\Local\Temp\ccywx0XT.s 			page 34


 284              	.LVL44:
 285              	.L22:
 286 00b0 0020     		movs	r0, #0
 287              	.LVL45:
 288              	.L15:
1597:Generated_Source\PSoC5/PowerMonitor_1.c ****             }
1598:Generated_Source\PSoC5/PowerMonitor_1.c ****         }
1599:Generated_Source\PSoC5/PowerMonitor_1.c ****     }
1600:Generated_Source\PSoC5/PowerMonitor_1.c ****     return (int32)(counts);
 289              		.loc 1 1600 0
 290 00b2 FFF7FEFF 		bl	__aeabi_f2iz
 291              	.LVL46:
1601:Generated_Source\PSoC5/PowerMonitor_1.c **** }
 292              		.loc 1 1601 0
 293 00b6 38BD     		pop	{r3, r4, r5, pc}
 294              	.L27:
 295              		.align	2
 296              	.L26:
 297 00b8 00000000 		.word	.LANCHOR0
 298 00bc 00000000 		.word	PowerMonitor_1_adcSeAdjCfg1
 299 00c0 00000000 		.word	PowerMonitor_1_adcGainCfg1
 300 00c4 00000000 		.word	PowerMonitor_1_adcGainCfg2
 301              		.cfi_endproc
 302              	.LFE41:
 303              		.size	PowerMonitor_1_AToCounts, .-PowerMonitor_1_AToCounts
 304              		.section	.text.PowerMonitor_1_GetFiltRaw,"ax",%progbits
 305              		.align	2
 306              		.thumb
 307              		.thumb_func
 308              		.type	PowerMonitor_1_GetFiltRaw, %function
 309              	PowerMonitor_1_GetFiltRaw:
 310              	.LFB43:
1602:Generated_Source\PSoC5/PowerMonitor_1.c **** 
1603:Generated_Source\PSoC5/PowerMonitor_1.c **** 
1604:Generated_Source\PSoC5/PowerMonitor_1.c **** /*******************************************************************************
1605:Generated_Source\PSoC5/PowerMonitor_1.c **** * Function Name: PowerMonitor_1_GetMeasuredVal()
1606:Generated_Source\PSoC5/PowerMonitor_1.c **** ********************************************************************************
1607:Generated_Source\PSoC5/PowerMonitor_1.c **** *
1608:Generated_Source\PSoC5/PowerMonitor_1.c **** * Summary:
1609:Generated_Source\PSoC5/PowerMonitor_1.c **** *  Fetch specified channel measurement value.
1610:Generated_Source\PSoC5/PowerMonitor_1.c **** *
1611:Generated_Source\PSoC5/PowerMonitor_1.c **** * Parameters:
1612:Generated_Source\PSoC5/PowerMonitor_1.c **** *  chan = channel number
1613:Generated_Source\PSoC5/PowerMonitor_1.c **** *
1614:Generated_Source\PSoC5/PowerMonitor_1.c **** * Return:
1615:Generated_Source\PSoC5/PowerMonitor_1.c **** *  floating point are milli-volts
1616:Generated_Source\PSoC5/PowerMonitor_1.c **** *
1617:Generated_Source\PSoC5/PowerMonitor_1.c **** *******************************************************************************/
1618:Generated_Source\PSoC5/PowerMonitor_1.c **** static float PowerMonitor_1_GetMeasuredVal(uint8 chan, uint8 chanType)
1619:Generated_Source\PSoC5/PowerMonitor_1.c ****                                                             
1620:Generated_Source\PSoC5/PowerMonitor_1.c **** {
1621:Generated_Source\PSoC5/PowerMonitor_1.c ****     float retval = 0.0f;
1622:Generated_Source\PSoC5/PowerMonitor_1.c ****     uint8 index;
1623:Generated_Source\PSoC5/PowerMonitor_1.c **** 
1624:Generated_Source\PSoC5/PowerMonitor_1.c ****     /* Get filtered ADC mV reading */
1625:Generated_Source\PSoC5/PowerMonitor_1.c ****     if (chanType == PowerMonitor_1_CURRENT)
1626:Generated_Source\PSoC5/PowerMonitor_1.c ****     {
ARM GAS  C:\Users\user\AppData\Local\Temp\ccywx0XT.s 			page 35


1627:Generated_Source\PSoC5/PowerMonitor_1.c ****         /* Check and select valid array index to fetch filtered raw current value */
1628:Generated_Source\PSoC5/PowerMonitor_1.c ****         index = PowerMonitor_1_GetArrayIndex(chan);
1629:Generated_Source\PSoC5/PowerMonitor_1.c ****         if (index != 0)
1630:Generated_Source\PSoC5/PowerMonitor_1.c ****         {
1631:Generated_Source\PSoC5/PowerMonitor_1.c ****             index = index - 1; /* zero based index for array */
1632:Generated_Source\PSoC5/PowerMonitor_1.c ****             retval = (float)PowerMonitor_1_GetFiltRaw(index, chanType);
1633:Generated_Source\PSoC5/PowerMonitor_1.c ****         }
1634:Generated_Source\PSoC5/PowerMonitor_1.c ****         if (PowerMonitor_1_CurrentType[chan] == PowerMonitor_1_CURRENT_TYPE_CSA)
1635:Generated_Source\PSoC5/PowerMonitor_1.c ****         {
1636:Generated_Source\PSoC5/PowerMonitor_1.c ****             /* Convert counts to 1mV units   */
1637:Generated_Source\PSoC5/PowerMonitor_1.c ****             #if (PowerMonitor_1_DEFAULT_SE_VOLTAGE_RANGE == PowerMonitor_1_SE_VOLTAGE_RANGE_4096MV)
1638:Generated_Source\PSoC5/PowerMonitor_1.c ****                 retval *= PowerMonitor_1_adcGainCfg1;
1639:Generated_Source\PSoC5/PowerMonitor_1.c ****                 retval += PowerMonitor_1_adcSeAdjCfg1;
1640:Generated_Source\PSoC5/PowerMonitor_1.c ****             #else
1641:Generated_Source\PSoC5/PowerMonitor_1.c ****                 retval *= PowerMonitor_1_adcGainCfg3;
1642:Generated_Source\PSoC5/PowerMonitor_1.c ****                 retval += PowerMonitor_1_adcSeAdjCfg3;
1643:Generated_Source\PSoC5/PowerMonitor_1.c ****             #endif /* (PowerMonitor_1_DEFAULT_SE_VOLTAGE_RANGE == PowerMonitor_1_SE_VOLTAGE_RANGE_4
1644:Generated_Source\PSoC5/PowerMonitor_1.c ****         }
1645:Generated_Source\PSoC5/PowerMonitor_1.c ****         else if (PowerMonitor_1_CurrentType[chan] == PowerMonitor_1_CURRENT_TYPE_DIRECT)
1646:Generated_Source\PSoC5/PowerMonitor_1.c ****         {
1647:Generated_Source\PSoC5/PowerMonitor_1.c ****             /* Convert mV units  */
1648:Generated_Source\PSoC5/PowerMonitor_1.c ****             retval *= PowerMonitor_1_adcGainCfg2;
1649:Generated_Source\PSoC5/PowerMonitor_1.c ****         }
1650:Generated_Source\PSoC5/PowerMonitor_1.c ****         else
1651:Generated_Source\PSoC5/PowerMonitor_1.c ****         {
1652:Generated_Source\PSoC5/PowerMonitor_1.c ****             /* Do nothing */
1653:Generated_Source\PSoC5/PowerMonitor_1.c ****         }
1654:Generated_Source\PSoC5/PowerMonitor_1.c ****     }
1655:Generated_Source\PSoC5/PowerMonitor_1.c ****     else
1656:Generated_Source\PSoC5/PowerMonitor_1.c ****     {
1657:Generated_Source\PSoC5/PowerMonitor_1.c ****         index = chan;
1658:Generated_Source\PSoC5/PowerMonitor_1.c ****         retval = (float)PowerMonitor_1_GetFiltRaw(index, chanType);
1659:Generated_Source\PSoC5/PowerMonitor_1.c ****         /* Convert counts to 1mV units   */
1660:Generated_Source\PSoC5/PowerMonitor_1.c ****         if (PowerMonitor_1_VoltageType[chan] == PowerMonitor_1_VOLTAGE_TYPE_SINGLE)
1661:Generated_Source\PSoC5/PowerMonitor_1.c ****         {
1662:Generated_Source\PSoC5/PowerMonitor_1.c ****             #if (PowerMonitor_1_DEFAULT_SE_VOLTAGE_RANGE == PowerMonitor_1_SE_VOLTAGE_RANGE_4096MV)
1663:Generated_Source\PSoC5/PowerMonitor_1.c ****                 retval *= PowerMonitor_1_adcGainCfg1;
1664:Generated_Source\PSoC5/PowerMonitor_1.c ****                 retval += PowerMonitor_1_adcSeAdjCfg1;   /* fix PGA 2048mV measure ref    */
1665:Generated_Source\PSoC5/PowerMonitor_1.c ****             #else
1666:Generated_Source\PSoC5/PowerMonitor_1.c ****                 retval *= PowerMonitor_1_adcGainCfg3;
1667:Generated_Source\PSoC5/PowerMonitor_1.c ****                 retval += PowerMonitor_1_adcSeAdjCfg3;   /* fix Ref 1024mV measure ref    */
1668:Generated_Source\PSoC5/PowerMonitor_1.c ****             #endif /* (PowerMonitor_1_DEFAULT_SE_VOLTAGE_RANGE == PowerMonitor_1_SE_VOLTAGE_RANGE_4
1669:Generated_Source\PSoC5/PowerMonitor_1.c ****         }
1670:Generated_Source\PSoC5/PowerMonitor_1.c ****         else
1671:Generated_Source\PSoC5/PowerMonitor_1.c ****         {
1672:Generated_Source\PSoC5/PowerMonitor_1.c ****             retval *= PowerMonitor_1_adcGainCfg1;
1673:Generated_Source\PSoC5/PowerMonitor_1.c ****         }
1674:Generated_Source\PSoC5/PowerMonitor_1.c ****     }
1675:Generated_Source\PSoC5/PowerMonitor_1.c ****     return(retval);
1676:Generated_Source\PSoC5/PowerMonitor_1.c **** }
1677:Generated_Source\PSoC5/PowerMonitor_1.c **** 
1678:Generated_Source\PSoC5/PowerMonitor_1.c **** 
1679:Generated_Source\PSoC5/PowerMonitor_1.c **** /*******************************************************************************
1680:Generated_Source\PSoC5/PowerMonitor_1.c **** * Function Name: PowerMonitor_1_GetFiltRaw()
1681:Generated_Source\PSoC5/PowerMonitor_1.c **** ********************************************************************************
1682:Generated_Source\PSoC5/PowerMonitor_1.c **** *
1683:Generated_Source\PSoC5/PowerMonitor_1.c **** * Summary:
ARM GAS  C:\Users\user\AppData\Local\Temp\ccywx0XT.s 			page 36


1684:Generated_Source\PSoC5/PowerMonitor_1.c **** *  Fetch raw filtered ADC value in counts for specified channel.
1685:Generated_Source\PSoC5/PowerMonitor_1.c **** *
1686:Generated_Source\PSoC5/PowerMonitor_1.c **** * Parameters:
1687:Generated_Source\PSoC5/PowerMonitor_1.c **** *  chan = channel number
1688:Generated_Source\PSoC5/PowerMonitor_1.c **** *  chanType = Voltage or Current or Auxiliary channel
1689:Generated_Source\PSoC5/PowerMonitor_1.c **** *
1690:Generated_Source\PSoC5/PowerMonitor_1.c **** * Return:
1691:Generated_Source\PSoC5/PowerMonitor_1.c **** *  floating point are milli-volts
1692:Generated_Source\PSoC5/PowerMonitor_1.c **** *
1693:Generated_Source\PSoC5/PowerMonitor_1.c **** *******************************************************************************/
1694:Generated_Source\PSoC5/PowerMonitor_1.c **** static float PowerMonitor_1_GetFiltRaw(uint8 chan, uint8 chanType) 
1695:Generated_Source\PSoC5/PowerMonitor_1.c **** {
 311              		.loc 1 1695 0
 312              		.cfi_startproc
 313              		@ args = 0, pretend = 0, frame = 0
 314              		@ frame_needed = 0, uses_anonymous_args = 0
 315              	.LVL47:
 316 0000 10B5     		push	{r4, lr}
 317              		.cfi_def_cfa_offset 8
 318              		.cfi_offset 4, -8
 319              		.cfi_offset 14, -4
 320              	.LVL48:
1696:Generated_Source\PSoC5/PowerMonitor_1.c ****     float retval = 0;
1697:Generated_Source\PSoC5/PowerMonitor_1.c **** 
1698:Generated_Source\PSoC5/PowerMonitor_1.c ****     PowerMonitor_1_IntDisable(PowerMonitor_1_IRQ__INTC_NUMBER);
 321              		.loc 1 1698 0
 322 0002 4FF00052 		mov	r2, #536870912
 323 0006 124B     		ldr	r3, .L35
 324 0008 1A60     		str	r2, [r3]
1699:Generated_Source\PSoC5/PowerMonitor_1.c ****     if (chanType == PowerMonitor_1_VOLTAGE)
 325              		.loc 1 1699 0
 326 000a 0C46     		mov	r4, r1
 327 000c 31B9     		cbnz	r1, .L29
1700:Generated_Source\PSoC5/PowerMonitor_1.c ****     {
1701:Generated_Source\PSoC5/PowerMonitor_1.c ****         retval = (float)PowerMonitor_1_voltCtl[chan].filtVal;
 328              		.loc 1 1701 0
 329 000e 114B     		ldr	r3, .L35+4
 330 0010 03EBC000 		add	r0, r3, r0, lsl #3
 331              	.LVL49:
 332 0014 4068     		ldr	r0, [r0, #4]
 333 0016 FFF7FEFF 		bl	__aeabi_i2f
 334              	.LVL50:
 335 001a 09E0     		b	.L30
 336              	.LVL51:
 337              	.L29:
1702:Generated_Source\PSoC5/PowerMonitor_1.c ****     }
1703:Generated_Source\PSoC5/PowerMonitor_1.c ****     #if (PowerMonitor_1_NUM_CURRENT_SOURCES > 0)
1704:Generated_Source\PSoC5/PowerMonitor_1.c ****         else if (chanType == PowerMonitor_1_CURRENT)
 338              		.loc 1 1704 0
 339 001c 0129     		cmp	r1, #1
 340 001e 06D1     		bne	.L33
1705:Generated_Source\PSoC5/PowerMonitor_1.c ****         {
1706:Generated_Source\PSoC5/PowerMonitor_1.c ****             retval = (float)PowerMonitor_1_ampCtl[chan].filtVal;
 341              		.loc 1 1706 0
 342 0020 0D4B     		ldr	r3, .L35+8
 343 0022 03EBC000 		add	r0, r3, r0, lsl #3
 344              	.LVL52:
ARM GAS  C:\Users\user\AppData\Local\Temp\ccywx0XT.s 			page 37


 345 0026 4068     		ldr	r0, [r0, #4]
 346 0028 FFF7FEFF 		bl	__aeabi_i2f
 347              	.LVL53:
 348 002c 00E0     		b	.L30
 349              	.LVL54:
 350              	.L33:
1696:Generated_Source\PSoC5/PowerMonitor_1.c **** 
 351              		.loc 1 1696 0
 352 002e 0020     		movs	r0, #0
 353              	.LVL55:
 354              	.L30:
1707:Generated_Source\PSoC5/PowerMonitor_1.c ****         }
1708:Generated_Source\PSoC5/PowerMonitor_1.c ****         else
1709:Generated_Source\PSoC5/PowerMonitor_1.c ****         {
1710:Generated_Source\PSoC5/PowerMonitor_1.c ****             /* No action */
1711:Generated_Source\PSoC5/PowerMonitor_1.c ****         }
1712:Generated_Source\PSoC5/PowerMonitor_1.c ****     #endif /* (PowerMonitor_1_NUM_CURRENT_SOURCES > 0) */
1713:Generated_Source\PSoC5/PowerMonitor_1.c **** 
1714:Generated_Source\PSoC5/PowerMonitor_1.c ****     PowerMonitor_1_IntEnable(PowerMonitor_1_IRQ__INTC_NUMBER);
 355              		.loc 1 1714 0
 356 0030 4FF00052 		mov	r2, #536870912
 357 0034 094B     		ldr	r3, .L35+12
 358 0036 1A60     		str	r2, [r3]
1715:Generated_Source\PSoC5/PowerMonitor_1.c **** 
1716:Generated_Source\PSoC5/PowerMonitor_1.c ****     if (chanType == PowerMonitor_1_VOLTAGE)
 359              		.loc 1 1716 0
 360 0038 24B9     		cbnz	r4, .L31
1717:Generated_Source\PSoC5/PowerMonitor_1.c ****     {
1718:Generated_Source\PSoC5/PowerMonitor_1.c ****         retval /= PowerMonitor_1_VOLTAGE_FILTER_SIZE;
 361              		.loc 1 1718 0
 362 003a 4FF07651 		mov	r1, #1031798784
 363 003e FFF7FEFF 		bl	__aeabi_fmul
 364              	.LVL56:
 365 0042 10BD     		pop	{r4, pc}
 366              	.L31:
1719:Generated_Source\PSoC5/PowerMonitor_1.c ****     }
1720:Generated_Source\PSoC5/PowerMonitor_1.c ****     #if (PowerMonitor_1_NUM_CURRENT_SOURCES > 0)
1721:Generated_Source\PSoC5/PowerMonitor_1.c ****         else
1722:Generated_Source\PSoC5/PowerMonitor_1.c ****         {
1723:Generated_Source\PSoC5/PowerMonitor_1.c ****             retval /= PowerMonitor_1_CURRENT_FILTER_SIZE;
 367              		.loc 1 1723 0
 368 0044 4FF07651 		mov	r1, #1031798784
 369 0048 FFF7FEFF 		bl	__aeabi_fmul
 370              	.LVL57:
1724:Generated_Source\PSoC5/PowerMonitor_1.c ****         }
1725:Generated_Source\PSoC5/PowerMonitor_1.c ****     #endif /* (PowerMonitor_1_NUM_CURRENT_SOURCES > 0) */
1726:Generated_Source\PSoC5/PowerMonitor_1.c ****     return (retval);
1727:Generated_Source\PSoC5/PowerMonitor_1.c **** }
 371              		.loc 1 1727 0
 372 004c 10BD     		pop	{r4, pc}
 373              	.L36:
 374 004e 00BF     		.align	2
 375              	.L35:
 376 0050 80E100E0 		.word	-536813184
 377 0054 00000000 		.word	PowerMonitor_1_voltCtl
 378 0058 00000000 		.word	PowerMonitor_1_ampCtl
 379 005c 00E100E0 		.word	-536813312
ARM GAS  C:\Users\user\AppData\Local\Temp\ccywx0XT.s 			page 38


 380              		.cfi_endproc
 381              	.LFE43:
 382              		.size	PowerMonitor_1_GetFiltRaw, .-PowerMonitor_1_GetFiltRaw
 383              		.section	.text.PowerMonitor_1_GetArrayIndex,"ax",%progbits
 384              		.align	2
 385              		.thumb
 386              		.thumb_func
 387              		.type	PowerMonitor_1_GetArrayIndex, %function
 388              	PowerMonitor_1_GetArrayIndex:
 389              	.LFB44:
1728:Generated_Source\PSoC5/PowerMonitor_1.c **** 
1729:Generated_Source\PSoC5/PowerMonitor_1.c **** 
1730:Generated_Source\PSoC5/PowerMonitor_1.c **** /*******************************************************************************
1731:Generated_Source\PSoC5/PowerMonitor_1.c **** * Function Name: PowerMonitor_1_GetArrayIndex()
1732:Generated_Source\PSoC5/PowerMonitor_1.c **** ********************************************************************************
1733:Generated_Source\PSoC5/PowerMonitor_1.c **** *
1734:Generated_Source\PSoC5/PowerMonitor_1.c **** * Summary:
1735:Generated_Source\PSoC5/PowerMonitor_1.c **** *  Fetchs the array index for Current raw value array.
1736:Generated_Source\PSoC5/PowerMonitor_1.c **** *
1737:Generated_Source\PSoC5/PowerMonitor_1.c **** * Parameters:
1738:Generated_Source\PSoC5/PowerMonitor_1.c **** *  chan = channel number
1739:Generated_Source\PSoC5/PowerMonitor_1.c **** *
1740:Generated_Source\PSoC5/PowerMonitor_1.c **** * Return:
1741:Generated_Source\PSoC5/PowerMonitor_1.c **** *  valid array index.
1742:Generated_Source\PSoC5/PowerMonitor_1.c **** *
1743:Generated_Source\PSoC5/PowerMonitor_1.c **** *******************************************************************************/
1744:Generated_Source\PSoC5/PowerMonitor_1.c **** static uint8 PowerMonitor_1_GetArrayIndex(uint8 chan) 
1745:Generated_Source\PSoC5/PowerMonitor_1.c **** {
 390              		.loc 1 1745 0
 391              		.cfi_startproc
 392              		@ args = 0, pretend = 0, frame = 0
 393              		@ frame_needed = 0, uses_anonymous_args = 0
 394              		@ link register save eliminated.
 395              	.LVL58:
 396 0000 0146     		mov	r1, r0
 397              	.LVL59:
1746:Generated_Source\PSoC5/PowerMonitor_1.c ****     uint8 chanNum = 0u;
1747:Generated_Source\PSoC5/PowerMonitor_1.c ****     uint8 i;
1748:Generated_Source\PSoC5/PowerMonitor_1.c ****     for (i = 0u; i <= chan; i++)
 398              		.loc 1 1748 0
 399 0002 0023     		movs	r3, #0
1746:Generated_Source\PSoC5/PowerMonitor_1.c ****     uint8 chanNum = 0u;
 400              		.loc 1 1746 0
 401 0004 1846     		mov	r0, r3
 402              	.LVL60:
 403              		.loc 1 1748 0
 404 0006 07E0     		b	.L38
 405              	.LVL61:
 406              	.L40:
1749:Generated_Source\PSoC5/PowerMonitor_1.c ****     {
1750:Generated_Source\PSoC5/PowerMonitor_1.c ****         if (PowerMonitor_1_CurrentType[i] != PowerMonitor_1_CURRENT_TYPE_NA)
 407              		.loc 1 1750 0
 408 0008 054A     		ldr	r2, .L41
 409 000a 1A44     		add	r2, r2, r3
 410 000c 127A     		ldrb	r2, [r2, #8]	@ zero_extendqisi2
 411 000e 0AB1     		cbz	r2, .L39
1751:Generated_Source\PSoC5/PowerMonitor_1.c ****         {
ARM GAS  C:\Users\user\AppData\Local\Temp\ccywx0XT.s 			page 39


1752:Generated_Source\PSoC5/PowerMonitor_1.c ****             chanNum++;
 412              		.loc 1 1752 0
 413 0010 421C     		adds	r2, r0, #1
 414 0012 D0B2     		uxtb	r0, r2
 415              	.LVL62:
 416              	.L39:
1748:Generated_Source\PSoC5/PowerMonitor_1.c ****     {
 417              		.loc 1 1748 0 discriminator 2
 418 0014 0133     		adds	r3, r3, #1
 419              	.LVL63:
 420 0016 DBB2     		uxtb	r3, r3
 421              	.LVL64:
 422              	.L38:
1748:Generated_Source\PSoC5/PowerMonitor_1.c ****     {
 423              		.loc 1 1748 0 is_stmt 0 discriminator 1
 424 0018 8B42     		cmp	r3, r1
 425 001a F5D9     		bls	.L40
1753:Generated_Source\PSoC5/PowerMonitor_1.c ****         }
1754:Generated_Source\PSoC5/PowerMonitor_1.c ****     }
1755:Generated_Source\PSoC5/PowerMonitor_1.c ****     return (chanNum);
1756:Generated_Source\PSoC5/PowerMonitor_1.c **** }
 426              		.loc 1 1756 0 is_stmt 1
 427 001c 7047     		bx	lr
 428              	.L42:
 429 001e 00BF     		.align	2
 430              	.L41:
 431 0020 00000000 		.word	.LANCHOR0
 432              		.cfi_endproc
 433              	.LFE44:
 434              		.size	PowerMonitor_1_GetArrayIndex, .-PowerMonitor_1_GetArrayIndex
 435              		.section	.text.PowerMonitor_1_GetMeasuredVal,"ax",%progbits
 436              		.align	2
 437              		.thumb
 438              		.thumb_func
 439              		.type	PowerMonitor_1_GetMeasuredVal, %function
 440              	PowerMonitor_1_GetMeasuredVal:
 441              	.LFB42:
1620:Generated_Source\PSoC5/PowerMonitor_1.c ****     float retval = 0.0f;
 442              		.loc 1 1620 0
 443              		.cfi_startproc
 444              		@ args = 0, pretend = 0, frame = 0
 445              		@ frame_needed = 0, uses_anonymous_args = 0
 446              	.LVL65:
 447 0000 38B5     		push	{r3, r4, r5, lr}
 448              		.cfi_def_cfa_offset 16
 449              		.cfi_offset 3, -16
 450              		.cfi_offset 4, -12
 451              		.cfi_offset 5, -8
 452              		.cfi_offset 14, -4
 453 0002 0446     		mov	r4, r0
 454 0004 0D46     		mov	r5, r1
 455              	.LVL66:
1625:Generated_Source\PSoC5/PowerMonitor_1.c ****     {
 456              		.loc 1 1625 0
 457 0006 0129     		cmp	r1, #1
 458 0008 23D1     		bne	.L44
1628:Generated_Source\PSoC5/PowerMonitor_1.c ****         if (index != 0)
ARM GAS  C:\Users\user\AppData\Local\Temp\ccywx0XT.s 			page 40


 459              		.loc 1 1628 0
 460 000a FFF7FEFF 		bl	PowerMonitor_1_GetArrayIndex
 461              	.LVL67:
1629:Generated_Source\PSoC5/PowerMonitor_1.c ****         {
 462              		.loc 1 1629 0
 463 000e 28B1     		cbz	r0, .L49
1631:Generated_Source\PSoC5/PowerMonitor_1.c ****             retval = (float)PowerMonitor_1_GetFiltRaw(index, chanType);
 464              		.loc 1 1631 0
 465 0010 0138     		subs	r0, r0, #1
 466              	.LVL68:
1632:Generated_Source\PSoC5/PowerMonitor_1.c ****         }
 467              		.loc 1 1632 0
 468 0012 2946     		mov	r1, r5
 469 0014 C0B2     		uxtb	r0, r0
 470 0016 FFF7FEFF 		bl	PowerMonitor_1_GetFiltRaw
 471              	.LVL69:
 472 001a 00E0     		b	.L45
 473              	.LVL70:
 474              	.L49:
1621:Generated_Source\PSoC5/PowerMonitor_1.c ****     uint8 index;
 475              		.loc 1 1621 0
 476 001c 0020     		movs	r0, #0
 477              	.LVL71:
 478              	.L45:
1634:Generated_Source\PSoC5/PowerMonitor_1.c ****         {
 479              		.loc 1 1634 0
 480 001e 194B     		ldr	r3, .L51
 481 0020 1C44     		add	r4, r4, r3
 482 0022 237A     		ldrb	r3, [r4, #8]	@ zero_extendqisi2
 483 0024 022B     		cmp	r3, #2
 484 0026 0DD1     		bne	.L46
1638:Generated_Source\PSoC5/PowerMonitor_1.c ****                 retval += PowerMonitor_1_adcSeAdjCfg1;
 485              		.loc 1 1638 0
 486 0028 174B     		ldr	r3, .L51+4
 487 002a 1968     		ldr	r1, [r3]	@ float
 488 002c FFF7FEFF 		bl	__aeabi_fmul
 489              	.LVL72:
 490 0030 0446     		mov	r4, r0
 491              	.LVL73:
1639:Generated_Source\PSoC5/PowerMonitor_1.c ****             #else
 492              		.loc 1 1639 0
 493 0032 164B     		ldr	r3, .L51+8
 494 0034 B3F90000 		ldrsh	r0, [r3]
 495              	.LVL74:
 496 0038 FFF7FEFF 		bl	__aeabi_i2f
 497              	.LVL75:
 498 003c 2146     		mov	r1, r4
 499 003e FFF7FEFF 		bl	__aeabi_fadd
 500              	.LVL76:
 501 0042 38BD     		pop	{r3, r4, r5, pc}
 502              	.L46:
1645:Generated_Source\PSoC5/PowerMonitor_1.c ****         {
 503              		.loc 1 1645 0
 504 0044 012B     		cmp	r3, #1
 505 0046 1BD1     		bne	.L47
1648:Generated_Source\PSoC5/PowerMonitor_1.c ****         }
 506              		.loc 1 1648 0
ARM GAS  C:\Users\user\AppData\Local\Temp\ccywx0XT.s 			page 41


 507 0048 114B     		ldr	r3, .L51+12
 508 004a 1968     		ldr	r1, [r3]	@ float
 509 004c FFF7FEFF 		bl	__aeabi_fmul
 510              	.LVL77:
 511 0050 38BD     		pop	{r3, r4, r5, pc}
 512              	.LVL78:
 513              	.L44:
1658:Generated_Source\PSoC5/PowerMonitor_1.c ****         /* Convert counts to 1mV units   */
 514              		.loc 1 1658 0
 515 0052 FFF7FEFF 		bl	PowerMonitor_1_GetFiltRaw
 516              	.LVL79:
1660:Generated_Source\PSoC5/PowerMonitor_1.c ****         {
 517              		.loc 1 1660 0
 518 0056 0F4B     		ldr	r3, .L51+16
 519 0058 1B5D     		ldrb	r3, [r3, r4]	@ zero_extendqisi2
 520 005a 6BB9     		cbnz	r3, .L48
1663:Generated_Source\PSoC5/PowerMonitor_1.c ****                 retval += PowerMonitor_1_adcSeAdjCfg1;   /* fix PGA 2048mV measure ref    */
 521              		.loc 1 1663 0
 522 005c 0A4B     		ldr	r3, .L51+4
 523 005e 1968     		ldr	r1, [r3]	@ float
 524 0060 FFF7FEFF 		bl	__aeabi_fmul
 525              	.LVL80:
 526 0064 0446     		mov	r4, r0
 527              	.LVL81:
1664:Generated_Source\PSoC5/PowerMonitor_1.c ****             #else
 528              		.loc 1 1664 0
 529 0066 094B     		ldr	r3, .L51+8
 530 0068 B3F90000 		ldrsh	r0, [r3]
 531              	.LVL82:
 532 006c FFF7FEFF 		bl	__aeabi_i2f
 533              	.LVL83:
 534 0070 2146     		mov	r1, r4
 535 0072 FFF7FEFF 		bl	__aeabi_fadd
 536              	.LVL84:
 537 0076 38BD     		pop	{r3, r4, r5, pc}
 538              	.L48:
1672:Generated_Source\PSoC5/PowerMonitor_1.c ****         }
 539              		.loc 1 1672 0
 540 0078 034B     		ldr	r3, .L51+4
 541 007a 1968     		ldr	r1, [r3]	@ float
 542 007c FFF7FEFF 		bl	__aeabi_fmul
 543              	.LVL85:
 544              	.L47:
1676:Generated_Source\PSoC5/PowerMonitor_1.c **** 
 545              		.loc 1 1676 0
 546 0080 38BD     		pop	{r3, r4, r5, pc}
 547              	.L52:
 548 0082 00BF     		.align	2
 549              	.L51:
 550 0084 00000000 		.word	.LANCHOR0
 551 0088 00000000 		.word	PowerMonitor_1_adcGainCfg1
 552 008c 00000000 		.word	PowerMonitor_1_adcSeAdjCfg1
 553 0090 00000000 		.word	PowerMonitor_1_adcGainCfg2
 554 0094 00000000 		.word	.LANCHOR1
 555              		.cfi_endproc
 556              	.LFE42:
 557              		.size	PowerMonitor_1_GetMeasuredVal, .-PowerMonitor_1_GetMeasuredVal
ARM GAS  C:\Users\user\AppData\Local\Temp\ccywx0XT.s 			page 42


 558              		.section	.text.PowerMonitor_1_StartupIsr,"ax",%progbits
 559              		.align	2
 560              		.thumb
 561              		.thumb_func
 562              		.type	PowerMonitor_1_StartupIsr, %function
 563              	PowerMonitor_1_StartupIsr:
 564              	.LFB39:
1450:Generated_Source\PSoC5/PowerMonitor_1.c ****      /* last voltage, current annd auxiliary voltage channels */
 565              		.loc 1 1450 0
 566              		.cfi_startproc
 567              		@ args = 0, pretend = 0, frame = 0
 568              		@ frame_needed = 0, uses_anonymous_args = 0
 569 0000 10B5     		push	{r4, lr}
 570              		.cfi_def_cfa_offset 8
 571              		.cfi_offset 4, -8
 572              		.cfi_offset 14, -4
1452:Generated_Source\PSoC5/PowerMonitor_1.c ****     PowerMonitor_1_lastCurrentChan = PowerMonitor_1_NUM_CURRENT_SOURCES + PowerMonitor_1_NUMBER_OF_
 573              		.loc 1 1452 0
 574 0002 0222     		movs	r2, #2
 575 0004 084B     		ldr	r3, .L55
 576 0006 1A70     		strb	r2, [r3]
1453:Generated_Source\PSoC5/PowerMonitor_1.c ****     PowerMonitor_1_lastAuxVoltChan = PowerMonitor_1_NUM_AUX_INPUTS + PowerMonitor_1_lastCurrentChan
 577              		.loc 1 1453 0
 578 0008 0423     		movs	r3, #4
 579 000a 084A     		ldr	r2, .L55+4
 580 000c 1370     		strb	r3, [r2]
1454:Generated_Source\PSoC5/PowerMonitor_1.c ****     PowerMonitor_1_iirInit = PowerMonitor_1_INITIALIZE_IIR_FILTER;
 581              		.loc 1 1454 0
 582 000e 084A     		ldr	r2, .L55+8
 583 0010 1370     		strb	r3, [r2]
1455:Generated_Source\PSoC5/PowerMonitor_1.c **** 
 584              		.loc 1 1455 0
 585 0012 084C     		ldr	r4, .L55+12
 586 0014 0123     		movs	r3, #1
 587 0016 2370     		strb	r3, [r4]
1458:Generated_Source\PSoC5/PowerMonitor_1.c **** 
 588              		.loc 1 1458 0
 589 0018 FFF7FEFF 		bl	PowerMonitor_1_IsrStart
 590              	.LVL86:
1461:Generated_Source\PSoC5/PowerMonitor_1.c ****     PowerMonitor_1_iirInit = PowerMonitor_1_NEXTSAMPLE_IIR_FILTER;
 591              		.loc 1 1461 0
 592 001c FFF7FEFF 		bl	PowerMonitor_1_Calibrate
 593              	.LVL87:
1462:Generated_Source\PSoC5/PowerMonitor_1.c **** }
 594              		.loc 1 1462 0
 595 0020 0023     		movs	r3, #0
 596 0022 2370     		strb	r3, [r4]
 597 0024 10BD     		pop	{r4, pc}
 598              	.L56:
 599 0026 00BF     		.align	2
 600              	.L55:
 601 0028 00000000 		.word	PowerMonitor_1_lastVoltageChan
 602 002c 00000000 		.word	PowerMonitor_1_lastCurrentChan
 603 0030 00000000 		.word	PowerMonitor_1_lastAuxVoltChan
 604 0034 00000000 		.word	PowerMonitor_1_iirInit
 605              		.cfi_endproc
 606              	.LFE39:
ARM GAS  C:\Users\user\AppData\Local\Temp\ccywx0XT.s 			page 43


 607              		.size	PowerMonitor_1_StartupIsr, .-PowerMonitor_1_StartupIsr
 608              		.section	.text.PowerMonitor_1_Stop,"ax",%progbits
 609              		.align	2
 610              		.global	PowerMonitor_1_Stop
 611              		.thumb
 612              		.thumb_func
 613              		.type	PowerMonitor_1_Stop, %function
 614              	PowerMonitor_1_Stop:
 615              	.LFB3:
 238:Generated_Source\PSoC5/PowerMonitor_1.c ****     /* Disable the interrupt */
 616              		.loc 1 238 0
 617              		.cfi_startproc
 618              		@ args = 0, pretend = 0, frame = 0
 619              		@ frame_needed = 0, uses_anonymous_args = 0
 620 0000 08B5     		push	{r3, lr}
 621              		.cfi_def_cfa_offset 8
 622              		.cfi_offset 3, -8
 623              		.cfi_offset 14, -4
 240:Generated_Source\PSoC5/PowerMonitor_1.c **** 
 624              		.loc 1 240 0
 625 0002 4FF00052 		mov	r2, #536870912
 626 0006 054B     		ldr	r3, .L59
 627 0008 1A60     		str	r2, [r3]
 243:Generated_Source\PSoC5/PowerMonitor_1.c ****     PowerMonitor_1_PM_AMux_Current_Stop();
 628              		.loc 1 243 0
 629 000a FFF7FEFF 		bl	PowerMonitor_1_PM_AMux_Voltage_Stop
 630              	.LVL88:
 244:Generated_Source\PSoC5/PowerMonitor_1.c ****     PowerMonitor_1_PGA_Stop();
 631              		.loc 1 244 0
 632 000e FFF7FEFF 		bl	PowerMonitor_1_PM_AMux_Current_Stop
 633              	.LVL89:
 245:Generated_Source\PSoC5/PowerMonitor_1.c ****     PowerMonitor_1_ADC_Stop();
 634              		.loc 1 245 0
 635 0012 FFF7FEFF 		bl	PowerMonitor_1_PGA_Stop
 636              	.LVL90:
 246:Generated_Source\PSoC5/PowerMonitor_1.c **** 
 637              		.loc 1 246 0
 638 0016 FFF7FEFF 		bl	PowerMonitor_1_ADC_Stop
 639              	.LVL91:
 640 001a 08BD     		pop	{r3, pc}
 641              	.L60:
 642              		.align	2
 643              	.L59:
 644 001c 80E100E0 		.word	-536813184
 645              		.cfi_endproc
 646              	.LFE3:
 647              		.size	PowerMonitor_1_Stop, .-PowerMonitor_1_Stop
 648              		.section	.text.PowerMonitor_1_EnableFault,"ax",%progbits
 649              		.align	2
 650              		.global	PowerMonitor_1_EnableFault
 651              		.thumb
 652              		.thumb_func
 653              		.type	PowerMonitor_1_EnableFault, %function
 654              	PowerMonitor_1_EnableFault:
 655              	.LFB4:
 296:Generated_Source\PSoC5/PowerMonitor_1.c ****     /* Enable fault */
 656              		.loc 1 296 0
ARM GAS  C:\Users\user\AppData\Local\Temp\ccywx0XT.s 			page 44


 657              		.cfi_startproc
 658              		@ args = 0, pretend = 0, frame = 0
 659              		@ frame_needed = 0, uses_anonymous_args = 0
 660              		@ link register save eliminated.
 298:Generated_Source\PSoC5/PowerMonitor_1.c **** }
 661              		.loc 1 298 0
 662 0000 0122     		movs	r2, #1
 663 0002 014B     		ldr	r3, .L62
 664 0004 1A70     		strb	r2, [r3]
 665 0006 7047     		bx	lr
 666              	.L63:
 667              		.align	2
 668              	.L62:
 669 0008 00000000 		.word	PowerMonitor_1_faultEnable
 670              		.cfi_endproc
 671              	.LFE4:
 672              		.size	PowerMonitor_1_EnableFault, .-PowerMonitor_1_EnableFault
 673              		.section	.text.PowerMonitor_1_DisableFault,"ax",%progbits
 674              		.align	2
 675              		.global	PowerMonitor_1_DisableFault
 676              		.thumb
 677              		.thumb_func
 678              		.type	PowerMonitor_1_DisableFault, %function
 679              	PowerMonitor_1_DisableFault:
 680              	.LFB5:
 320:Generated_Source\PSoC5/PowerMonitor_1.c ****     /* Disable the fault */
 681              		.loc 1 320 0
 682              		.cfi_startproc
 683              		@ args = 0, pretend = 0, frame = 0
 684              		@ frame_needed = 0, uses_anonymous_args = 0
 685              		@ link register save eliminated.
 322:Generated_Source\PSoC5/PowerMonitor_1.c ****     /* De-assert the fault output signal */
 686              		.loc 1 322 0
 687 0000 0022     		movs	r2, #0
 688 0002 014B     		ldr	r3, .L65
 689 0004 1A70     		strb	r2, [r3]
 690 0006 7047     		bx	lr
 691              	.L66:
 692              		.align	2
 693              	.L65:
 694 0008 00000000 		.word	PowerMonitor_1_faultEnable
 695              		.cfi_endproc
 696              	.LFE5:
 697              		.size	PowerMonitor_1_DisableFault, .-PowerMonitor_1_DisableFault
 698              		.section	.text.PowerMonitor_1_SetFaultMode,"ax",%progbits
 699              		.align	2
 700              		.global	PowerMonitor_1_SetFaultMode
 701              		.thumb
 702              		.thumb_func
 703              		.type	PowerMonitor_1_SetFaultMode, %function
 704              	PowerMonitor_1_SetFaultMode:
 705              	.LFB6:
 350:Generated_Source\PSoC5/PowerMonitor_1.c ****     /* Set the fault mode */
 706              		.loc 1 350 0
 707              		.cfi_startproc
 708              		@ args = 0, pretend = 0, frame = 0
 709              		@ frame_needed = 0, uses_anonymous_args = 0
ARM GAS  C:\Users\user\AppData\Local\Temp\ccywx0XT.s 			page 45


 710              		@ link register save eliminated.
 711              	.LVL92:
 352:Generated_Source\PSoC5/PowerMonitor_1.c **** }
 712              		.loc 1 352 0
 713 0000 00F00700 		and	r0, r0, #7
 714              	.LVL93:
 715 0004 014B     		ldr	r3, .L68
 716 0006 1870     		strb	r0, [r3]
 717 0008 7047     		bx	lr
 718              	.L69:
 719 000a 00BF     		.align	2
 720              	.L68:
 721 000c 00000000 		.word	PowerMonitor_1_faultSources
 722              		.cfi_endproc
 723              	.LFE6:
 724              		.size	PowerMonitor_1_SetFaultMode, .-PowerMonitor_1_SetFaultMode
 725              		.section	.text.PowerMonitor_1_GetFaultMode,"ax",%progbits
 726              		.align	2
 727              		.global	PowerMonitor_1_GetFaultMode
 728              		.thumb
 729              		.thumb_func
 730              		.type	PowerMonitor_1_GetFaultMode, %function
 731              	PowerMonitor_1_GetFaultMode:
 732              	.LFB7:
 371:Generated_Source\PSoC5/PowerMonitor_1.c ****     return (PowerMonitor_1_faultSources);
 733              		.loc 1 371 0
 734              		.cfi_startproc
 735              		@ args = 0, pretend = 0, frame = 0
 736              		@ frame_needed = 0, uses_anonymous_args = 0
 737              		@ link register save eliminated.
 372:Generated_Source\PSoC5/PowerMonitor_1.c **** }
 738              		.loc 1 372 0
 739 0000 014B     		ldr	r3, .L71
 740 0002 1878     		ldrb	r0, [r3]	@ zero_extendqisi2
 373:Generated_Source\PSoC5/PowerMonitor_1.c **** 
 741              		.loc 1 373 0
 742 0004 7047     		bx	lr
 743              	.L72:
 744 0006 00BF     		.align	2
 745              	.L71:
 746 0008 00000000 		.word	PowerMonitor_1_faultSources
 747              		.cfi_endproc
 748              	.LFE7:
 749              		.size	PowerMonitor_1_GetFaultMode, .-PowerMonitor_1_GetFaultMode
 750              		.section	.text.PowerMonitor_1_SetFaultMask,"ax",%progbits
 751              		.align	2
 752              		.global	PowerMonitor_1_SetFaultMask
 753              		.thumb
 754              		.thumb_func
 755              		.type	PowerMonitor_1_SetFaultMask, %function
 756              	PowerMonitor_1_SetFaultMask:
 757              	.LFB8:
 393:Generated_Source\PSoC5/PowerMonitor_1.c ****     /* Disable the interrupt */
 758              		.loc 1 393 0
 759              		.cfi_startproc
 760              		@ args = 0, pretend = 0, frame = 0
 761              		@ frame_needed = 0, uses_anonymous_args = 0
ARM GAS  C:\Users\user\AppData\Local\Temp\ccywx0XT.s 			page 46


 762              		@ link register save eliminated.
 763              	.LVL94:
 395:Generated_Source\PSoC5/PowerMonitor_1.c ****     /* Set the fault mask */
 764              		.loc 1 395 0
 765 0000 4FF00053 		mov	r3, #536870912
 766 0004 044A     		ldr	r2, .L74
 767 0006 1360     		str	r3, [r2]
 397:Generated_Source\PSoC5/PowerMonitor_1.c ****     /* Enable the interrupt */
 768              		.loc 1 397 0
 769 0008 00F00300 		and	r0, r0, #3
 770              	.LVL95:
 771 000c 034A     		ldr	r2, .L74+4
 772 000e 1060     		str	r0, [r2]
 399:Generated_Source\PSoC5/PowerMonitor_1.c **** }
 773              		.loc 1 399 0
 774 0010 034A     		ldr	r2, .L74+8
 775 0012 1360     		str	r3, [r2]
 776 0014 7047     		bx	lr
 777              	.L75:
 778 0016 00BF     		.align	2
 779              	.L74:
 780 0018 80E100E0 		.word	-536813184
 781 001c 00000000 		.word	PowerMonitor_1_faultMask
 782 0020 00E100E0 		.word	-536813312
 783              		.cfi_endproc
 784              	.LFE8:
 785              		.size	PowerMonitor_1_SetFaultMask, .-PowerMonitor_1_SetFaultMask
 786              		.section	.text.PowerMonitor_1_GetFaultMask,"ax",%progbits
 787              		.align	2
 788              		.global	PowerMonitor_1_GetFaultMask
 789              		.thumb
 790              		.thumb_func
 791              		.type	PowerMonitor_1_GetFaultMask, %function
 792              	PowerMonitor_1_GetFaultMask:
 793              	.LFB9:
 419:Generated_Source\PSoC5/PowerMonitor_1.c ****     return (PowerMonitor_1_faultMask);
 794              		.loc 1 419 0
 795              		.cfi_startproc
 796              		@ args = 0, pretend = 0, frame = 0
 797              		@ frame_needed = 0, uses_anonymous_args = 0
 798              		@ link register save eliminated.
 420:Generated_Source\PSoC5/PowerMonitor_1.c **** }
 799              		.loc 1 420 0
 800 0000 014B     		ldr	r3, .L77
 801 0002 1868     		ldr	r0, [r3]
 421:Generated_Source\PSoC5/PowerMonitor_1.c **** 
 802              		.loc 1 421 0
 803 0004 7047     		bx	lr
 804              	.L78:
 805 0006 00BF     		.align	2
 806              	.L77:
 807 0008 00000000 		.word	PowerMonitor_1_faultMask
 808              		.cfi_endproc
 809              	.LFE9:
 810              		.size	PowerMonitor_1_GetFaultMask, .-PowerMonitor_1_GetFaultMask
 811              		.section	.text.PowerMonitor_1_GetFaultSource,"ax",%progbits
 812              		.align	2
ARM GAS  C:\Users\user\AppData\Local\Temp\ccywx0XT.s 			page 47


 813              		.global	PowerMonitor_1_GetFaultSource
 814              		.thumb
 815              		.thumb_func
 816              		.type	PowerMonitor_1_GetFaultSource, %function
 817              	PowerMonitor_1_GetFaultSource:
 818              	.LFB10:
 440:Generated_Source\PSoC5/PowerMonitor_1.c ****     /* Get the status */
 819              		.loc 1 440 0
 820              		.cfi_startproc
 821              		@ args = 0, pretend = 0, frame = 0
 822              		@ frame_needed = 0, uses_anonymous_args = 0
 823              		@ link register save eliminated.
 442:Generated_Source\PSoC5/PowerMonitor_1.c **** }
 824              		.loc 1 442 0
 825 0000 014B     		ldr	r3, .L80
 826 0002 9878     		ldrb	r0, [r3, #2]	@ zero_extendqisi2
 443:Generated_Source\PSoC5/PowerMonitor_1.c **** 
 827              		.loc 1 443 0
 828 0004 7047     		bx	lr
 829              	.L81:
 830 0006 00BF     		.align	2
 831              	.L80:
 832 0008 00000000 		.word	.LANCHOR1
 833              		.cfi_endproc
 834              	.LFE10:
 835              		.size	PowerMonitor_1_GetFaultSource, .-PowerMonitor_1_GetFaultSource
 836              		.section	.text.PowerMonitor_1_GetOVFaultStatus,"ax",%progbits
 837              		.align	2
 838              		.global	PowerMonitor_1_GetOVFaultStatus
 839              		.thumb
 840              		.thumb_func
 841              		.type	PowerMonitor_1_GetOVFaultStatus, %function
 842              	PowerMonitor_1_GetOVFaultStatus:
 843              	.LFB11:
 465:Generated_Source\PSoC5/PowerMonitor_1.c ****     uint32 OVFaultStatus;
 844              		.loc 1 465 0
 845              		.cfi_startproc
 846              		@ args = 0, pretend = 0, frame = 0
 847              		@ frame_needed = 0, uses_anonymous_args = 0
 848              		@ link register save eliminated.
 468:Generated_Source\PSoC5/PowerMonitor_1.c ****     /* Read the over voltage fault status */
 849              		.loc 1 468 0
 850 0000 4FF00051 		mov	r1, #536870912
 851 0004 064B     		ldr	r3, .L83
 852 0006 1960     		str	r1, [r3]
 470:Generated_Source\PSoC5/PowerMonitor_1.c ****     /* Clear OV fault source status bit */
 853              		.loc 1 470 0
 854 0008 064B     		ldr	r3, .L83+4
 855 000a 5868     		ldr	r0, [r3, #4]
 856              	.LVL96:
 472:Generated_Source\PSoC5/PowerMonitor_1.c ****     /* Clear OV fault status */
 857              		.loc 1 472 0
 858 000c 9A78     		ldrb	r2, [r3, #2]	@ zero_extendqisi2
 859 000e 02F0FE02 		and	r2, r2, #254
 860 0012 9A70     		strb	r2, [r3, #2]
 474:Generated_Source\PSoC5/PowerMonitor_1.c ****     /* Check for other possible fault and then clear the hardware */
 861              		.loc 1 474 0
ARM GAS  C:\Users\user\AppData\Local\Temp\ccywx0XT.s 			page 48


 862 0014 0022     		movs	r2, #0
 863 0016 5A60     		str	r2, [r3, #4]
 485:Generated_Source\PSoC5/PowerMonitor_1.c **** 
 864              		.loc 1 485 0
 865 0018 034B     		ldr	r3, .L83+8
 866 001a 1960     		str	r1, [r3]
 488:Generated_Source\PSoC5/PowerMonitor_1.c **** 
 867              		.loc 1 488 0
 868 001c 7047     		bx	lr
 869              	.L84:
 870 001e 00BF     		.align	2
 871              	.L83:
 872 0020 80E100E0 		.word	-536813184
 873 0024 00000000 		.word	.LANCHOR1
 874 0028 00E100E0 		.word	-536813312
 875              		.cfi_endproc
 876              	.LFE11:
 877              		.size	PowerMonitor_1_GetOVFaultStatus, .-PowerMonitor_1_GetOVFaultStatus
 878              		.section	.text.PowerMonitor_1_GetUVFaultStatus,"ax",%progbits
 879              		.align	2
 880              		.global	PowerMonitor_1_GetUVFaultStatus
 881              		.thumb
 882              		.thumb_func
 883              		.type	PowerMonitor_1_GetUVFaultStatus, %function
 884              	PowerMonitor_1_GetUVFaultStatus:
 885              	.LFB12:
 509:Generated_Source\PSoC5/PowerMonitor_1.c ****     uint32 UVFaultStatus;
 886              		.loc 1 509 0
 887              		.cfi_startproc
 888              		@ args = 0, pretend = 0, frame = 0
 889              		@ frame_needed = 0, uses_anonymous_args = 0
 890              		@ link register save eliminated.
 513:Generated_Source\PSoC5/PowerMonitor_1.c ****     /* Read the under voltage fault status */
 891              		.loc 1 513 0
 892 0000 4FF00051 		mov	r1, #536870912
 893 0004 064B     		ldr	r3, .L86
 894 0006 1960     		str	r1, [r3]
 515:Generated_Source\PSoC5/PowerMonitor_1.c ****     /* Clear UV fault source status bit */
 895              		.loc 1 515 0
 896 0008 064B     		ldr	r3, .L86+4
 897 000a 9868     		ldr	r0, [r3, #8]
 898              	.LVL97:
 517:Generated_Source\PSoC5/PowerMonitor_1.c ****     /* Clear UV fault status */
 899              		.loc 1 517 0
 900 000c 9A78     		ldrb	r2, [r3, #2]	@ zero_extendqisi2
 901 000e 02F0FD02 		and	r2, r2, #253
 902 0012 9A70     		strb	r2, [r3, #2]
 519:Generated_Source\PSoC5/PowerMonitor_1.c ****     /* Check for other possible fault and then clear the hardware */
 903              		.loc 1 519 0
 904 0014 0022     		movs	r2, #0
 905 0016 9A60     		str	r2, [r3, #8]
 530:Generated_Source\PSoC5/PowerMonitor_1.c **** 
 906              		.loc 1 530 0
 907 0018 034B     		ldr	r3, .L86+8
 908 001a 1960     		str	r1, [r3]
 533:Generated_Source\PSoC5/PowerMonitor_1.c **** 
 909              		.loc 1 533 0
ARM GAS  C:\Users\user\AppData\Local\Temp\ccywx0XT.s 			page 49


 910 001c 7047     		bx	lr
 911              	.L87:
 912 001e 00BF     		.align	2
 913              	.L86:
 914 0020 80E100E0 		.word	-536813184
 915 0024 00000000 		.word	.LANCHOR1
 916 0028 00E100E0 		.word	-536813312
 917              		.cfi_endproc
 918              	.LFE12:
 919              		.size	PowerMonitor_1_GetUVFaultStatus, .-PowerMonitor_1_GetUVFaultStatus
 920              		.section	.text.PowerMonitor_1_GetOCFaultStatus,"ax",%progbits
 921              		.align	2
 922              		.global	PowerMonitor_1_GetOCFaultStatus
 923              		.thumb
 924              		.thumb_func
 925              		.type	PowerMonitor_1_GetOCFaultStatus, %function
 926              	PowerMonitor_1_GetOCFaultStatus:
 927              	.LFB13:
 555:Generated_Source\PSoC5/PowerMonitor_1.c ****     uint32 OCFaultStatus;
 928              		.loc 1 555 0
 929              		.cfi_startproc
 930              		@ args = 0, pretend = 0, frame = 0
 931              		@ frame_needed = 0, uses_anonymous_args = 0
 932              		@ link register save eliminated.
 558:Generated_Source\PSoC5/PowerMonitor_1.c ****     /* Read the over current fault status */
 933              		.loc 1 558 0
 934 0000 4FF00051 		mov	r1, #536870912
 935 0004 064B     		ldr	r3, .L89
 936 0006 1960     		str	r1, [r3]
 560:Generated_Source\PSoC5/PowerMonitor_1.c ****     /* Clear OC fault source status bit */
 937              		.loc 1 560 0
 938 0008 064B     		ldr	r3, .L89+4
 939 000a D868     		ldr	r0, [r3, #12]
 940              	.LVL98:
 562:Generated_Source\PSoC5/PowerMonitor_1.c ****     /* Clear OC fault status */
 941              		.loc 1 562 0
 942 000c 9A78     		ldrb	r2, [r3, #2]	@ zero_extendqisi2
 943 000e 02F0FB02 		and	r2, r2, #251
 944 0012 9A70     		strb	r2, [r3, #2]
 564:Generated_Source\PSoC5/PowerMonitor_1.c ****     /* Check for other possible fault and then clear the hardware */
 945              		.loc 1 564 0
 946 0014 0022     		movs	r2, #0
 947 0016 DA60     		str	r2, [r3, #12]
 575:Generated_Source\PSoC5/PowerMonitor_1.c **** 
 948              		.loc 1 575 0
 949 0018 034B     		ldr	r3, .L89+8
 950 001a 1960     		str	r1, [r3]
 578:Generated_Source\PSoC5/PowerMonitor_1.c **** 
 951              		.loc 1 578 0
 952 001c 7047     		bx	lr
 953              	.L90:
 954 001e 00BF     		.align	2
 955              	.L89:
 956 0020 80E100E0 		.word	-536813184
 957 0024 00000000 		.word	.LANCHOR1
 958 0028 00E100E0 		.word	-536813312
 959              		.cfi_endproc
ARM GAS  C:\Users\user\AppData\Local\Temp\ccywx0XT.s 			page 50


 960              	.LFE13:
 961              		.size	PowerMonitor_1_GetOCFaultStatus, .-PowerMonitor_1_GetOCFaultStatus
 962              		.section	.text.PowerMonitor_1_EnableWarn,"ax",%progbits
 963              		.align	2
 964              		.global	PowerMonitor_1_EnableWarn
 965              		.thumb
 966              		.thumb_func
 967              		.type	PowerMonitor_1_EnableWarn, %function
 968              	PowerMonitor_1_EnableWarn:
 969              	.LFB14:
 599:Generated_Source\PSoC5/PowerMonitor_1.c ****     /* Enable the warn */
 970              		.loc 1 599 0
 971              		.cfi_startproc
 972              		@ args = 0, pretend = 0, frame = 0
 973              		@ frame_needed = 0, uses_anonymous_args = 0
 974              		@ link register save eliminated.
 601:Generated_Source\PSoC5/PowerMonitor_1.c **** }
 975              		.loc 1 601 0
 976 0000 0122     		movs	r2, #1
 977 0002 014B     		ldr	r3, .L92
 978 0004 1A70     		strb	r2, [r3]
 979 0006 7047     		bx	lr
 980              	.L93:
 981              		.align	2
 982              	.L92:
 983 0008 00000000 		.word	PowerMonitor_1_warnEnable
 984              		.cfi_endproc
 985              	.LFE14:
 986              		.size	PowerMonitor_1_EnableWarn, .-PowerMonitor_1_EnableWarn
 987              		.section	.text.PowerMonitor_1_DisableWarn,"ax",%progbits
 988              		.align	2
 989              		.global	PowerMonitor_1_DisableWarn
 990              		.thumb
 991              		.thumb_func
 992              		.type	PowerMonitor_1_DisableWarn, %function
 993              	PowerMonitor_1_DisableWarn:
 994              	.LFB15:
 623:Generated_Source\PSoC5/PowerMonitor_1.c ****     /* Disable the warn */
 995              		.loc 1 623 0
 996              		.cfi_startproc
 997              		@ args = 0, pretend = 0, frame = 0
 998              		@ frame_needed = 0, uses_anonymous_args = 0
 999              		@ link register save eliminated.
 625:Generated_Source\PSoC5/PowerMonitor_1.c ****     /* De-assert the warn signal */
 1000              		.loc 1 625 0
 1001 0000 0022     		movs	r2, #0
 1002 0002 014B     		ldr	r3, .L95
 1003 0004 1A70     		strb	r2, [r3]
 1004 0006 7047     		bx	lr
 1005              	.L96:
 1006              		.align	2
 1007              	.L95:
 1008 0008 00000000 		.word	PowerMonitor_1_warnEnable
 1009              		.cfi_endproc
 1010              	.LFE15:
 1011              		.size	PowerMonitor_1_DisableWarn, .-PowerMonitor_1_DisableWarn
 1012              		.section	.text.PowerMonitor_1_SetWarnMode,"ax",%progbits
ARM GAS  C:\Users\user\AppData\Local\Temp\ccywx0XT.s 			page 51


 1013              		.align	2
 1014              		.global	PowerMonitor_1_SetWarnMode
 1015              		.thumb
 1016              		.thumb_func
 1017              		.type	PowerMonitor_1_SetWarnMode, %function
 1018              	PowerMonitor_1_SetWarnMode:
 1019              	.LFB16:
 653:Generated_Source\PSoC5/PowerMonitor_1.c ****     /* Set the warn mode */
 1020              		.loc 1 653 0
 1021              		.cfi_startproc
 1022              		@ args = 0, pretend = 0, frame = 0
 1023              		@ frame_needed = 0, uses_anonymous_args = 0
 1024              		@ link register save eliminated.
 1025              	.LVL99:
 655:Generated_Source\PSoC5/PowerMonitor_1.c **** }
 1026              		.loc 1 655 0
 1027 0000 00F00700 		and	r0, r0, #7
 1028              	.LVL100:
 1029 0004 014B     		ldr	r3, .L98
 1030 0006 1870     		strb	r0, [r3]
 1031 0008 7047     		bx	lr
 1032              	.L99:
 1033 000a 00BF     		.align	2
 1034              	.L98:
 1035 000c 00000000 		.word	PowerMonitor_1_warnSources
 1036              		.cfi_endproc
 1037              	.LFE16:
 1038              		.size	PowerMonitor_1_SetWarnMode, .-PowerMonitor_1_SetWarnMode
 1039              		.section	.text.PowerMonitor_1_GetWarnMode,"ax",%progbits
 1040              		.align	2
 1041              		.global	PowerMonitor_1_GetWarnMode
 1042              		.thumb
 1043              		.thumb_func
 1044              		.type	PowerMonitor_1_GetWarnMode, %function
 1045              	PowerMonitor_1_GetWarnMode:
 1046              	.LFB17:
 674:Generated_Source\PSoC5/PowerMonitor_1.c ****     return (PowerMonitor_1_warnSources);
 1047              		.loc 1 674 0
 1048              		.cfi_startproc
 1049              		@ args = 0, pretend = 0, frame = 0
 1050              		@ frame_needed = 0, uses_anonymous_args = 0
 1051              		@ link register save eliminated.
 675:Generated_Source\PSoC5/PowerMonitor_1.c **** }
 1052              		.loc 1 675 0
 1053 0000 014B     		ldr	r3, .L101
 1054 0002 1878     		ldrb	r0, [r3]	@ zero_extendqisi2
 676:Generated_Source\PSoC5/PowerMonitor_1.c **** 
 1055              		.loc 1 676 0
 1056 0004 7047     		bx	lr
 1057              	.L102:
 1058 0006 00BF     		.align	2
 1059              	.L101:
 1060 0008 00000000 		.word	PowerMonitor_1_warnSources
 1061              		.cfi_endproc
 1062              	.LFE17:
 1063              		.size	PowerMonitor_1_GetWarnMode, .-PowerMonitor_1_GetWarnMode
 1064              		.section	.text.PowerMonitor_1_SetWarnMask,"ax",%progbits
ARM GAS  C:\Users\user\AppData\Local\Temp\ccywx0XT.s 			page 52


 1065              		.align	2
 1066              		.global	PowerMonitor_1_SetWarnMask
 1067              		.thumb
 1068              		.thumb_func
 1069              		.type	PowerMonitor_1_SetWarnMask, %function
 1070              	PowerMonitor_1_SetWarnMask:
 1071              	.LFB18:
 696:Generated_Source\PSoC5/PowerMonitor_1.c ****     /* Disable the interrupt */
 1072              		.loc 1 696 0
 1073              		.cfi_startproc
 1074              		@ args = 0, pretend = 0, frame = 0
 1075              		@ frame_needed = 0, uses_anonymous_args = 0
 1076              		@ link register save eliminated.
 1077              	.LVL101:
 698:Generated_Source\PSoC5/PowerMonitor_1.c ****     /* Set the warn mask */
 1078              		.loc 1 698 0
 1079 0000 4FF00053 		mov	r3, #536870912
 1080 0004 044A     		ldr	r2, .L104
 1081 0006 1360     		str	r3, [r2]
 700:Generated_Source\PSoC5/PowerMonitor_1.c ****     /* Enable the interrupt */
 1082              		.loc 1 700 0
 1083 0008 00F00300 		and	r0, r0, #3
 1084              	.LVL102:
 1085 000c 034A     		ldr	r2, .L104+4
 1086 000e 1060     		str	r0, [r2]
 702:Generated_Source\PSoC5/PowerMonitor_1.c **** }
 1087              		.loc 1 702 0
 1088 0010 034A     		ldr	r2, .L104+8
 1089 0012 1360     		str	r3, [r2]
 1090 0014 7047     		bx	lr
 1091              	.L105:
 1092 0016 00BF     		.align	2
 1093              	.L104:
 1094 0018 80E100E0 		.word	-536813184
 1095 001c 00000000 		.word	PowerMonitor_1_warnMask
 1096 0020 00E100E0 		.word	-536813312
 1097              		.cfi_endproc
 1098              	.LFE18:
 1099              		.size	PowerMonitor_1_SetWarnMask, .-PowerMonitor_1_SetWarnMask
 1100              		.section	.text.PowerMonitor_1_Init,"ax",%progbits
 1101              		.align	2
 1102              		.global	PowerMonitor_1_Init
 1103              		.thumb
 1104              		.thumb_func
 1105              		.type	PowerMonitor_1_Init, %function
 1106              	PowerMonitor_1_Init:
 1107              	.LFB0:
 126:Generated_Source\PSoC5/PowerMonitor_1.c ****     /* Set the mode, and mask for warn and fault. */
 1108              		.loc 1 126 0
 1109              		.cfi_startproc
 1110              		@ args = 0, pretend = 0, frame = 0
 1111              		@ frame_needed = 0, uses_anonymous_args = 0
 1112 0000 08B5     		push	{r3, lr}
 1113              		.cfi_def_cfa_offset 8
 1114              		.cfi_offset 3, -8
 1115              		.cfi_offset 14, -4
 128:Generated_Source\PSoC5/PowerMonitor_1.c ****     PowerMonitor_1_EnableWarn();
ARM GAS  C:\Users\user\AppData\Local\Temp\ccywx0XT.s 			page 53


 1116              		.loc 1 128 0
 1117 0002 FFF7FEFF 		bl	PowerMonitor_1_EnableFault
 1118              	.LVL103:
 129:Generated_Source\PSoC5/PowerMonitor_1.c ****     PowerMonitor_1_SetFaultMode(PowerMonitor_1_DEFAULT_FAULT_MODE);
 1119              		.loc 1 129 0
 1120 0006 FFF7FEFF 		bl	PowerMonitor_1_EnableWarn
 1121              	.LVL104:
 130:Generated_Source\PSoC5/PowerMonitor_1.c ****     PowerMonitor_1_SetWarnMode(PowerMonitor_1_DEFAULT_WARN_MODE);
 1122              		.loc 1 130 0
 1123 000a 0020     		movs	r0, #0
 1124 000c FFF7FEFF 		bl	PowerMonitor_1_SetFaultMode
 1125              	.LVL105:
 131:Generated_Source\PSoC5/PowerMonitor_1.c ****     PowerMonitor_1_SetFaultMask(PowerMonitor_1_DEFAULT_FAULT_MASK);
 1126              		.loc 1 131 0
 1127 0010 0020     		movs	r0, #0
 1128 0012 FFF7FEFF 		bl	PowerMonitor_1_SetWarnMode
 1129              	.LVL106:
 132:Generated_Source\PSoC5/PowerMonitor_1.c ****     PowerMonitor_1_SetWarnMask(PowerMonitor_1_DEFAULT_WARN_MASK);
 1130              		.loc 1 132 0
 1131 0016 0320     		movs	r0, #3
 1132 0018 FFF7FEFF 		bl	PowerMonitor_1_SetFaultMask
 1133              	.LVL107:
 133:Generated_Source\PSoC5/PowerMonitor_1.c ****     #if (PowerMonitor_1_NUM_AUX_INPUTS > 0)
 1134              		.loc 1 133 0
 1135 001c 0320     		movs	r0, #3
 1136 001e FFF7FEFF 		bl	PowerMonitor_1_SetWarnMask
 1137              	.LVL108:
 138:Generated_Source\PSoC5/PowerMonitor_1.c **** }
 1138              		.loc 1 138 0
 1139 0022 0422     		movs	r2, #4
 1140 0024 014B     		ldr	r3, .L108
 1141 0026 1A70     		strb	r2, [r3]
 1142 0028 08BD     		pop	{r3, pc}
 1143              	.L109:
 1144 002a 00BF     		.align	2
 1145              	.L108:
 1146 002c 00000000 		.word	PowerMonitor_1_maxChannels
 1147              		.cfi_endproc
 1148              	.LFE0:
 1149              		.size	PowerMonitor_1_Init, .-PowerMonitor_1_Init
 1150              		.section	.text.PowerMonitor_1_GetWarnMask,"ax",%progbits
 1151              		.align	2
 1152              		.global	PowerMonitor_1_GetWarnMask
 1153              		.thumb
 1154              		.thumb_func
 1155              		.type	PowerMonitor_1_GetWarnMask, %function
 1156              	PowerMonitor_1_GetWarnMask:
 1157              	.LFB19:
 721:Generated_Source\PSoC5/PowerMonitor_1.c ****     return (PowerMonitor_1_warnMask);
 1158              		.loc 1 721 0
 1159              		.cfi_startproc
 1160              		@ args = 0, pretend = 0, frame = 0
 1161              		@ frame_needed = 0, uses_anonymous_args = 0
 1162              		@ link register save eliminated.
 722:Generated_Source\PSoC5/PowerMonitor_1.c **** }
 1163              		.loc 1 722 0
 1164 0000 014B     		ldr	r3, .L111
ARM GAS  C:\Users\user\AppData\Local\Temp\ccywx0XT.s 			page 54


 1165 0002 1868     		ldr	r0, [r3]
 723:Generated_Source\PSoC5/PowerMonitor_1.c **** 
 1166              		.loc 1 723 0
 1167 0004 7047     		bx	lr
 1168              	.L112:
 1169 0006 00BF     		.align	2
 1170              	.L111:
 1171 0008 00000000 		.word	PowerMonitor_1_warnMask
 1172              		.cfi_endproc
 1173              	.LFE19:
 1174              		.size	PowerMonitor_1_GetWarnMask, .-PowerMonitor_1_GetWarnMask
 1175              		.section	.text.PowerMonitor_1_GetWarnSource,"ax",%progbits
 1176              		.align	2
 1177              		.global	PowerMonitor_1_GetWarnSource
 1178              		.thumb
 1179              		.thumb_func
 1180              		.type	PowerMonitor_1_GetWarnSource, %function
 1181              	PowerMonitor_1_GetWarnSource:
 1182              	.LFB20:
 742:Generated_Source\PSoC5/PowerMonitor_1.c ****     /* Get the status */
 1183              		.loc 1 742 0
 1184              		.cfi_startproc
 1185              		@ args = 0, pretend = 0, frame = 0
 1186              		@ frame_needed = 0, uses_anonymous_args = 0
 1187              		@ link register save eliminated.
 744:Generated_Source\PSoC5/PowerMonitor_1.c **** }
 1188              		.loc 1 744 0
 1189 0000 014B     		ldr	r3, .L114
 1190 0002 187C     		ldrb	r0, [r3, #16]	@ zero_extendqisi2
 745:Generated_Source\PSoC5/PowerMonitor_1.c **** 
 1191              		.loc 1 745 0
 1192 0004 7047     		bx	lr
 1193              	.L115:
 1194 0006 00BF     		.align	2
 1195              	.L114:
 1196 0008 00000000 		.word	.LANCHOR1
 1197              		.cfi_endproc
 1198              	.LFE20:
 1199              		.size	PowerMonitor_1_GetWarnSource, .-PowerMonitor_1_GetWarnSource
 1200              		.section	.text.PowerMonitor_1_GetOVWarnStatus,"ax",%progbits
 1201              		.align	2
 1202              		.global	PowerMonitor_1_GetOVWarnStatus
 1203              		.thumb
 1204              		.thumb_func
 1205              		.type	PowerMonitor_1_GetOVWarnStatus, %function
 1206              	PowerMonitor_1_GetOVWarnStatus:
 1207              	.LFB21:
 765:Generated_Source\PSoC5/PowerMonitor_1.c ****     uint32 OVWarnStatus;
 1208              		.loc 1 765 0
 1209              		.cfi_startproc
 1210              		@ args = 0, pretend = 0, frame = 0
 1211              		@ frame_needed = 0, uses_anonymous_args = 0
 1212              		@ link register save eliminated.
 769:Generated_Source\PSoC5/PowerMonitor_1.c ****     /* Read the over voltage warn status */
 1213              		.loc 1 769 0
 1214 0000 4FF00051 		mov	r1, #536870912
 1215 0004 064B     		ldr	r3, .L117
ARM GAS  C:\Users\user\AppData\Local\Temp\ccywx0XT.s 			page 55


 1216 0006 1960     		str	r1, [r3]
 771:Generated_Source\PSoC5/PowerMonitor_1.c ****     /* Clear OV warn status bit */
 1217              		.loc 1 771 0
 1218 0008 064B     		ldr	r3, .L117+4
 1219 000a 5869     		ldr	r0, [r3, #20]
 1220              	.LVL109:
 773:Generated_Source\PSoC5/PowerMonitor_1.c ****     /* Clear OV warn status */
 1221              		.loc 1 773 0
 1222 000c 1A7C     		ldrb	r2, [r3, #16]	@ zero_extendqisi2
 1223 000e 02F0FE02 		and	r2, r2, #254
 1224 0012 1A74     		strb	r2, [r3, #16]
 775:Generated_Source\PSoC5/PowerMonitor_1.c ****     /* Check for other possible warn and then clear the hardware */
 1225              		.loc 1 775 0
 1226 0014 0022     		movs	r2, #0
 1227 0016 5A61     		str	r2, [r3, #20]
 786:Generated_Source\PSoC5/PowerMonitor_1.c **** 
 1228              		.loc 1 786 0
 1229 0018 034B     		ldr	r3, .L117+8
 1230 001a 1960     		str	r1, [r3]
 789:Generated_Source\PSoC5/PowerMonitor_1.c **** 
 1231              		.loc 1 789 0
 1232 001c 7047     		bx	lr
 1233              	.L118:
 1234 001e 00BF     		.align	2
 1235              	.L117:
 1236 0020 80E100E0 		.word	-536813184
 1237 0024 00000000 		.word	.LANCHOR1
 1238 0028 00E100E0 		.word	-536813312
 1239              		.cfi_endproc
 1240              	.LFE21:
 1241              		.size	PowerMonitor_1_GetOVWarnStatus, .-PowerMonitor_1_GetOVWarnStatus
 1242              		.section	.text.PowerMonitor_1_GetUVWarnStatus,"ax",%progbits
 1243              		.align	2
 1244              		.global	PowerMonitor_1_GetUVWarnStatus
 1245              		.thumb
 1246              		.thumb_func
 1247              		.type	PowerMonitor_1_GetUVWarnStatus, %function
 1248              	PowerMonitor_1_GetUVWarnStatus:
 1249              	.LFB22:
 809:Generated_Source\PSoC5/PowerMonitor_1.c ****     uint32 UVWarnStatus;
 1250              		.loc 1 809 0
 1251              		.cfi_startproc
 1252              		@ args = 0, pretend = 0, frame = 0
 1253              		@ frame_needed = 0, uses_anonymous_args = 0
 1254              		@ link register save eliminated.
 813:Generated_Source\PSoC5/PowerMonitor_1.c ****     /* Read the under voltage warn status */
 1255              		.loc 1 813 0
 1256 0000 4FF00051 		mov	r1, #536870912
 1257 0004 064B     		ldr	r3, .L120
 1258 0006 1960     		str	r1, [r3]
 815:Generated_Source\PSoC5/PowerMonitor_1.c ****     /* Clear UV warn source status bit */
 1259              		.loc 1 815 0
 1260 0008 064B     		ldr	r3, .L120+4
 1261 000a 9869     		ldr	r0, [r3, #24]
 1262              	.LVL110:
 817:Generated_Source\PSoC5/PowerMonitor_1.c ****     /* Clear UV warn status */
 1263              		.loc 1 817 0
ARM GAS  C:\Users\user\AppData\Local\Temp\ccywx0XT.s 			page 56


 1264 000c 1A7C     		ldrb	r2, [r3, #16]	@ zero_extendqisi2
 1265 000e 02F0FD02 		and	r2, r2, #253
 1266 0012 1A74     		strb	r2, [r3, #16]
 819:Generated_Source\PSoC5/PowerMonitor_1.c ****     /* Check for other possible warn and then clear the hardware */
 1267              		.loc 1 819 0
 1268 0014 0022     		movs	r2, #0
 1269 0016 9A61     		str	r2, [r3, #24]
 830:Generated_Source\PSoC5/PowerMonitor_1.c **** 
 1270              		.loc 1 830 0
 1271 0018 034B     		ldr	r3, .L120+8
 1272 001a 1960     		str	r1, [r3]
 833:Generated_Source\PSoC5/PowerMonitor_1.c **** 
 1273              		.loc 1 833 0
 1274 001c 7047     		bx	lr
 1275              	.L121:
 1276 001e 00BF     		.align	2
 1277              	.L120:
 1278 0020 80E100E0 		.word	-536813184
 1279 0024 00000000 		.word	.LANCHOR1
 1280 0028 00E100E0 		.word	-536813312
 1281              		.cfi_endproc
 1282              	.LFE22:
 1283              		.size	PowerMonitor_1_GetUVWarnStatus, .-PowerMonitor_1_GetUVWarnStatus
 1284              		.section	.text.PowerMonitor_1_GetOCWarnStatus,"ax",%progbits
 1285              		.align	2
 1286              		.global	PowerMonitor_1_GetOCWarnStatus
 1287              		.thumb
 1288              		.thumb_func
 1289              		.type	PowerMonitor_1_GetOCWarnStatus, %function
 1290              	PowerMonitor_1_GetOCWarnStatus:
 1291              	.LFB23:
 853:Generated_Source\PSoC5/PowerMonitor_1.c ****     uint32 OCWarnStatus;
 1292              		.loc 1 853 0
 1293              		.cfi_startproc
 1294              		@ args = 0, pretend = 0, frame = 0
 1295              		@ frame_needed = 0, uses_anonymous_args = 0
 1296              		@ link register save eliminated.
 857:Generated_Source\PSoC5/PowerMonitor_1.c ****     /* Read the over current warn status */
 1297              		.loc 1 857 0
 1298 0000 4FF00051 		mov	r1, #536870912
 1299 0004 064B     		ldr	r3, .L123
 1300 0006 1960     		str	r1, [r3]
 859:Generated_Source\PSoC5/PowerMonitor_1.c ****     /* Clear OC warn source status bit */
 1301              		.loc 1 859 0
 1302 0008 064B     		ldr	r3, .L123+4
 1303 000a D869     		ldr	r0, [r3, #28]
 1304              	.LVL111:
 861:Generated_Source\PSoC5/PowerMonitor_1.c ****     /* Clear OC warn status */
 1305              		.loc 1 861 0
 1306 000c 1A7C     		ldrb	r2, [r3, #16]	@ zero_extendqisi2
 1307 000e 02F0FB02 		and	r2, r2, #251
 1308 0012 1A74     		strb	r2, [r3, #16]
 863:Generated_Source\PSoC5/PowerMonitor_1.c ****     /* Check for other possible warn and then clear the hardware */
 1309              		.loc 1 863 0
 1310 0014 0022     		movs	r2, #0
 1311 0016 DA61     		str	r2, [r3, #28]
 874:Generated_Source\PSoC5/PowerMonitor_1.c **** 
ARM GAS  C:\Users\user\AppData\Local\Temp\ccywx0XT.s 			page 57


 1312              		.loc 1 874 0
 1313 0018 034B     		ldr	r3, .L123+8
 1314 001a 1960     		str	r1, [r3]
 877:Generated_Source\PSoC5/PowerMonitor_1.c **** 
 1315              		.loc 1 877 0
 1316 001c 7047     		bx	lr
 1317              	.L124:
 1318 001e 00BF     		.align	2
 1319              	.L123:
 1320 0020 80E100E0 		.word	-536813184
 1321 0024 00000000 		.word	.LANCHOR1
 1322 0028 00E100E0 		.word	-536813312
 1323              		.cfi_endproc
 1324              	.LFE23:
 1325              		.size	PowerMonitor_1_GetOCWarnStatus, .-PowerMonitor_1_GetOCWarnStatus
 1326              		.section	.text.PowerMonitor_1_SetUVWarnThreshold,"ax",%progbits
 1327              		.align	2
 1328              		.global	PowerMonitor_1_SetUVWarnThreshold
 1329              		.thumb
 1330              		.thumb_func
 1331              		.type	PowerMonitor_1_SetUVWarnThreshold, %function
 1332              	PowerMonitor_1_SetUVWarnThreshold:
 1333              	.LFB24:
 900:Generated_Source\PSoC5/PowerMonitor_1.c ****     int32 uvWarnCounts;
 1334              		.loc 1 900 0
 1335              		.cfi_startproc
 1336              		@ args = 0, pretend = 0, frame = 8
 1337              		@ frame_needed = 0, uses_anonymous_args = 0
 1338              	.LVL112:
 1339 0000 F0B5     		push	{r4, r5, r6, r7, lr}
 1340              		.cfi_def_cfa_offset 20
 1341              		.cfi_offset 4, -20
 1342              		.cfi_offset 5, -16
 1343              		.cfi_offset 6, -12
 1344              		.cfi_offset 7, -8
 1345              		.cfi_offset 14, -4
 1346 0002 83B0     		sub	sp, sp, #12
 1347              		.cfi_def_cfa_offset 32
 1348 0004 0446     		mov	r4, r0
 1349 0006 0D46     		mov	r5, r1
 902:Generated_Source\PSoC5/PowerMonitor_1.c **** 
 1350              		.loc 1 902 0
 1351 0008 02AA     		add	r2, sp, #8
 1352 000a 0023     		movs	r3, #0
 1353 000c 02F8013D 		strb	r3, [r2, #-1]!
 904:Generated_Source\PSoC5/PowerMonitor_1.c ****     if(convRes == PowerMonitor_1_CYTRUE)
 1354              		.loc 1 904 0
 1355 0010 0146     		mov	r1, r0
 1356              	.LVL113:
 1357 0012 2846     		mov	r0, r5
 1358              	.LVL114:
 1359 0014 FFF7FEFF 		bl	PowerMonitor_1_mVToCounts
 1360              	.LVL115:
 905:Generated_Source\PSoC5/PowerMonitor_1.c ****     {
 1361              		.loc 1 905 0
 1362 0018 9DF80730 		ldrb	r3, [sp, #7]	@ zero_extendqisi2
 1363 001c 012B     		cmp	r3, #1
ARM GAS  C:\Users\user\AppData\Local\Temp\ccywx0XT.s 			page 58


 1364 001e 0DD1     		bne	.L125
 908:Generated_Source\PSoC5/PowerMonitor_1.c ****         /* Set the under voltage warn threshold */
 1365              		.loc 1 908 0
 1366 0020 4FF00051 		mov	r1, #536870912
 1367 0024 064B     		ldr	r3, .L128
 1368 0026 1960     		str	r1, [r3]
 910:Generated_Source\PSoC5/PowerMonitor_1.c ****         PowerMonitor_1_warnWin[converterNum - 1u].UVWarnThrshldVolts = uvWarnThreshold;
 1369              		.loc 1 910 0
 1370 0028 013C     		subs	r4, r4, #1
 1371 002a 064E     		ldr	r6, .L128+4
 1372 002c 6300     		lsls	r3, r4, #1
 1373 002e 1F19     		adds	r7, r3, r4
 1374 0030 FA00     		lsls	r2, r7, #3
 1375 0032 3244     		add	r2, r2, r6
 1376 0034 9060     		str	r0, [r2, #8]
 911:Generated_Source\PSoC5/PowerMonitor_1.c ****         /* Enable the interrupt */
 1377              		.loc 1 911 0
 1378 0036 5582     		strh	r5, [r2, #18]	@ movhi
 913:Generated_Source\PSoC5/PowerMonitor_1.c ****     }
 1379              		.loc 1 913 0
 1380 0038 034B     		ldr	r3, .L128+8
 1381 003a 1960     		str	r1, [r3]
 1382              	.L125:
 915:Generated_Source\PSoC5/PowerMonitor_1.c **** 
 1383              		.loc 1 915 0
 1384 003c 03B0     		add	sp, sp, #12
 1385              		.cfi_def_cfa_offset 20
 1386              		@ sp needed
 1387 003e F0BD     		pop	{r4, r5, r6, r7, pc}
 1388              	.L129:
 1389              		.align	2
 1390              	.L128:
 1391 0040 80E100E0 		.word	-536813184
 1392 0044 00000000 		.word	PowerMonitor_1_warnWin
 1393 0048 00E100E0 		.word	-536813312
 1394              		.cfi_endproc
 1395              	.LFE24:
 1396              		.size	PowerMonitor_1_SetUVWarnThreshold, .-PowerMonitor_1_SetUVWarnThreshold
 1397              		.section	.text.PowerMonitor_1_GetUVWarnThreshold,"ax",%progbits
 1398              		.align	2
 1399              		.global	PowerMonitor_1_GetUVWarnThreshold
 1400              		.thumb
 1401              		.thumb_func
 1402              		.type	PowerMonitor_1_GetUVWarnThreshold, %function
 1403              	PowerMonitor_1_GetUVWarnThreshold:
 1404              	.LFB25:
 936:Generated_Source\PSoC5/PowerMonitor_1.c ****     uint16 uvWarnThreshold = 0u;
 1405              		.loc 1 936 0
 1406              		.cfi_startproc
 1407              		@ args = 0, pretend = 0, frame = 0
 1408              		@ frame_needed = 0, uses_anonymous_args = 0
 1409              		@ link register save eliminated.
 1410              	.LVL116:
 939:Generated_Source\PSoC5/PowerMonitor_1.c ****     {
 1411              		.loc 1 939 0
 1412 0000 431E     		subs	r3, r0, #1
 1413 0002 DBB2     		uxtb	r3, r3
ARM GAS  C:\Users\user\AppData\Local\Temp\ccywx0XT.s 			page 59


 1414 0004 012B     		cmp	r3, #1
 1415 0006 07D8     		bhi	.L132
 941:Generated_Source\PSoC5/PowerMonitor_1.c ****     }
 1416              		.loc 1 941 0
 1417 0008 0138     		subs	r0, r0, #1
 1418              	.LVL117:
 1419 000a 00EB4000 		add	r0, r0, r0, lsl #1
 1420 000e C300     		lsls	r3, r0, #3
 1421 0010 024A     		ldr	r2, .L133
 1422 0012 1344     		add	r3, r3, r2
 1423 0014 588A     		ldrh	r0, [r3, #18]
 1424              	.LVL118:
 1425 0016 7047     		bx	lr
 1426              	.LVL119:
 1427              	.L132:
 937:Generated_Source\PSoC5/PowerMonitor_1.c **** 
 1428              		.loc 1 937 0
 1429 0018 0020     		movs	r0, #0
 1430              	.LVL120:
 945:Generated_Source\PSoC5/PowerMonitor_1.c **** 
 1431              		.loc 1 945 0
 1432 001a 7047     		bx	lr
 1433              	.L134:
 1434              		.align	2
 1435              	.L133:
 1436 001c 00000000 		.word	PowerMonitor_1_warnWin
 1437              		.cfi_endproc
 1438              	.LFE25:
 1439              		.size	PowerMonitor_1_GetUVWarnThreshold, .-PowerMonitor_1_GetUVWarnThreshold
 1440              		.section	.text.PowerMonitor_1_SetOVWarnThreshold,"ax",%progbits
 1441              		.align	2
 1442              		.global	PowerMonitor_1_SetOVWarnThreshold
 1443              		.thumb
 1444              		.thumb_func
 1445              		.type	PowerMonitor_1_SetOVWarnThreshold, %function
 1446              	PowerMonitor_1_SetOVWarnThreshold:
 1447              	.LFB26:
 968:Generated_Source\PSoC5/PowerMonitor_1.c ****     int32 ovWarnCounts;
 1448              		.loc 1 968 0
 1449              		.cfi_startproc
 1450              		@ args = 0, pretend = 0, frame = 8
 1451              		@ frame_needed = 0, uses_anonymous_args = 0
 1452              	.LVL121:
 1453 0000 F0B5     		push	{r4, r5, r6, r7, lr}
 1454              		.cfi_def_cfa_offset 20
 1455              		.cfi_offset 4, -20
 1456              		.cfi_offset 5, -16
 1457              		.cfi_offset 6, -12
 1458              		.cfi_offset 7, -8
 1459              		.cfi_offset 14, -4
 1460 0002 83B0     		sub	sp, sp, #12
 1461              		.cfi_def_cfa_offset 32
 1462 0004 0446     		mov	r4, r0
 1463 0006 0D46     		mov	r5, r1
 970:Generated_Source\PSoC5/PowerMonitor_1.c **** 
 1464              		.loc 1 970 0
 1465 0008 02AA     		add	r2, sp, #8
ARM GAS  C:\Users\user\AppData\Local\Temp\ccywx0XT.s 			page 60


 1466 000a 0023     		movs	r3, #0
 1467 000c 02F8013D 		strb	r3, [r2, #-1]!
 972:Generated_Source\PSoC5/PowerMonitor_1.c ****     if(convRes == PowerMonitor_1_CYTRUE)
 1468              		.loc 1 972 0
 1469 0010 0146     		mov	r1, r0
 1470              	.LVL122:
 1471 0012 2846     		mov	r0, r5
 1472              	.LVL123:
 1473 0014 FFF7FEFF 		bl	PowerMonitor_1_mVToCounts
 1474              	.LVL124:
 973:Generated_Source\PSoC5/PowerMonitor_1.c ****     {
 1475              		.loc 1 973 0
 1476 0018 9DF80730 		ldrb	r3, [sp, #7]	@ zero_extendqisi2
 1477 001c 012B     		cmp	r3, #1
 1478 001e 0DD1     		bne	.L135
 976:Generated_Source\PSoC5/PowerMonitor_1.c ****         /* Set the over voltage warn threshold for warn checking */
 1479              		.loc 1 976 0
 1480 0020 4FF00051 		mov	r1, #536870912
 1481 0024 064B     		ldr	r3, .L138
 1482 0026 1960     		str	r1, [r3]
 978:Generated_Source\PSoC5/PowerMonitor_1.c ****         PowerMonitor_1_warnWin[converterNum - 1u].OVWarnThrshldVolts = ovWarnThreshold;
 1483              		.loc 1 978 0
 1484 0028 013C     		subs	r4, r4, #1
 1485 002a 064E     		ldr	r6, .L138+4
 1486 002c 6300     		lsls	r3, r4, #1
 1487 002e 1F19     		adds	r7, r3, r4
 1488 0030 FA00     		lsls	r2, r7, #3
 1489 0032 3244     		add	r2, r2, r6
 1490 0034 5060     		str	r0, [r2, #4]
 979:Generated_Source\PSoC5/PowerMonitor_1.c ****         /* Enable the interrupt */
 1491              		.loc 1 979 0
 1492 0036 1582     		strh	r5, [r2, #16]	@ movhi
 981:Generated_Source\PSoC5/PowerMonitor_1.c ****     }
 1493              		.loc 1 981 0
 1494 0038 034B     		ldr	r3, .L138+8
 1495 003a 1960     		str	r1, [r3]
 1496              	.L135:
 983:Generated_Source\PSoC5/PowerMonitor_1.c **** 
 1497              		.loc 1 983 0
 1498 003c 03B0     		add	sp, sp, #12
 1499              		.cfi_def_cfa_offset 20
 1500              		@ sp needed
 1501 003e F0BD     		pop	{r4, r5, r6, r7, pc}
 1502              	.L139:
 1503              		.align	2
 1504              	.L138:
 1505 0040 80E100E0 		.word	-536813184
 1506 0044 00000000 		.word	PowerMonitor_1_warnWin
 1507 0048 00E100E0 		.word	-536813312
 1508              		.cfi_endproc
 1509              	.LFE26:
 1510              		.size	PowerMonitor_1_SetOVWarnThreshold, .-PowerMonitor_1_SetOVWarnThreshold
 1511              		.section	.text.PowerMonitor_1_GetOVWarnThreshold,"ax",%progbits
 1512              		.align	2
 1513              		.global	PowerMonitor_1_GetOVWarnThreshold
 1514              		.thumb
 1515              		.thumb_func
ARM GAS  C:\Users\user\AppData\Local\Temp\ccywx0XT.s 			page 61


 1516              		.type	PowerMonitor_1_GetOVWarnThreshold, %function
 1517              	PowerMonitor_1_GetOVWarnThreshold:
 1518              	.LFB27:
1004:Generated_Source\PSoC5/PowerMonitor_1.c ****     uint16 ovWarnThreshold = 0u;
 1519              		.loc 1 1004 0
 1520              		.cfi_startproc
 1521              		@ args = 0, pretend = 0, frame = 0
 1522              		@ frame_needed = 0, uses_anonymous_args = 0
 1523              		@ link register save eliminated.
 1524              	.LVL125:
1007:Generated_Source\PSoC5/PowerMonitor_1.c ****     {
 1525              		.loc 1 1007 0
 1526 0000 431E     		subs	r3, r0, #1
 1527 0002 DBB2     		uxtb	r3, r3
 1528 0004 012B     		cmp	r3, #1
 1529 0006 07D8     		bhi	.L142
1009:Generated_Source\PSoC5/PowerMonitor_1.c ****     }
 1530              		.loc 1 1009 0
 1531 0008 0138     		subs	r0, r0, #1
 1532              	.LVL126:
 1533 000a 00EB4000 		add	r0, r0, r0, lsl #1
 1534 000e C300     		lsls	r3, r0, #3
 1535 0010 024A     		ldr	r2, .L143
 1536 0012 1344     		add	r3, r3, r2
 1537 0014 188A     		ldrh	r0, [r3, #16]
 1538              	.LVL127:
 1539 0016 7047     		bx	lr
 1540              	.LVL128:
 1541              	.L142:
1005:Generated_Source\PSoC5/PowerMonitor_1.c **** 
 1542              		.loc 1 1005 0
 1543 0018 0020     		movs	r0, #0
 1544              	.LVL129:
1013:Generated_Source\PSoC5/PowerMonitor_1.c **** 
 1545              		.loc 1 1013 0
 1546 001a 7047     		bx	lr
 1547              	.L144:
 1548              		.align	2
 1549              	.L143:
 1550 001c 00000000 		.word	PowerMonitor_1_warnWin
 1551              		.cfi_endproc
 1552              	.LFE27:
 1553              		.size	PowerMonitor_1_GetOVWarnThreshold, .-PowerMonitor_1_GetOVWarnThreshold
 1554              		.section	.text.PowerMonitor_1_SetUVFaultThreshold,"ax",%progbits
 1555              		.align	2
 1556              		.global	PowerMonitor_1_SetUVFaultThreshold
 1557              		.thumb
 1558              		.thumb_func
 1559              		.type	PowerMonitor_1_SetUVFaultThreshold, %function
 1560              	PowerMonitor_1_SetUVFaultThreshold:
 1561              	.LFB28:
1036:Generated_Source\PSoC5/PowerMonitor_1.c ****     int32 uvFaultCounts;
 1562              		.loc 1 1036 0
 1563              		.cfi_startproc
 1564              		@ args = 0, pretend = 0, frame = 8
 1565              		@ frame_needed = 0, uses_anonymous_args = 0
 1566              	.LVL130:
ARM GAS  C:\Users\user\AppData\Local\Temp\ccywx0XT.s 			page 62


 1567 0000 F0B5     		push	{r4, r5, r6, r7, lr}
 1568              		.cfi_def_cfa_offset 20
 1569              		.cfi_offset 4, -20
 1570              		.cfi_offset 5, -16
 1571              		.cfi_offset 6, -12
 1572              		.cfi_offset 7, -8
 1573              		.cfi_offset 14, -4
 1574 0002 83B0     		sub	sp, sp, #12
 1575              		.cfi_def_cfa_offset 32
 1576 0004 0446     		mov	r4, r0
 1577 0006 0D46     		mov	r5, r1
1038:Generated_Source\PSoC5/PowerMonitor_1.c **** 
 1578              		.loc 1 1038 0
 1579 0008 02AA     		add	r2, sp, #8
 1580 000a 0023     		movs	r3, #0
 1581 000c 02F8013D 		strb	r3, [r2, #-1]!
1040:Generated_Source\PSoC5/PowerMonitor_1.c ****     if(convRes == PowerMonitor_1_CYTRUE)
 1582              		.loc 1 1040 0
 1583 0010 0146     		mov	r1, r0
 1584              	.LVL131:
 1585 0012 2846     		mov	r0, r5
 1586              	.LVL132:
 1587 0014 FFF7FEFF 		bl	PowerMonitor_1_mVToCounts
 1588              	.LVL133:
1041:Generated_Source\PSoC5/PowerMonitor_1.c ****     {
 1589              		.loc 1 1041 0
 1590 0018 9DF80730 		ldrb	r3, [sp, #7]	@ zero_extendqisi2
 1591 001c 012B     		cmp	r3, #1
 1592 001e 0DD1     		bne	.L145
1044:Generated_Source\PSoC5/PowerMonitor_1.c ****         /* Set the threshold */
 1593              		.loc 1 1044 0
 1594 0020 4FF00051 		mov	r1, #536870912
 1595 0024 064B     		ldr	r3, .L148
 1596 0026 1960     		str	r1, [r3]
1046:Generated_Source\PSoC5/PowerMonitor_1.c ****         PowerMonitor_1_faultWin[converterNum - 1u].UVFaultThrshldVolts = uvFaultThreshold;
 1597              		.loc 1 1046 0
 1598 0028 013C     		subs	r4, r4, #1
 1599 002a 064E     		ldr	r6, .L148+4
 1600 002c 6300     		lsls	r3, r4, #1
 1601 002e 1F19     		adds	r7, r3, r4
 1602 0030 FA00     		lsls	r2, r7, #3
 1603 0032 3244     		add	r2, r2, r6
 1604 0034 9060     		str	r0, [r2, #8]
1047:Generated_Source\PSoC5/PowerMonitor_1.c ****         /* Enable the interrupt */
 1605              		.loc 1 1047 0
 1606 0036 5582     		strh	r5, [r2, #18]	@ movhi
1049:Generated_Source\PSoC5/PowerMonitor_1.c ****     }
 1607              		.loc 1 1049 0
 1608 0038 034B     		ldr	r3, .L148+8
 1609 003a 1960     		str	r1, [r3]
 1610              	.L145:
1051:Generated_Source\PSoC5/PowerMonitor_1.c **** 
 1611              		.loc 1 1051 0
 1612 003c 03B0     		add	sp, sp, #12
 1613              		.cfi_def_cfa_offset 20
 1614              		@ sp needed
 1615 003e F0BD     		pop	{r4, r5, r6, r7, pc}
ARM GAS  C:\Users\user\AppData\Local\Temp\ccywx0XT.s 			page 63


 1616              	.L149:
 1617              		.align	2
 1618              	.L148:
 1619 0040 80E100E0 		.word	-536813184
 1620 0044 00000000 		.word	PowerMonitor_1_faultWin
 1621 0048 00E100E0 		.word	-536813312
 1622              		.cfi_endproc
 1623              	.LFE28:
 1624              		.size	PowerMonitor_1_SetUVFaultThreshold, .-PowerMonitor_1_SetUVFaultThreshold
 1625              		.section	.text.PowerMonitor_1_GetUVFaultThreshold,"ax",%progbits
 1626              		.align	2
 1627              		.global	PowerMonitor_1_GetUVFaultThreshold
 1628              		.thumb
 1629              		.thumb_func
 1630              		.type	PowerMonitor_1_GetUVFaultThreshold, %function
 1631              	PowerMonitor_1_GetUVFaultThreshold:
 1632              	.LFB29:
1072:Generated_Source\PSoC5/PowerMonitor_1.c ****     uint16 uvFaultThreshold = 0u;
 1633              		.loc 1 1072 0
 1634              		.cfi_startproc
 1635              		@ args = 0, pretend = 0, frame = 0
 1636              		@ frame_needed = 0, uses_anonymous_args = 0
 1637              		@ link register save eliminated.
 1638              	.LVL134:
1075:Generated_Source\PSoC5/PowerMonitor_1.c ****     {
 1639              		.loc 1 1075 0
 1640 0000 431E     		subs	r3, r0, #1
 1641 0002 DBB2     		uxtb	r3, r3
 1642 0004 012B     		cmp	r3, #1
 1643 0006 07D8     		bhi	.L152
1077:Generated_Source\PSoC5/PowerMonitor_1.c ****     }
 1644              		.loc 1 1077 0
 1645 0008 0138     		subs	r0, r0, #1
 1646              	.LVL135:
 1647 000a 00EB4000 		add	r0, r0, r0, lsl #1
 1648 000e C300     		lsls	r3, r0, #3
 1649 0010 024A     		ldr	r2, .L153
 1650 0012 1344     		add	r3, r3, r2
 1651 0014 588A     		ldrh	r0, [r3, #18]
 1652              	.LVL136:
 1653 0016 7047     		bx	lr
 1654              	.LVL137:
 1655              	.L152:
1073:Generated_Source\PSoC5/PowerMonitor_1.c **** 
 1656              		.loc 1 1073 0
 1657 0018 0020     		movs	r0, #0
 1658              	.LVL138:
1081:Generated_Source\PSoC5/PowerMonitor_1.c **** 
 1659              		.loc 1 1081 0
 1660 001a 7047     		bx	lr
 1661              	.L154:
 1662              		.align	2
 1663              	.L153:
 1664 001c 00000000 		.word	PowerMonitor_1_faultWin
 1665              		.cfi_endproc
 1666              	.LFE29:
 1667              		.size	PowerMonitor_1_GetUVFaultThreshold, .-PowerMonitor_1_GetUVFaultThreshold
ARM GAS  C:\Users\user\AppData\Local\Temp\ccywx0XT.s 			page 64


 1668              		.section	.text.PowerMonitor_1_SetOVFaultThreshold,"ax",%progbits
 1669              		.align	2
 1670              		.global	PowerMonitor_1_SetOVFaultThreshold
 1671              		.thumb
 1672              		.thumb_func
 1673              		.type	PowerMonitor_1_SetOVFaultThreshold, %function
 1674              	PowerMonitor_1_SetOVFaultThreshold:
 1675              	.LFB30:
1104:Generated_Source\PSoC5/PowerMonitor_1.c ****     int32 ovFaultCounts;
 1676              		.loc 1 1104 0
 1677              		.cfi_startproc
 1678              		@ args = 0, pretend = 0, frame = 8
 1679              		@ frame_needed = 0, uses_anonymous_args = 0
 1680              	.LVL139:
 1681 0000 F0B5     		push	{r4, r5, r6, r7, lr}
 1682              		.cfi_def_cfa_offset 20
 1683              		.cfi_offset 4, -20
 1684              		.cfi_offset 5, -16
 1685              		.cfi_offset 6, -12
 1686              		.cfi_offset 7, -8
 1687              		.cfi_offset 14, -4
 1688 0002 83B0     		sub	sp, sp, #12
 1689              		.cfi_def_cfa_offset 32
 1690 0004 0446     		mov	r4, r0
 1691 0006 0D46     		mov	r5, r1
1106:Generated_Source\PSoC5/PowerMonitor_1.c **** 
 1692              		.loc 1 1106 0
 1693 0008 02AA     		add	r2, sp, #8
 1694 000a 0023     		movs	r3, #0
 1695 000c 02F8013D 		strb	r3, [r2, #-1]!
1108:Generated_Source\PSoC5/PowerMonitor_1.c ****     if(convRes == PowerMonitor_1_CYTRUE)
 1696              		.loc 1 1108 0
 1697 0010 0146     		mov	r1, r0
 1698              	.LVL140:
 1699 0012 2846     		mov	r0, r5
 1700              	.LVL141:
 1701 0014 FFF7FEFF 		bl	PowerMonitor_1_mVToCounts
 1702              	.LVL142:
1109:Generated_Source\PSoC5/PowerMonitor_1.c ****     {
 1703              		.loc 1 1109 0
 1704 0018 9DF80730 		ldrb	r3, [sp, #7]	@ zero_extendqisi2
 1705 001c 012B     		cmp	r3, #1
 1706 001e 0DD1     		bne	.L155
1112:Generated_Source\PSoC5/PowerMonitor_1.c ****         /* Set the over voltage fault threshold */
 1707              		.loc 1 1112 0
 1708 0020 4FF00051 		mov	r1, #536870912
 1709 0024 064B     		ldr	r3, .L158
 1710 0026 1960     		str	r1, [r3]
1114:Generated_Source\PSoC5/PowerMonitor_1.c ****         PowerMonitor_1_faultWin[converterNum - 1u].OVFaultThrshldVolts = ovFaultThreshold;
 1711              		.loc 1 1114 0
 1712 0028 013C     		subs	r4, r4, #1
 1713 002a 064E     		ldr	r6, .L158+4
 1714 002c 6300     		lsls	r3, r4, #1
 1715 002e 1F19     		adds	r7, r3, r4
 1716 0030 FA00     		lsls	r2, r7, #3
 1717 0032 3244     		add	r2, r2, r6
 1718 0034 5060     		str	r0, [r2, #4]
ARM GAS  C:\Users\user\AppData\Local\Temp\ccywx0XT.s 			page 65


1115:Generated_Source\PSoC5/PowerMonitor_1.c ****         PowerMonitor_1_IntEnable(PowerMonitor_1_IRQ__INTC_NUMBER);
 1719              		.loc 1 1115 0
 1720 0036 1582     		strh	r5, [r2, #16]	@ movhi
1116:Generated_Source\PSoC5/PowerMonitor_1.c ****     }
 1721              		.loc 1 1116 0
 1722 0038 034B     		ldr	r3, .L158+8
 1723 003a 1960     		str	r1, [r3]
 1724              	.L155:
1118:Generated_Source\PSoC5/PowerMonitor_1.c **** 
 1725              		.loc 1 1118 0
 1726 003c 03B0     		add	sp, sp, #12
 1727              		.cfi_def_cfa_offset 20
 1728              		@ sp needed
 1729 003e F0BD     		pop	{r4, r5, r6, r7, pc}
 1730              	.L159:
 1731              		.align	2
 1732              	.L158:
 1733 0040 80E100E0 		.word	-536813184
 1734 0044 00000000 		.word	PowerMonitor_1_faultWin
 1735 0048 00E100E0 		.word	-536813312
 1736              		.cfi_endproc
 1737              	.LFE30:
 1738              		.size	PowerMonitor_1_SetOVFaultThreshold, .-PowerMonitor_1_SetOVFaultThreshold
 1739              		.section	.text.PowerMonitor_1_GetOVFaultThreshold,"ax",%progbits
 1740              		.align	2
 1741              		.global	PowerMonitor_1_GetOVFaultThreshold
 1742              		.thumb
 1743              		.thumb_func
 1744              		.type	PowerMonitor_1_GetOVFaultThreshold, %function
 1745              	PowerMonitor_1_GetOVFaultThreshold:
 1746              	.LFB31:
1139:Generated_Source\PSoC5/PowerMonitor_1.c ****     uint16 ovFaultThreshold = 0u;
 1747              		.loc 1 1139 0
 1748              		.cfi_startproc
 1749              		@ args = 0, pretend = 0, frame = 0
 1750              		@ frame_needed = 0, uses_anonymous_args = 0
 1751              		@ link register save eliminated.
 1752              	.LVL143:
1142:Generated_Source\PSoC5/PowerMonitor_1.c ****     {
 1753              		.loc 1 1142 0
 1754 0000 431E     		subs	r3, r0, #1
 1755 0002 DBB2     		uxtb	r3, r3
 1756 0004 012B     		cmp	r3, #1
 1757 0006 07D8     		bhi	.L162
1144:Generated_Source\PSoC5/PowerMonitor_1.c ****     }
 1758              		.loc 1 1144 0
 1759 0008 0138     		subs	r0, r0, #1
 1760              	.LVL144:
 1761 000a 00EB4000 		add	r0, r0, r0, lsl #1
 1762 000e C300     		lsls	r3, r0, #3
 1763 0010 024A     		ldr	r2, .L163
 1764 0012 1344     		add	r3, r3, r2
 1765 0014 188A     		ldrh	r0, [r3, #16]
 1766              	.LVL145:
 1767 0016 7047     		bx	lr
 1768              	.LVL146:
 1769              	.L162:
ARM GAS  C:\Users\user\AppData\Local\Temp\ccywx0XT.s 			page 66


1140:Generated_Source\PSoC5/PowerMonitor_1.c **** 
 1770              		.loc 1 1140 0
 1771 0018 0020     		movs	r0, #0
 1772              	.LVL147:
1148:Generated_Source\PSoC5/PowerMonitor_1.c **** 
 1773              		.loc 1 1148 0
 1774 001a 7047     		bx	lr
 1775              	.L164:
 1776              		.align	2
 1777              	.L163:
 1778 001c 00000000 		.word	PowerMonitor_1_faultWin
 1779              		.cfi_endproc
 1780              	.LFE31:
 1781              		.size	PowerMonitor_1_GetOVFaultThreshold, .-PowerMonitor_1_GetOVFaultThreshold
 1782              		.section	.text.PowerMonitor_1_SetOCWarnThreshold,"ax",%progbits
 1783              		.align	2
 1784              		.global	PowerMonitor_1_SetOCWarnThreshold
 1785              		.thumb
 1786              		.thumb_func
 1787              		.type	PowerMonitor_1_SetOCWarnThreshold, %function
 1788              	PowerMonitor_1_SetOCWarnThreshold:
 1789              	.LFB32:
1170:Generated_Source\PSoC5/PowerMonitor_1.c ****     int32 ocWarnCounts;
 1790              		.loc 1 1170 0
 1791              		.cfi_startproc
 1792              		@ args = 0, pretend = 0, frame = 8
 1793              		@ frame_needed = 0, uses_anonymous_args = 0
 1794              	.LVL148:
 1795 0000 F0B5     		push	{r4, r5, r6, r7, lr}
 1796              		.cfi_def_cfa_offset 20
 1797              		.cfi_offset 4, -20
 1798              		.cfi_offset 5, -16
 1799              		.cfi_offset 6, -12
 1800              		.cfi_offset 7, -8
 1801              		.cfi_offset 14, -4
 1802 0002 83B0     		sub	sp, sp, #12
 1803              		.cfi_def_cfa_offset 32
 1804 0004 0446     		mov	r4, r0
 1805 0006 0D46     		mov	r5, r1
1172:Generated_Source\PSoC5/PowerMonitor_1.c **** 
 1806              		.loc 1 1172 0
 1807 0008 02AA     		add	r2, sp, #8
 1808 000a 0023     		movs	r3, #0
 1809 000c 02F8013D 		strb	r3, [r2, #-1]!
1174:Generated_Source\PSoC5/PowerMonitor_1.c ****     if(convRes == PowerMonitor_1_CYTRUE)
 1810              		.loc 1 1174 0
 1811 0010 0146     		mov	r1, r0
 1812              	.LVL149:
 1813 0012 2846     		mov	r0, r5
 1814              	.LVL150:
 1815 0014 FFF7FEFF 		bl	PowerMonitor_1_AToCounts
 1816              	.LVL151:
1175:Generated_Source\PSoC5/PowerMonitor_1.c ****     {
 1817              		.loc 1 1175 0
 1818 0018 9DF80730 		ldrb	r3, [sp, #7]	@ zero_extendqisi2
 1819 001c 012B     		cmp	r3, #1
 1820 001e 0DD1     		bne	.L165
ARM GAS  C:\Users\user\AppData\Local\Temp\ccywx0XT.s 			page 67


1178:Generated_Source\PSoC5/PowerMonitor_1.c ****         PowerMonitor_1_warnWin[converterNum - 1u].OCWarnThrshldCounts = ocWarnCounts;
 1821              		.loc 1 1178 0
 1822 0020 4FF00051 		mov	r1, #536870912
 1823 0024 064B     		ldr	r3, .L168
 1824 0026 1960     		str	r1, [r3]
1179:Generated_Source\PSoC5/PowerMonitor_1.c ****         PowerMonitor_1_warnWin[converterNum - 1u].OCWarnThrshldAmps = ocWarnThreshold;
 1825              		.loc 1 1179 0
 1826 0028 013C     		subs	r4, r4, #1
 1827 002a 064E     		ldr	r6, .L168+4
 1828 002c 6300     		lsls	r3, r4, #1
 1829 002e 1F19     		adds	r7, r3, r4
 1830 0030 FA00     		lsls	r2, r7, #3
 1831 0032 3244     		add	r2, r2, r6
 1832 0034 D060     		str	r0, [r2, #12]
1180:Generated_Source\PSoC5/PowerMonitor_1.c ****         PowerMonitor_1_IntEnable(PowerMonitor_1_IRQ__INTC_NUMBER);
 1833              		.loc 1 1180 0
 1834 0036 5561     		str	r5, [r2, #20]	@ float
1181:Generated_Source\PSoC5/PowerMonitor_1.c ****     }
 1835              		.loc 1 1181 0
 1836 0038 034B     		ldr	r3, .L168+8
 1837 003a 1960     		str	r1, [r3]
 1838              	.L165:
1183:Generated_Source\PSoC5/PowerMonitor_1.c **** 
 1839              		.loc 1 1183 0
 1840 003c 03B0     		add	sp, sp, #12
 1841              		.cfi_def_cfa_offset 20
 1842              		@ sp needed
 1843 003e F0BD     		pop	{r4, r5, r6, r7, pc}
 1844              	.LVL152:
 1845              	.L169:
 1846              		.align	2
 1847              	.L168:
 1848 0040 80E100E0 		.word	-536813184
 1849 0044 00000000 		.word	PowerMonitor_1_warnWin
 1850 0048 00E100E0 		.word	-536813312
 1851              		.cfi_endproc
 1852              	.LFE32:
 1853              		.size	PowerMonitor_1_SetOCWarnThreshold, .-PowerMonitor_1_SetOCWarnThreshold
 1854              		.section	.text.PowerMonitor_1_GetOCWarnThreshold,"ax",%progbits
 1855              		.align	2
 1856              		.global	PowerMonitor_1_GetOCWarnThreshold
 1857              		.thumb
 1858              		.thumb_func
 1859              		.type	PowerMonitor_1_GetOCWarnThreshold, %function
 1860              	PowerMonitor_1_GetOCWarnThreshold:
 1861              	.LFB33:
1204:Generated_Source\PSoC5/PowerMonitor_1.c ****     float ocWarnThreshold = 0.0f;
 1862              		.loc 1 1204 0
 1863              		.cfi_startproc
 1864              		@ args = 0, pretend = 0, frame = 0
 1865              		@ frame_needed = 0, uses_anonymous_args = 0
 1866              		@ link register save eliminated.
 1867              	.LVL153:
1207:Generated_Source\PSoC5/PowerMonitor_1.c ****     {
 1868              		.loc 1 1207 0
 1869 0000 431E     		subs	r3, r0, #1
 1870 0002 DBB2     		uxtb	r3, r3
ARM GAS  C:\Users\user\AppData\Local\Temp\ccywx0XT.s 			page 68


 1871 0004 012B     		cmp	r3, #1
 1872 0006 0BD8     		bhi	.L172
1209:Generated_Source\PSoC5/PowerMonitor_1.c ****         {
 1873              		.loc 1 1209 0
 1874 0008 0138     		subs	r0, r0, #1
 1875              	.LVL154:
 1876 000a 074B     		ldr	r3, .L174
 1877 000c 0344     		add	r3, r3, r0
 1878 000e 1B7A     		ldrb	r3, [r3, #8]	@ zero_extendqisi2
 1879 0010 43B1     		cbz	r3, .L173
1211:Generated_Source\PSoC5/PowerMonitor_1.c ****         }
 1880              		.loc 1 1211 0
 1881 0012 00EB4000 		add	r0, r0, r0, lsl #1
 1882 0016 C300     		lsls	r3, r0, #3
 1883 0018 044A     		ldr	r2, .L174+4
 1884 001a 1344     		add	r3, r3, r2
 1885 001c 5869     		ldr	r0, [r3, #20]	@ float
 1886              	.LVL155:
 1887 001e 7047     		bx	lr
 1888              	.LVL156:
 1889              	.L172:
1205:Generated_Source\PSoC5/PowerMonitor_1.c **** 
 1890              		.loc 1 1205 0
 1891 0020 0020     		movs	r0, #0
 1892              	.LVL157:
 1893 0022 7047     		bx	lr
 1894              	.L173:
 1895 0024 0020     		movs	r0, #0
 1896              	.LVL158:
1216:Generated_Source\PSoC5/PowerMonitor_1.c **** 
 1897              		.loc 1 1216 0
 1898 0026 7047     		bx	lr
 1899              	.L175:
 1900              		.align	2
 1901              	.L174:
 1902 0028 00000000 		.word	.LANCHOR0
 1903 002c 00000000 		.word	PowerMonitor_1_warnWin
 1904              		.cfi_endproc
 1905              	.LFE33:
 1906              		.size	PowerMonitor_1_GetOCWarnThreshold, .-PowerMonitor_1_GetOCWarnThreshold
 1907              		.section	.text.PowerMonitor_1_SetOCFaultThreshold,"ax",%progbits
 1908              		.align	2
 1909              		.global	PowerMonitor_1_SetOCFaultThreshold
 1910              		.thumb
 1911              		.thumb_func
 1912              		.type	PowerMonitor_1_SetOCFaultThreshold, %function
 1913              	PowerMonitor_1_SetOCFaultThreshold:
 1914              	.LFB34:
1238:Generated_Source\PSoC5/PowerMonitor_1.c ****     int32 ocFaultCounts;
 1915              		.loc 1 1238 0
 1916              		.cfi_startproc
 1917              		@ args = 0, pretend = 0, frame = 8
 1918              		@ frame_needed = 0, uses_anonymous_args = 0
 1919              	.LVL159:
 1920 0000 F0B5     		push	{r4, r5, r6, r7, lr}
 1921              		.cfi_def_cfa_offset 20
 1922              		.cfi_offset 4, -20
ARM GAS  C:\Users\user\AppData\Local\Temp\ccywx0XT.s 			page 69


 1923              		.cfi_offset 5, -16
 1924              		.cfi_offset 6, -12
 1925              		.cfi_offset 7, -8
 1926              		.cfi_offset 14, -4
 1927 0002 83B0     		sub	sp, sp, #12
 1928              		.cfi_def_cfa_offset 32
 1929 0004 0446     		mov	r4, r0
 1930 0006 0D46     		mov	r5, r1
1240:Generated_Source\PSoC5/PowerMonitor_1.c **** 
 1931              		.loc 1 1240 0
 1932 0008 02AA     		add	r2, sp, #8
 1933 000a 0023     		movs	r3, #0
 1934 000c 02F8013D 		strb	r3, [r2, #-1]!
1242:Generated_Source\PSoC5/PowerMonitor_1.c ****     if(convRes == PowerMonitor_1_CYTRUE)
 1935              		.loc 1 1242 0
 1936 0010 0146     		mov	r1, r0
 1937              	.LVL160:
 1938 0012 2846     		mov	r0, r5
 1939              	.LVL161:
 1940 0014 FFF7FEFF 		bl	PowerMonitor_1_AToCounts
 1941              	.LVL162:
1243:Generated_Source\PSoC5/PowerMonitor_1.c ****     {
 1942              		.loc 1 1243 0
 1943 0018 9DF80730 		ldrb	r3, [sp, #7]	@ zero_extendqisi2
 1944 001c 012B     		cmp	r3, #1
 1945 001e 0DD1     		bne	.L176
1246:Generated_Source\PSoC5/PowerMonitor_1.c ****         PowerMonitor_1_faultWin[converterNum - 1u].OCFaultThrshldCounts = ocFaultCounts;
 1946              		.loc 1 1246 0
 1947 0020 4FF00051 		mov	r1, #536870912
 1948 0024 064B     		ldr	r3, .L179
 1949 0026 1960     		str	r1, [r3]
1247:Generated_Source\PSoC5/PowerMonitor_1.c ****         PowerMonitor_1_faultWin[converterNum - 1u].OCFaultThrshldAmps = ocFaultThreshold;
 1950              		.loc 1 1247 0
 1951 0028 013C     		subs	r4, r4, #1
 1952 002a 064E     		ldr	r6, .L179+4
 1953 002c 6300     		lsls	r3, r4, #1
 1954 002e 1F19     		adds	r7, r3, r4
 1955 0030 FA00     		lsls	r2, r7, #3
 1956 0032 3244     		add	r2, r2, r6
 1957 0034 D060     		str	r0, [r2, #12]
1248:Generated_Source\PSoC5/PowerMonitor_1.c ****         PowerMonitor_1_IntEnable(PowerMonitor_1_IRQ__INTC_NUMBER);
 1958              		.loc 1 1248 0
 1959 0036 5561     		str	r5, [r2, #20]	@ float
1249:Generated_Source\PSoC5/PowerMonitor_1.c ****     }
 1960              		.loc 1 1249 0
 1961 0038 034B     		ldr	r3, .L179+8
 1962 003a 1960     		str	r1, [r3]
 1963              	.L176:
1251:Generated_Source\PSoC5/PowerMonitor_1.c **** 
 1964              		.loc 1 1251 0
 1965 003c 03B0     		add	sp, sp, #12
 1966              		.cfi_def_cfa_offset 20
 1967              		@ sp needed
 1968 003e F0BD     		pop	{r4, r5, r6, r7, pc}
 1969              	.LVL163:
 1970              	.L180:
 1971              		.align	2
ARM GAS  C:\Users\user\AppData\Local\Temp\ccywx0XT.s 			page 70


 1972              	.L179:
 1973 0040 80E100E0 		.word	-536813184
 1974 0044 00000000 		.word	PowerMonitor_1_faultWin
 1975 0048 00E100E0 		.word	-536813312
 1976              		.cfi_endproc
 1977              	.LFE34:
 1978              		.size	PowerMonitor_1_SetOCFaultThreshold, .-PowerMonitor_1_SetOCFaultThreshold
 1979              		.section	.text.PowerMonitor_1_Enable,"ax",%progbits
 1980              		.align	2
 1981              		.global	PowerMonitor_1_Enable
 1982              		.thumb
 1983              		.thumb_func
 1984              		.type	PowerMonitor_1_Enable, %function
 1985              	PowerMonitor_1_Enable:
 1986              	.LFB1:
 158:Generated_Source\PSoC5/PowerMonitor_1.c ****     uint8 index;
 1987              		.loc 1 158 0
 1988              		.cfi_startproc
 1989              		@ args = 0, pretend = 0, frame = 0
 1990              		@ frame_needed = 0, uses_anonymous_args = 0
 1991 0000 F8B5     		push	{r3, r4, r5, r6, r7, lr}
 1992              		.cfi_def_cfa_offset 24
 1993              		.cfi_offset 3, -24
 1994              		.cfi_offset 4, -20
 1995              		.cfi_offset 5, -16
 1996              		.cfi_offset 6, -12
 1997              		.cfi_offset 7, -8
 1998              		.cfi_offset 14, -4
 161:Generated_Source\PSoC5/PowerMonitor_1.c ****     PowerMonitor_1_PM_AMux_Current_Start();
 1999              		.loc 1 161 0
 2000 0002 FFF7FEFF 		bl	PowerMonitor_1_PM_AMux_Voltage_Start
 2001              	.LVL164:
 162:Generated_Source\PSoC5/PowerMonitor_1.c ****     PowerMonitor_1_PGA_Start();
 2002              		.loc 1 162 0
 2003 0006 FFF7FEFF 		bl	PowerMonitor_1_PM_AMux_Current_Start
 2004              	.LVL165:
 163:Generated_Source\PSoC5/PowerMonitor_1.c ****     #if (PowerMonitor_1_DEFAULT_SE_VOLTAGE_RANGE == PowerMonitor_1_SE_VOLTAGE_RANGE_2048MV)
 2005              		.loc 1 163 0
 2006 000a FFF7FEFF 		bl	PowerMonitor_1_PGA_Start
 2007              	.LVL166:
 167:Generated_Source\PSoC5/PowerMonitor_1.c ****     #endif /* (PowerMonitor_1_DEFAULT_SE_VOLTAGE_RANGE == PowerMonitor_1_SE_VOLTAGE_RANGE_2048MV) *
 2008              		.loc 1 167 0
 2009 000e 0120     		movs	r0, #1
 2010 0010 FFF7FEFF 		bl	PowerMonitor_1_PGA_SetGain
 2011              	.LVL167:
 170:Generated_Source\PSoC5/PowerMonitor_1.c ****     PowerMonitor_1_StartupIsr();
 2012              		.loc 1 170 0
 2013 0014 0025     		movs	r5, #0
 2014 0016 164B     		ldr	r3, .L185
 2015 0018 83F82050 		strb	r5, [r3, #32]
 171:Generated_Source\PSoC5/PowerMonitor_1.c ****     /* Set warn and fault thresholds */
 2016              		.loc 1 171 0
 2017 001c FFF7FEFF 		bl	PowerMonitor_1_StartupIsr
 2018              	.LVL168:
 173:Generated_Source\PSoC5/PowerMonitor_1.c ****     {
 2019              		.loc 1 173 0
 2020 0020 1FE0     		b	.L182
ARM GAS  C:\Users\user\AppData\Local\Temp\ccywx0XT.s 			page 71


 2021              	.LVL169:
 2022              	.L183:
 175:Generated_Source\PSoC5/PowerMonitor_1.c ****         PowerMonitor_1_SetOVWarnThreshold((index + 1), PowerMonitor_1_OVWarnThreshold[index]);
 2023              		.loc 1 175 0 discriminator 3
 2024 0022 6C1C     		adds	r4, r5, #1
 2025 0024 E4B2     		uxtb	r4, r4
 2026 0026 134E     		ldr	r6, .L185+4
 2027 0028 06EB4507 		add	r7, r6, r5, lsl #1
 2028 002c B98B     		ldrh	r1, [r7, #28]
 2029 002e 2046     		mov	r0, r4
 2030 0030 FFF7FEFF 		bl	PowerMonitor_1_SetOVFaultThreshold
 2031              	.LVL170:
 176:Generated_Source\PSoC5/PowerMonitor_1.c ****         PowerMonitor_1_SetUVWarnThreshold((index + 1), PowerMonitor_1_UVWarnThreshold[index]);
 2032              		.loc 1 176 0 discriminator 3
 2033 0034 398C     		ldrh	r1, [r7, #32]
 2034 0036 2046     		mov	r0, r4
 2035 0038 FFF7FEFF 		bl	PowerMonitor_1_SetOVWarnThreshold
 2036              	.LVL171:
 177:Generated_Source\PSoC5/PowerMonitor_1.c ****         PowerMonitor_1_SetUVFaultThreshold((index + 1), PowerMonitor_1_UVFaultThreshold[index]);
 2037              		.loc 1 177 0 discriminator 3
 2038 003c B98C     		ldrh	r1, [r7, #36]
 2039 003e 2046     		mov	r0, r4
 2040 0040 FFF7FEFF 		bl	PowerMonitor_1_SetUVWarnThreshold
 2041              	.LVL172:
 178:Generated_Source\PSoC5/PowerMonitor_1.c ****         PowerMonitor_1_SetOCFaultThreshold((index + 1), PowerMonitor_1_OCFaultThreshold[index]);
 2042              		.loc 1 178 0 discriminator 3
 2043 0044 398D     		ldrh	r1, [r7, #40]
 2044 0046 2046     		mov	r0, r4
 2045 0048 FFF7FEFF 		bl	PowerMonitor_1_SetUVFaultThreshold
 2046              	.LVL173:
 179:Generated_Source\PSoC5/PowerMonitor_1.c ****         PowerMonitor_1_SetOCWarnThreshold((index + 1), PowerMonitor_1_OCWarnThreshold[index]);
 2047              		.loc 1 179 0 discriminator 3
 2048 004c 06EB8505 		add	r5, r6, r5, lsl #2
 2049              	.LVL174:
 2050 0050 E96A     		ldr	r1, [r5, #44]	@ float
 2051 0052 2046     		mov	r0, r4
 2052 0054 FFF7FEFF 		bl	PowerMonitor_1_SetOCFaultThreshold
 2053              	.LVL175:
 180:Generated_Source\PSoC5/PowerMonitor_1.c ****     }
 2054              		.loc 1 180 0 discriminator 3
 2055 0058 696B     		ldr	r1, [r5, #52]	@ float
 2056 005a 2046     		mov	r0, r4
 2057 005c FFF7FEFF 		bl	PowerMonitor_1_SetOCWarnThreshold
 2058              	.LVL176:
 173:Generated_Source\PSoC5/PowerMonitor_1.c ****     {
 2059              		.loc 1 173 0 discriminator 3
 2060 0060 2546     		mov	r5, r4
 2061              	.LVL177:
 2062              	.L182:
 173:Generated_Source\PSoC5/PowerMonitor_1.c ****     {
 2063              		.loc 1 173 0 is_stmt 0 discriminator 1
 2064 0062 012D     		cmp	r5, #1
 2065 0064 DDD9     		bls	.L183
 182:Generated_Source\PSoC5/PowerMonitor_1.c **** }
 2066              		.loc 1 182 0 is_stmt 1
 2067 0066 0122     		movs	r2, #1
 2068 0068 014B     		ldr	r3, .L185
ARM GAS  C:\Users\user\AppData\Local\Temp\ccywx0XT.s 			page 72


 2069 006a 83F82020 		strb	r2, [r3, #32]
 2070 006e F8BD     		pop	{r3, r4, r5, r6, r7, pc}
 2071              	.LVL178:
 2072              	.L186:
 2073              		.align	2
 2074              	.L185:
 2075 0070 00000000 		.word	.LANCHOR1
 2076 0074 00000000 		.word	.LANCHOR0
 2077              		.cfi_endproc
 2078              	.LFE1:
 2079              		.size	PowerMonitor_1_Enable, .-PowerMonitor_1_Enable
 2080              		.section	.text.PowerMonitor_1_Start,"ax",%progbits
 2081              		.align	2
 2082              		.global	PowerMonitor_1_Start
 2083              		.thumb
 2084              		.thumb_func
 2085              		.type	PowerMonitor_1_Start, %function
 2086              	PowerMonitor_1_Start:
 2087              	.LFB2:
 207:Generated_Source\PSoC5/PowerMonitor_1.c ****     if(PowerMonitor_1_initVar == 0u)
 2088              		.loc 1 207 0
 2089              		.cfi_startproc
 2090              		@ args = 0, pretend = 0, frame = 0
 2091              		@ frame_needed = 0, uses_anonymous_args = 0
 2092 0000 08B5     		push	{r3, lr}
 2093              		.cfi_def_cfa_offset 8
 2094              		.cfi_offset 3, -8
 2095              		.cfi_offset 14, -4
 208:Generated_Source\PSoC5/PowerMonitor_1.c ****     {
 2096              		.loc 1 208 0
 2097 0002 064B     		ldr	r3, .L190
 2098 0004 93F82130 		ldrb	r3, [r3, #33]	@ zero_extendqisi2
 2099 0008 2BB9     		cbnz	r3, .L188
 210:Generated_Source\PSoC5/PowerMonitor_1.c ****        PowerMonitor_1_initVar = 1u;
 2100              		.loc 1 210 0
 2101 000a FFF7FEFF 		bl	PowerMonitor_1_Init
 2102              	.LVL179:
 211:Generated_Source\PSoC5/PowerMonitor_1.c ****     }
 2103              		.loc 1 211 0
 2104 000e 0122     		movs	r2, #1
 2105 0010 024B     		ldr	r3, .L190
 2106 0012 83F82120 		strb	r2, [r3, #33]
 2107              	.L188:
 215:Generated_Source\PSoC5/PowerMonitor_1.c **** }
 2108              		.loc 1 215 0
 2109 0016 FFF7FEFF 		bl	PowerMonitor_1_Enable
 2110              	.LVL180:
 2111 001a 08BD     		pop	{r3, pc}
 2112              	.L191:
 2113              		.align	2
 2114              	.L190:
 2115 001c 00000000 		.word	.LANCHOR1
 2116              		.cfi_endproc
 2117              	.LFE2:
 2118              		.size	PowerMonitor_1_Start, .-PowerMonitor_1_Start
 2119              		.section	.text.PowerMonitor_1_GetOCFaultThreshold,"ax",%progbits
 2120              		.align	2
ARM GAS  C:\Users\user\AppData\Local\Temp\ccywx0XT.s 			page 73


 2121              		.global	PowerMonitor_1_GetOCFaultThreshold
 2122              		.thumb
 2123              		.thumb_func
 2124              		.type	PowerMonitor_1_GetOCFaultThreshold, %function
 2125              	PowerMonitor_1_GetOCFaultThreshold:
 2126              	.LFB35:
1272:Generated_Source\PSoC5/PowerMonitor_1.c ****     float ocFaultThreshold = 0.0f;
 2127              		.loc 1 1272 0
 2128              		.cfi_startproc
 2129              		@ args = 0, pretend = 0, frame = 0
 2130              		@ frame_needed = 0, uses_anonymous_args = 0
 2131              		@ link register save eliminated.
 2132              	.LVL181:
1276:Generated_Source\PSoC5/PowerMonitor_1.c ****     {
 2133              		.loc 1 1276 0
 2134 0000 431E     		subs	r3, r0, #1
 2135 0002 DBB2     		uxtb	r3, r3
 2136 0004 012B     		cmp	r3, #1
 2137 0006 0BD8     		bhi	.L194
1278:Generated_Source\PSoC5/PowerMonitor_1.c ****         {
 2138              		.loc 1 1278 0
 2139 0008 0138     		subs	r0, r0, #1
 2140              	.LVL182:
 2141 000a 074B     		ldr	r3, .L196
 2142 000c 0344     		add	r3, r3, r0
 2143 000e 1B7A     		ldrb	r3, [r3, #8]	@ zero_extendqisi2
 2144 0010 43B1     		cbz	r3, .L195
1280:Generated_Source\PSoC5/PowerMonitor_1.c ****         }
 2145              		.loc 1 1280 0
 2146 0012 00EB4000 		add	r0, r0, r0, lsl #1
 2147 0016 C300     		lsls	r3, r0, #3
 2148 0018 044A     		ldr	r2, .L196+4
 2149 001a 1344     		add	r3, r3, r2
 2150 001c 5869     		ldr	r0, [r3, #20]	@ float
 2151              	.LVL183:
 2152 001e 7047     		bx	lr
 2153              	.LVL184:
 2154              	.L194:
1273:Generated_Source\PSoC5/PowerMonitor_1.c **** 
 2155              		.loc 1 1273 0
 2156 0020 0020     		movs	r0, #0
 2157              	.LVL185:
 2158 0022 7047     		bx	lr
 2159              	.L195:
 2160 0024 0020     		movs	r0, #0
 2161              	.LVL186:
1285:Generated_Source\PSoC5/PowerMonitor_1.c **** 
 2162              		.loc 1 1285 0
 2163 0026 7047     		bx	lr
 2164              	.L197:
 2165              		.align	2
 2166              	.L196:
 2167 0028 00000000 		.word	.LANCHOR0
 2168 002c 00000000 		.word	PowerMonitor_1_faultWin
 2169              		.cfi_endproc
 2170              	.LFE35:
 2171              		.size	PowerMonitor_1_GetOCFaultThreshold, .-PowerMonitor_1_GetOCFaultThreshold
ARM GAS  C:\Users\user\AppData\Local\Temp\ccywx0XT.s 			page 74


 2172              		.global	__aeabi_fcmplt
 2173              		.global	__aeabi_f2uiz
 2174              		.section	.text.PowerMonitor_1_GetConverterVoltage,"ax",%progbits
 2175              		.align	2
 2176              		.global	PowerMonitor_1_GetConverterVoltage
 2177              		.thumb
 2178              		.thumb_func
 2179              		.type	PowerMonitor_1_GetConverterVoltage, %function
 2180              	PowerMonitor_1_GetConverterVoltage:
 2181              	.LFB36:
1308:Generated_Source\PSoC5/PowerMonitor_1.c ****     float retval = 0.0f;
 2182              		.loc 1 1308 0
 2183              		.cfi_startproc
 2184              		@ args = 0, pretend = 0, frame = 0
 2185              		@ frame_needed = 0, uses_anonymous_args = 0
 2186              	.LVL187:
 2187 0000 10B5     		push	{r4, lr}
 2188              		.cfi_def_cfa_offset 8
 2189              		.cfi_offset 4, -8
 2190              		.cfi_offset 14, -4
 2191 0002 0446     		mov	r4, r0
 2192              	.LVL188:
1311:Generated_Source\PSoC5/PowerMonitor_1.c ****     {
 2193              		.loc 1 1311 0
 2194 0004 0138     		subs	r0, r0, #1
 2195              	.LVL189:
 2196 0006 C0B2     		uxtb	r0, r0
 2197 0008 0128     		cmp	r0, #1
 2198 000a 0ED8     		bhi	.L201
1314:Generated_Source\PSoC5/PowerMonitor_1.c ****         retval /= PowerMonitor_1_VoltageScale[converterNum - 1];
 2199              		.loc 1 1314 0
 2200 000c 0021     		movs	r1, #0
 2201 000e FFF7FEFF 		bl	PowerMonitor_1_GetMeasuredVal
 2202              	.LVL190:
1315:Generated_Source\PSoC5/PowerMonitor_1.c ****         retval += 0.5f;                                      /* Ret rounded-off integer  */
 2203              		.loc 1 1315 0
 2204 0012 013C     		subs	r4, r4, #1
 2205 0014 0B4B     		ldr	r3, .L204
 2206 0016 53F82410 		ldr	r1, [r3, r4, lsl #2]	@ float
 2207 001a FFF7FEFF 		bl	__aeabi_fdiv
 2208              	.LVL191:
1316:Generated_Source\PSoC5/PowerMonitor_1.c ****     }
 2209              		.loc 1 1316 0
 2210 001e 4FF07C51 		mov	r1, #1056964608
 2211 0022 FFF7FEFF 		bl	__aeabi_fadd
 2212              	.LVL192:
 2213 0026 0446     		mov	r4, r0
 2214              	.LVL193:
 2215 0028 00E0     		b	.L199
 2216              	.LVL194:
 2217              	.L201:
1309:Generated_Source\PSoC5/PowerMonitor_1.c **** 
 2218              		.loc 1 1309 0
 2219 002a 0024     		movs	r4, #0
 2220              	.LVL195:
 2221              	.L199:
1318:Generated_Source\PSoC5/PowerMonitor_1.c ****     {
ARM GAS  C:\Users\user\AppData\Local\Temp\ccywx0XT.s 			page 75


 2222              		.loc 1 1318 0
 2223 002c 0021     		movs	r1, #0
 2224 002e 2046     		mov	r0, r4
 2225 0030 FFF7FEFF 		bl	__aeabi_fcmplt
 2226              	.LVL196:
 2227 0034 00B1     		cbz	r0, .L200
1320:Generated_Source\PSoC5/PowerMonitor_1.c ****     }
 2228              		.loc 1 1320 0
 2229 0036 0024     		movs	r4, #0
 2230              	.LVL197:
 2231              	.L200:
1322:Generated_Source\PSoC5/PowerMonitor_1.c **** }
 2232              		.loc 1 1322 0
 2233 0038 2046     		mov	r0, r4
 2234 003a FFF7FEFF 		bl	__aeabi_f2uiz
 2235              	.LVL198:
1323:Generated_Source\PSoC5/PowerMonitor_1.c **** 
 2236              		.loc 1 1323 0
 2237 003e 80B2     		uxth	r0, r0
 2238 0040 10BD     		pop	{r4, pc}
 2239              	.LVL199:
 2240              	.L205:
 2241 0042 00BF     		.align	2
 2242              	.L204:
 2243 0044 00000000 		.word	.LANCHOR0
 2244              		.cfi_endproc
 2245              	.LFE36:
 2246              		.size	PowerMonitor_1_GetConverterVoltage, .-PowerMonitor_1_GetConverterVoltage
 2247              		.section	.text.PowerMonitor_1_GetConverterCurrent,"ax",%progbits
 2248              		.align	2
 2249              		.global	PowerMonitor_1_GetConverterCurrent
 2250              		.thumb
 2251              		.thumb_func
 2252              		.type	PowerMonitor_1_GetConverterCurrent, %function
 2253              	PowerMonitor_1_GetConverterCurrent:
 2254              	.LFB37:
1345:Generated_Source\PSoC5/PowerMonitor_1.c ****     float retval = 0.0f;
 2255              		.loc 1 1345 0
 2256              		.cfi_startproc
 2257              		@ args = 0, pretend = 0, frame = 0
 2258              		@ frame_needed = 0, uses_anonymous_args = 0
 2259              	.LVL200:
 2260 0000 38B5     		push	{r3, r4, r5, lr}
 2261              		.cfi_def_cfa_offset 16
 2262              		.cfi_offset 3, -16
 2263              		.cfi_offset 4, -12
 2264              		.cfi_offset 5, -8
 2265              		.cfi_offset 14, -4
 2266              	.LVL201:
1348:Generated_Source\PSoC5/PowerMonitor_1.c ****     {
 2267              		.loc 1 1348 0
 2268 0002 431E     		subs	r3, r0, #1
 2269 0004 DBB2     		uxtb	r3, r3
 2270 0006 012B     		cmp	r3, #1
 2271 0008 23D8     		bhi	.L209
 2272 000a 0446     		mov	r4, r0
1352:Generated_Source\PSoC5/PowerMonitor_1.c ****             /* Convert pin voltage to current */
ARM GAS  C:\Users\user\AppData\Local\Temp\ccywx0XT.s 			page 76


 2273              		.loc 1 1352 0
 2274 000c 0121     		movs	r1, #1
 2275 000e 1846     		mov	r0, r3
 2276              	.LVL202:
 2277 0010 FFF7FEFF 		bl	PowerMonitor_1_GetMeasuredVal
 2278              	.LVL203:
 2279 0014 0546     		mov	r5, r0
 2280              	.LVL204:
1354:Generated_Source\PSoC5/PowerMonitor_1.c ****             {
 2281              		.loc 1 1354 0
 2282 0016 601E     		subs	r0, r4, #1
 2283              	.LVL205:
 2284 0018 0F4B     		ldr	r3, .L211
 2285 001a 0344     		add	r3, r3, r0
 2286 001c 1B7A     		ldrb	r3, [r3, #8]	@ zero_extendqisi2
 2287 001e 012B     		cmp	r3, #1
 2288 0020 08D1     		bne	.L208
1356:Generated_Source\PSoC5/PowerMonitor_1.c ****             }
 2289              		.loc 1 1356 0
 2290 0022 0D4B     		ldr	r3, .L211
 2291 0024 03EB8000 		add	r0, r3, r0, lsl #2
 2292 0028 4169     		ldr	r1, [r0, #20]	@ float
 2293 002a 2846     		mov	r0, r5
 2294 002c FFF7FEFF 		bl	__aeabi_fdiv
 2295              	.LVL206:
 2296 0030 0546     		mov	r5, r0
 2297              	.LVL207:
 2298 0032 0FE0     		b	.L207
 2299              	.LVL208:
 2300              	.L208:
1358:Generated_Source\PSoC5/PowerMonitor_1.c ****             {
 2301              		.loc 1 1358 0
 2302 0034 022B     		cmp	r3, #2
 2303 0036 0DD1     		bne	.L207
1360:Generated_Source\PSoC5/PowerMonitor_1.c ****             }
 2304              		.loc 1 1360 0
 2305 0038 074B     		ldr	r3, .L211
 2306 003a 03EB8000 		add	r0, r3, r0, lsl #2
 2307 003e 4169     		ldr	r1, [r0, #20]	@ float
 2308 0040 C068     		ldr	r0, [r0, #12]	@ float
 2309 0042 FFF7FEFF 		bl	__aeabi_fmul
 2310              	.LVL209:
 2311 0046 0146     		mov	r1, r0
 2312 0048 2846     		mov	r0, r5
 2313 004a FFF7FEFF 		bl	__aeabi_fdiv
 2314              	.LVL210:
 2315 004e 0546     		mov	r5, r0
 2316              	.LVL211:
 2317 0050 00E0     		b	.L207
 2318              	.LVL212:
 2319              	.L209:
1346:Generated_Source\PSoC5/PowerMonitor_1.c **** 
 2320              		.loc 1 1346 0
 2321 0052 0025     		movs	r5, #0
 2322              	.LVL213:
 2323              	.L207:
1369:Generated_Source\PSoC5/PowerMonitor_1.c **** 
ARM GAS  C:\Users\user\AppData\Local\Temp\ccywx0XT.s 			page 77


 2324              		.loc 1 1369 0
 2325 0054 2846     		mov	r0, r5
 2326 0056 38BD     		pop	{r3, r4, r5, pc}
 2327              	.LVL214:
 2328              	.L212:
 2329              		.align	2
 2330              	.L211:
 2331 0058 00000000 		.word	.LANCHOR0
 2332              		.cfi_endproc
 2333              	.LFE37:
 2334              		.size	PowerMonitor_1_GetConverterCurrent, .-PowerMonitor_1_GetConverterCurrent
 2335              		.section	.text.PowerMonitor_1_GetAuxiliaryVoltage,"ax",%progbits
 2336              		.align	2
 2337              		.global	PowerMonitor_1_GetAuxiliaryVoltage
 2338              		.thumb
 2339              		.thumb_func
 2340              		.type	PowerMonitor_1_GetAuxiliaryVoltage, %function
 2341              	PowerMonitor_1_GetAuxiliaryVoltage:
 2342              	.LFB38:
1388:Generated_Source\PSoC5/PowerMonitor_1.c ****     float retval = 0.0f;
 2343              		.loc 1 1388 0
 2344              		.cfi_startproc
 2345              		@ args = 0, pretend = 0, frame = 0
 2346              		@ frame_needed = 0, uses_anonymous_args = 0
 2347              		@ link register save eliminated.
 2348              	.LVL215:
1430:Generated_Source\PSoC5/PowerMonitor_1.c **** 
 2349              		.loc 1 1430 0
 2350 0000 0020     		movs	r0, #0
 2351              	.LVL216:
 2352 0002 7047     		bx	lr
 2353              		.cfi_endproc
 2354              	.LFE38:
 2355              		.size	PowerMonitor_1_GetAuxiliaryVoltage, .-PowerMonitor_1_GetAuxiliaryVoltage
 2356              		.global	PowerMonitor_1_ActiveCurrentChan
 2357              		.global	PowerMonitor_1_CSAGain
 2358              		.global	PowerMonitor_1_RShunt
 2359              		.global	PowerMonitor_1_OCFaultThreshold
 2360              		.global	PowerMonitor_1_OCWarnThreshold
 2361              		.global	PowerMonitor_1_CurrentType
 2362              		.global	PowerMonitor_1_VoltageScale
 2363              		.global	PowerMonitor_1_OVFaultThreshold
 2364              		.global	PowerMonitor_1_UVFaultThreshold
 2365              		.global	PowerMonitor_1_OVWarnThreshold
 2366              		.global	PowerMonitor_1_UVWarnThreshold
 2367              		.global	PowerMonitor_1_VoltageType
 2368              		.global	PowerMonitor_1_OVFaultStatus
 2369              		.global	PowerMonitor_1_UVFaultStatus
 2370              		.global	PowerMonitor_1_OCFaultStatus
 2371              		.global	PowerMonitor_1_OVWarnStatus
 2372              		.global	PowerMonitor_1_UVWarnStatus
 2373              		.global	PowerMonitor_1_OCWarnStatus
 2374              		.global	PowerMonitor_1_faultSourceStatus
 2375              		.global	PowerMonitor_1_warnSourceStatus
 2376              		.comm	PowerMonitor_1_faultSources,1,1
 2377              		.comm	PowerMonitor_1_warnSources,1,1
 2378              		.comm	PowerMonitor_1_warnEnable,1,1
ARM GAS  C:\Users\user\AppData\Local\Temp\ccywx0XT.s 			page 78


 2379              		.comm	PowerMonitor_1_faultEnable,1,1
 2380              		.comm	PowerMonitor_1_warnMask,4,4
 2381              		.comm	PowerMonitor_1_faultMask,4,4
 2382              		.global	PowerMonitor_1_initThreshold
 2383              		.global	PowerMonitor_1_initVar
 2384              		.data
 2385              		.align	2
 2386              		.set	.LANCHOR0,. + 0
 2387              		.type	PowerMonitor_1_VoltageScale, %object
 2388              		.size	PowerMonitor_1_VoltageScale, 8
 2389              	PowerMonitor_1_VoltageScale:
 2390 0000 0000803F 		.word	1065353216
 2391 0004 0000803F 		.word	1065353216
 2392              		.type	PowerMonitor_1_CurrentType, %object
 2393              		.size	PowerMonitor_1_CurrentType, 2
 2394              	PowerMonitor_1_CurrentType:
 2395 0008 01       		.byte	1
 2396 0009 01       		.byte	1
 2397 000a 0000     		.space	2
 2398              		.type	PowerMonitor_1_CSAGain, %object
 2399              		.size	PowerMonitor_1_CSAGain, 8
 2400              	PowerMonitor_1_CSAGain:
 2401 000c 00002041 		.word	1092616192
 2402 0010 00002041 		.word	1092616192
 2403              		.type	PowerMonitor_1_RShunt, %object
 2404              		.size	PowerMonitor_1_RShunt, 8
 2405              	PowerMonitor_1_RShunt:
 2406 0014 00002041 		.word	1092616192
 2407 0018 00002041 		.word	1092616192
 2408              		.type	PowerMonitor_1_OVFaultThreshold, %object
 2409              		.size	PowerMonitor_1_OVFaultThreshold, 4
 2410              	PowerMonitor_1_OVFaultThreshold:
 2411 001c B80B     		.short	3000
 2412 001e B80B     		.short	3000
 2413              		.type	PowerMonitor_1_OVWarnThreshold, %object
 2414              		.size	PowerMonitor_1_OVWarnThreshold, 4
 2415              	PowerMonitor_1_OVWarnThreshold:
 2416 0020 090B     		.short	2825
 2417 0022 090B     		.short	2825
 2418              		.type	PowerMonitor_1_UVWarnThreshold, %object
 2419              		.size	PowerMonitor_1_UVWarnThreshold, 4
 2420              	PowerMonitor_1_UVWarnThreshold:
 2421 0024 A406     		.short	1700
 2422 0026 A406     		.short	1700
 2423              		.type	PowerMonitor_1_UVFaultThreshold, %object
 2424              		.size	PowerMonitor_1_UVFaultThreshold, 4
 2425              	PowerMonitor_1_UVFaultThreshold:
 2426 0028 EE02     		.short	750
 2427 002a EE02     		.short	750
 2428              		.type	PowerMonitor_1_OCFaultThreshold, %object
 2429              		.size	PowerMonitor_1_OCFaultThreshold, 8
 2430              	PowerMonitor_1_OCFaultThreshold:
 2431 002c 00000040 		.word	1073741824
 2432 0030 00000040 		.word	1073741824
 2433              		.type	PowerMonitor_1_OCWarnThreshold, %object
 2434              		.size	PowerMonitor_1_OCWarnThreshold, 8
 2435              	PowerMonitor_1_OCWarnThreshold:
ARM GAS  C:\Users\user\AppData\Local\Temp\ccywx0XT.s 			page 79


 2436 0034 00001041 		.word	1091567616
 2437 0038 00001041 		.word	1091567616
 2438              		.type	PowerMonitor_1_ActiveCurrentChan, %object
 2439              		.size	PowerMonitor_1_ActiveCurrentChan, 2
 2440              	PowerMonitor_1_ActiveCurrentChan:
 2441 003c 01       		.byte	1
 2442 003d 02       		.byte	2
 2443              		.bss
 2444              		.align	2
 2445              		.set	.LANCHOR1,. + 0
 2446              		.type	PowerMonitor_1_VoltageType, %object
 2447              		.size	PowerMonitor_1_VoltageType, 2
 2448              	PowerMonitor_1_VoltageType:
 2449 0000 0000     		.space	2
 2450              		.type	PowerMonitor_1_faultSourceStatus, %object
 2451              		.size	PowerMonitor_1_faultSourceStatus, 1
 2452              	PowerMonitor_1_faultSourceStatus:
 2453 0002 00       		.space	1
 2454 0003 00       		.space	1
 2455              		.type	PowerMonitor_1_OVFaultStatus, %object
 2456              		.size	PowerMonitor_1_OVFaultStatus, 4
 2457              	PowerMonitor_1_OVFaultStatus:
 2458 0004 00000000 		.space	4
 2459              		.type	PowerMonitor_1_UVFaultStatus, %object
 2460              		.size	PowerMonitor_1_UVFaultStatus, 4
 2461              	PowerMonitor_1_UVFaultStatus:
 2462 0008 00000000 		.space	4
 2463              		.type	PowerMonitor_1_OCFaultStatus, %object
 2464              		.size	PowerMonitor_1_OCFaultStatus, 4
 2465              	PowerMonitor_1_OCFaultStatus:
 2466 000c 00000000 		.space	4
 2467              		.type	PowerMonitor_1_warnSourceStatus, %object
 2468              		.size	PowerMonitor_1_warnSourceStatus, 1
 2469              	PowerMonitor_1_warnSourceStatus:
 2470 0010 00       		.space	1
 2471 0011 000000   		.space	3
 2472              		.type	PowerMonitor_1_OVWarnStatus, %object
 2473              		.size	PowerMonitor_1_OVWarnStatus, 4
 2474              	PowerMonitor_1_OVWarnStatus:
 2475 0014 00000000 		.space	4
 2476              		.type	PowerMonitor_1_UVWarnStatus, %object
 2477              		.size	PowerMonitor_1_UVWarnStatus, 4
 2478              	PowerMonitor_1_UVWarnStatus:
 2479 0018 00000000 		.space	4
 2480              		.type	PowerMonitor_1_OCWarnStatus, %object
 2481              		.size	PowerMonitor_1_OCWarnStatus, 4
 2482              	PowerMonitor_1_OCWarnStatus:
 2483 001c 00000000 		.space	4
 2484              		.type	PowerMonitor_1_initThreshold, %object
 2485              		.size	PowerMonitor_1_initThreshold, 1
 2486              	PowerMonitor_1_initThreshold:
 2487 0020 00       		.space	1
 2488              		.type	PowerMonitor_1_initVar, %object
 2489              		.size	PowerMonitor_1_initVar, 1
 2490              	PowerMonitor_1_initVar:
 2491 0021 00       		.space	1
 2492              		.text
ARM GAS  C:\Users\user\AppData\Local\Temp\ccywx0XT.s 			page 80


 2493              	.Letext0:
 2494              		.file 2 "Generated_Source\\PSoC5\\cytypes.h"
 2495              		.file 3 "Generated_Source\\PSoC5\\PowerMonitor_1.h"
 2496              		.file 4 "Generated_Source\\PSoC5\\PowerMonitor_1_PM_AMux_Voltage.h"
 2497              		.file 5 "Generated_Source\\PSoC5\\PowerMonitor_1_PM_AMux_Current.h"
 2498              		.file 6 "Generated_Source\\PSoC5\\PowerMonitor_1_PGA.h"
 2499              		.file 7 "Generated_Source\\PSoC5\\PowerMonitor_1_ADC.h"
 2500              		.section	.debug_info,"",%progbits
 2501              	.Ldebug_info0:
 2502 0000 03100000 		.4byte	0x1003
 2503 0004 0400     		.2byte	0x4
 2504 0006 00000000 		.4byte	.Ldebug_abbrev0
 2505 000a 04       		.byte	0x4
 2506 000b 01       		.uleb128 0x1
 2507 000c 38040000 		.4byte	.LASF165
 2508 0010 0C       		.byte	0xc
 2509 0011 E1070000 		.4byte	.LASF166
 2510 0015 6F020000 		.4byte	.LASF167
 2511 0019 00000000 		.4byte	.Ldebug_ranges0+0
 2512 001d 00000000 		.4byte	0
 2513 0021 00000000 		.4byte	.Ldebug_line0
 2514 0025 02       		.uleb128 0x2
 2515 0026 04       		.byte	0x4
 2516 0027 04       		.byte	0x4
 2517 0028 3F020000 		.4byte	.LASF0
 2518 002c 02       		.uleb128 0x2
 2519 002d 01       		.byte	0x1
 2520 002e 06       		.byte	0x6
 2521 002f 350E0000 		.4byte	.LASF1
 2522 0033 02       		.uleb128 0x2
 2523 0034 01       		.byte	0x1
 2524 0035 08       		.byte	0x8
 2525 0036 AE0C0000 		.4byte	.LASF2
 2526 003a 02       		.uleb128 0x2
 2527 003b 02       		.byte	0x2
 2528 003c 05       		.byte	0x5
 2529 003d 540A0000 		.4byte	.LASF3
 2530 0041 02       		.uleb128 0x2
 2531 0042 02       		.byte	0x2
 2532 0043 07       		.byte	0x7
 2533 0044 410E0000 		.4byte	.LASF4
 2534 0048 02       		.uleb128 0x2
 2535 0049 04       		.byte	0x4
 2536 004a 05       		.byte	0x5
 2537 004b 5E0A0000 		.4byte	.LASF5
 2538 004f 02       		.uleb128 0x2
 2539 0050 04       		.byte	0x4
 2540 0051 07       		.byte	0x7
 2541 0052 080C0000 		.4byte	.LASF6
 2542 0056 02       		.uleb128 0x2
 2543 0057 08       		.byte	0x8
 2544 0058 05       		.byte	0x5
 2545 0059 B0070000 		.4byte	.LASF7
 2546 005d 02       		.uleb128 0x2
 2547 005e 08       		.byte	0x8
 2548 005f 07       		.byte	0x7
 2549 0060 27030000 		.4byte	.LASF8
ARM GAS  C:\Users\user\AppData\Local\Temp\ccywx0XT.s 			page 81


 2550 0064 03       		.uleb128 0x3
 2551 0065 04       		.byte	0x4
 2552 0066 05       		.byte	0x5
 2553 0067 696E7400 		.ascii	"int\000"
 2554 006b 02       		.uleb128 0x2
 2555 006c 04       		.byte	0x4
 2556 006d 07       		.byte	0x7
 2557 006e A3000000 		.4byte	.LASF9
 2558 0072 04       		.uleb128 0x4
 2559 0073 9D0E0000 		.4byte	.LASF10
 2560 0077 02       		.byte	0x2
 2561 0078 9201     		.2byte	0x192
 2562 007a 33000000 		.4byte	0x33
 2563 007e 04       		.uleb128 0x4
 2564 007f D4060000 		.4byte	.LASF11
 2565 0083 02       		.byte	0x2
 2566 0084 9301     		.2byte	0x193
 2567 0086 41000000 		.4byte	0x41
 2568 008a 04       		.uleb128 0x4
 2569 008b 8F080000 		.4byte	.LASF12
 2570 008f 02       		.byte	0x2
 2571 0090 9401     		.2byte	0x194
 2572 0092 4F000000 		.4byte	0x4f
 2573 0096 04       		.uleb128 0x4
 2574 0097 D9000000 		.4byte	.LASF13
 2575 009b 02       		.byte	0x2
 2576 009c 9601     		.2byte	0x196
 2577 009e 3A000000 		.4byte	0x3a
 2578 00a2 04       		.uleb128 0x4
 2579 00a3 45020000 		.4byte	.LASF14
 2580 00a7 02       		.byte	0x2
 2581 00a8 9701     		.2byte	0x197
 2582 00aa 48000000 		.4byte	0x48
 2583 00ae 02       		.uleb128 0x2
 2584 00af 08       		.byte	0x8
 2585 00b0 04       		.byte	0x4
 2586 00b1 A30E0000 		.4byte	.LASF15
 2587 00b5 02       		.uleb128 0x2
 2588 00b6 01       		.byte	0x1
 2589 00b7 08       		.byte	0x8
 2590 00b8 8D060000 		.4byte	.LASF16
 2591 00bc 05       		.uleb128 0x5
 2592 00bd 72000000 		.4byte	0x72
 2593 00c1 04       		.uleb128 0x4
 2594 00c2 DB090000 		.4byte	.LASF17
 2595 00c6 02       		.byte	0x2
 2596 00c7 3E02     		.2byte	0x23e
 2597 00c9 CD000000 		.4byte	0xcd
 2598 00cd 05       		.uleb128 0x5
 2599 00ce 8A000000 		.4byte	0x8a
 2600 00d2 02       		.uleb128 0x2
 2601 00d3 08       		.byte	0x8
 2602 00d4 04       		.byte	0x4
 2603 00d5 AF090000 		.4byte	.LASF18
 2604 00d9 02       		.uleb128 0x2
 2605 00da 04       		.byte	0x4
 2606 00db 07       		.byte	0x7
ARM GAS  C:\Users\user\AppData\Local\Temp\ccywx0XT.s 			page 82


 2607 00dc DC0B0000 		.4byte	.LASF19
 2608 00e0 06       		.uleb128 0x6
 2609 00e1 08       		.byte	0x8
 2610 00e2 03       		.byte	0x3
 2611 00e3 2E       		.byte	0x2e
 2612 00e4 01010000 		.4byte	0x101
 2613 00e8 07       		.uleb128 0x7
 2614 00e9 69647800 		.ascii	"idx\000"
 2615 00ed 03       		.byte	0x3
 2616 00ee 30       		.byte	0x30
 2617 00ef BC000000 		.4byte	0xbc
 2618 00f3 00       		.byte	0
 2619 00f4 08       		.uleb128 0x8
 2620 00f5 A60C0000 		.4byte	.LASF20
 2621 00f9 03       		.byte	0x3
 2622 00fa 31       		.byte	0x31
 2623 00fb 01010000 		.4byte	0x101
 2624 00ff 04       		.byte	0x4
 2625 0100 00       		.byte	0
 2626 0101 05       		.uleb128 0x5
 2627 0102 A2000000 		.4byte	0xa2
 2628 0106 09       		.uleb128 0x9
 2629 0107 B1010000 		.4byte	.LASF21
 2630 010b 03       		.byte	0x3
 2631 010c 32       		.byte	0x32
 2632 010d E0000000 		.4byte	0xe0
 2633 0111 06       		.uleb128 0x6
 2634 0112 18       		.byte	0x18
 2635 0113 03       		.byte	0x3
 2636 0114 39       		.byte	0x39
 2637 0115 6E010000 		.4byte	0x16e
 2638 0119 08       		.uleb128 0x8
 2639 011a ED030000 		.4byte	.LASF22
 2640 011e 03       		.byte	0x3
 2641 011f 3B       		.byte	0x3b
 2642 0120 72000000 		.4byte	0x72
 2643 0124 00       		.byte	0
 2644 0125 08       		.uleb128 0x8
 2645 0126 7A030000 		.4byte	.LASF23
 2646 012a 03       		.byte	0x3
 2647 012b 3C       		.byte	0x3c
 2648 012c A2000000 		.4byte	0xa2
 2649 0130 04       		.byte	0x4
 2650 0131 08       		.uleb128 0x8
 2651 0132 9F050000 		.4byte	.LASF24
 2652 0136 03       		.byte	0x3
 2653 0137 3D       		.byte	0x3d
 2654 0138 A2000000 		.4byte	0xa2
 2655 013c 08       		.byte	0x8
 2656 013d 08       		.uleb128 0x8
 2657 013e 380F0000 		.4byte	.LASF25
 2658 0142 03       		.byte	0x3
 2659 0143 3E       		.byte	0x3e
 2660 0144 A2000000 		.4byte	0xa2
 2661 0148 0C       		.byte	0xc
 2662 0149 08       		.uleb128 0x8
 2663 014a 2E0C0000 		.4byte	.LASF26
ARM GAS  C:\Users\user\AppData\Local\Temp\ccywx0XT.s 			page 83


 2664 014e 03       		.byte	0x3
 2665 014f 3F       		.byte	0x3f
 2666 0150 7E000000 		.4byte	0x7e
 2667 0154 10       		.byte	0x10
 2668 0155 08       		.uleb128 0x8
 2669 0156 E1090000 		.4byte	.LASF27
 2670 015a 03       		.byte	0x3
 2671 015b 40       		.byte	0x40
 2672 015c 7E000000 		.4byte	0x7e
 2673 0160 12       		.byte	0x12
 2674 0161 08       		.uleb128 0x8
 2675 0162 96080000 		.4byte	.LASF28
 2676 0166 03       		.byte	0x3
 2677 0167 41       		.byte	0x41
 2678 0168 25000000 		.4byte	0x25
 2679 016c 14       		.byte	0x14
 2680 016d 00       		.byte	0
 2681 016e 09       		.uleb128 0x9
 2682 016f 0F0D0000 		.4byte	.LASF29
 2683 0173 03       		.byte	0x3
 2684 0174 42       		.byte	0x42
 2685 0175 11010000 		.4byte	0x111
 2686 0179 06       		.uleb128 0x6
 2687 017a 18       		.byte	0x18
 2688 017b 03       		.byte	0x3
 2689 017c 46       		.byte	0x46
 2690 017d D6010000 		.4byte	0x1d6
 2691 0181 08       		.uleb128 0x8
 2692 0182 ED030000 		.4byte	.LASF22
 2693 0186 03       		.byte	0x3
 2694 0187 48       		.byte	0x48
 2695 0188 72000000 		.4byte	0x72
 2696 018c 00       		.byte	0
 2697 018d 08       		.uleb128 0x8
 2698 018e 730E0000 		.4byte	.LASF30
 2699 0192 03       		.byte	0x3
 2700 0193 49       		.byte	0x49
 2701 0194 A2000000 		.4byte	0xa2
 2702 0198 04       		.byte	0x4
 2703 0199 08       		.uleb128 0x8
 2704 019a 70000000 		.4byte	.LASF31
 2705 019e 03       		.byte	0x3
 2706 019f 4A       		.byte	0x4a
 2707 01a0 A2000000 		.4byte	0xa2
 2708 01a4 08       		.byte	0x8
 2709 01a5 08       		.uleb128 0x8
 2710 01a6 A20A0000 		.4byte	.LASF32
 2711 01aa 03       		.byte	0x3
 2712 01ab 4B       		.byte	0x4b
 2713 01ac A2000000 		.4byte	0xa2
 2714 01b0 0C       		.byte	0xc
 2715 01b1 08       		.uleb128 0x8
 2716 01b2 8E0A0000 		.4byte	.LASF33
 2717 01b6 03       		.byte	0x3
 2718 01b7 4C       		.byte	0x4c
 2719 01b8 7E000000 		.4byte	0x7e
 2720 01bc 10       		.byte	0x10
ARM GAS  C:\Users\user\AppData\Local\Temp\ccywx0XT.s 			page 84


 2721 01bd 08       		.uleb128 0x8
 2722 01be 1A0C0000 		.4byte	.LASF34
 2723 01c2 03       		.byte	0x3
 2724 01c3 4D       		.byte	0x4d
 2725 01c4 7E000000 		.4byte	0x7e
 2726 01c8 12       		.byte	0x12
 2727 01c9 08       		.uleb128 0x8
 2728 01ca BF020000 		.4byte	.LASF35
 2729 01ce 03       		.byte	0x3
 2730 01cf 4E       		.byte	0x4e
 2731 01d0 25000000 		.4byte	0x25
 2732 01d4 14       		.byte	0x14
 2733 01d5 00       		.byte	0
 2734 01d6 09       		.uleb128 0x9
 2735 01d7 830D0000 		.4byte	.LASF36
 2736 01db 03       		.byte	0x3
 2737 01dc 4F       		.byte	0x4f
 2738 01dd 79010000 		.4byte	0x179
 2739 01e1 0A       		.uleb128 0xa
 2740 01e2 57090000 		.4byte	.LASF41
 2741 01e6 01       		.byte	0x1
 2742 01e7 CA05     		.2byte	0x5ca
 2743 01e9 A2000000 		.4byte	0xa2
 2744 01ed 00000000 		.4byte	.LFB40
 2745 01f1 A8000000 		.4byte	.LFE40-.LFB40
 2746 01f5 01       		.uleb128 0x1
 2747 01f6 9C       		.byte	0x9c
 2748 01f7 4B020000 		.4byte	0x24b
 2749 01fb 0B       		.uleb128 0xb
 2750 01fc 6D5600   		.ascii	"mV\000"
 2751 01ff 01       		.byte	0x1
 2752 0200 CA05     		.2byte	0x5ca
 2753 0202 7E000000 		.4byte	0x7e
 2754 0206 00000000 		.4byte	.LLST0
 2755 020a 0C       		.uleb128 0xc
 2756 020b 88060000 		.4byte	.LASF37
 2757 020f 01       		.byte	0x1
 2758 0210 CA05     		.2byte	0x5ca
 2759 0212 72000000 		.4byte	0x72
 2760 0216 21000000 		.4byte	.LLST1
 2761 021a 0C       		.uleb128 0xc
 2762 021b 580D0000 		.4byte	.LASF38
 2763 021f 01       		.byte	0x1
 2764 0220 CA05     		.2byte	0x5ca
 2765 0222 4B020000 		.4byte	0x24b
 2766 0226 42000000 		.4byte	.LLST2
 2767 022a 0D       		.uleb128 0xd
 2768 022b DF000000 		.4byte	.LASF39
 2769 022f 01       		.byte	0x1
 2770 0230 CD05     		.2byte	0x5cd
 2771 0232 25000000 		.4byte	0x25
 2772 0236 6E000000 		.4byte	.LLST3
 2773 023a 0D       		.uleb128 0xd
 2774 023b 50090000 		.4byte	.LASF40
 2775 023f 01       		.byte	0x1
 2776 0240 CE05     		.2byte	0x5ce
 2777 0242 25000000 		.4byte	0x25
ARM GAS  C:\Users\user\AppData\Local\Temp\ccywx0XT.s 			page 85


 2778 0246 CE000000 		.4byte	.LLST4
 2779 024a 00       		.byte	0
 2780 024b 0E       		.uleb128 0xe
 2781 024c 04       		.byte	0x4
 2782 024d 72000000 		.4byte	0x72
 2783 0251 0A       		.uleb128 0xa
 2784 0252 6F060000 		.4byte	.LASF42
 2785 0256 01       		.byte	0x1
 2786 0257 0906     		.2byte	0x609
 2787 0259 A2000000 		.4byte	0xa2
 2788 025d 00000000 		.4byte	.LFB41
 2789 0261 C8000000 		.4byte	.LFE41-.LFB41
 2790 0265 01       		.uleb128 0x1
 2791 0266 9C       		.byte	0x9c
 2792 0267 BC020000 		.4byte	0x2bc
 2793 026b 0C       		.uleb128 0xc
 2794 026c 880E0000 		.4byte	.LASF43
 2795 0270 01       		.byte	0x1
 2796 0271 0906     		.2byte	0x609
 2797 0273 25000000 		.4byte	0x25
 2798 0277 0C010000 		.4byte	.LLST5
 2799 027b 0C       		.uleb128 0xc
 2800 027c 88060000 		.4byte	.LASF37
 2801 0280 01       		.byte	0x1
 2802 0281 0906     		.2byte	0x609
 2803 0283 72000000 		.4byte	0x72
 2804 0287 A1010000 		.4byte	.LLST6
 2805 028b 0C       		.uleb128 0xc
 2806 028c 580D0000 		.4byte	.LASF38
 2807 0290 01       		.byte	0x1
 2808 0291 0906     		.2byte	0x609
 2809 0293 4B020000 		.4byte	0x24b
 2810 0297 DB010000 		.4byte	.LLST7
 2811 029b 0D       		.uleb128 0xd
 2812 029c DF000000 		.4byte	.LASF39
 2813 02a0 01       		.byte	0x1
 2814 02a1 0C06     		.2byte	0x60c
 2815 02a3 25000000 		.4byte	0x25
 2816 02a7 33020000 		.4byte	.LLST8
 2817 02ab 0D       		.uleb128 0xd
 2818 02ac 50090000 		.4byte	.LASF40
 2819 02b0 01       		.byte	0x1
 2820 02b1 0D06     		.2byte	0x60d
 2821 02b3 25000000 		.4byte	0x25
 2822 02b7 CF020000 		.4byte	.LLST9
 2823 02bb 00       		.byte	0
 2824 02bc 0A       		.uleb128 0xa
 2825 02bd 610C0000 		.4byte	.LASF44
 2826 02c1 01       		.byte	0x1
 2827 02c2 9E06     		.2byte	0x69e
 2828 02c4 25000000 		.4byte	0x25
 2829 02c8 00000000 		.4byte	.LFB43
 2830 02cc 60000000 		.4byte	.LFE43-.LFB43
 2831 02d0 01       		.uleb128 0x1
 2832 02d1 9C       		.byte	0x9c
 2833 02d2 07030000 		.4byte	0x307
 2834 02d6 0C       		.uleb128 0xc
ARM GAS  C:\Users\user\AppData\Local\Temp\ccywx0XT.s 			page 86


 2835 02d7 88060000 		.4byte	.LASF37
 2836 02db 01       		.byte	0x1
 2837 02dc 9E06     		.2byte	0x69e
 2838 02de 72000000 		.4byte	0x72
 2839 02e2 0D030000 		.4byte	.LLST10
 2840 02e6 0C       		.uleb128 0xc
 2841 02e7 B70A0000 		.4byte	.LASF45
 2842 02eb 01       		.byte	0x1
 2843 02ec 9E06     		.2byte	0x69e
 2844 02ee 72000000 		.4byte	0x72
 2845 02f2 60030000 		.4byte	.LLST11
 2846 02f6 0D       		.uleb128 0xd
 2847 02f7 6F070000 		.4byte	.LASF46
 2848 02fb 01       		.byte	0x1
 2849 02fc A006     		.2byte	0x6a0
 2850 02fe 25000000 		.4byte	0x25
 2851 0302 B3030000 		.4byte	.LLST12
 2852 0306 00       		.byte	0
 2853 0307 0F       		.uleb128 0xf
 2854 0308 FD0D0000 		.4byte	.LASF47
 2855 030c 01       		.byte	0x1
 2856 030d D006     		.2byte	0x6d0
 2857 030f 72000000 		.4byte	0x72
 2858 0313 00000000 		.4byte	.LFB44
 2859 0317 24000000 		.4byte	.LFE44-.LFB44
 2860 031b 01       		.uleb128 0x1
 2861 031c 9C       		.byte	0x9c
 2862 031d 50030000 		.4byte	0x350
 2863 0321 0C       		.uleb128 0xc
 2864 0322 88060000 		.4byte	.LASF37
 2865 0326 01       		.byte	0x1
 2866 0327 D006     		.2byte	0x6d0
 2867 0329 72000000 		.4byte	0x72
 2868 032d 22040000 		.4byte	.LLST13
 2869 0331 0D       		.uleb128 0xd
 2870 0332 00000000 		.4byte	.LASF48
 2871 0336 01       		.byte	0x1
 2872 0337 D206     		.2byte	0x6d2
 2873 0339 72000000 		.4byte	0x72
 2874 033d 43040000 		.4byte	.LLST14
 2875 0341 10       		.uleb128 0x10
 2876 0342 6900     		.ascii	"i\000"
 2877 0344 01       		.byte	0x1
 2878 0345 D306     		.2byte	0x6d3
 2879 0347 72000000 		.4byte	0x72
 2880 034b 62040000 		.4byte	.LLST15
 2881 034f 00       		.byte	0
 2882 0350 0A       		.uleb128 0xa
 2883 0351 92060000 		.4byte	.LASF49
 2884 0355 01       		.byte	0x1
 2885 0356 5206     		.2byte	0x652
 2886 0358 25000000 		.4byte	0x25
 2887 035c 00000000 		.4byte	.LFB42
 2888 0360 98000000 		.4byte	.LFE42-.LFB42
 2889 0364 01       		.uleb128 0x1
 2890 0365 9C       		.byte	0x9c
 2891 0366 DC030000 		.4byte	0x3dc
ARM GAS  C:\Users\user\AppData\Local\Temp\ccywx0XT.s 			page 87


 2892 036a 0C       		.uleb128 0xc
 2893 036b 88060000 		.4byte	.LASF37
 2894 036f 01       		.byte	0x1
 2895 0370 5206     		.2byte	0x652
 2896 0372 72000000 		.4byte	0x72
 2897 0376 8C040000 		.4byte	.LLST16
 2898 037a 0C       		.uleb128 0xc
 2899 037b B70A0000 		.4byte	.LASF45
 2900 037f 01       		.byte	0x1
 2901 0380 5206     		.2byte	0x652
 2902 0382 72000000 		.4byte	0x72
 2903 0386 C6040000 		.4byte	.LLST17
 2904 038a 0D       		.uleb128 0xd
 2905 038b 6F070000 		.4byte	.LASF46
 2906 038f 01       		.byte	0x1
 2907 0390 5506     		.2byte	0x655
 2908 0392 25000000 		.4byte	0x25
 2909 0396 00050000 		.4byte	.LLST18
 2910 039a 0D       		.uleb128 0xd
 2911 039b B9020000 		.4byte	.LASF50
 2912 039f 01       		.byte	0x1
 2913 03a0 5606     		.2byte	0x656
 2914 03a2 72000000 		.4byte	0x72
 2915 03a6 B1050000 		.4byte	.LLST19
 2916 03aa 11       		.uleb128 0x11
 2917 03ab 0E000000 		.4byte	.LVL67
 2918 03af 07030000 		.4byte	0x307
 2919 03b3 BE030000 		.4byte	0x3be
 2920 03b7 12       		.uleb128 0x12
 2921 03b8 01       		.uleb128 0x1
 2922 03b9 50       		.byte	0x50
 2923 03ba 02       		.uleb128 0x2
 2924 03bb 74       		.byte	0x74
 2925 03bc 00       		.sleb128 0
 2926 03bd 00       		.byte	0
 2927 03be 11       		.uleb128 0x11
 2928 03bf 1A000000 		.4byte	.LVL69
 2929 03c3 BC020000 		.4byte	0x2bc
 2930 03c7 D2030000 		.4byte	0x3d2
 2931 03cb 12       		.uleb128 0x12
 2932 03cc 01       		.uleb128 0x1
 2933 03cd 51       		.byte	0x51
 2934 03ce 02       		.uleb128 0x2
 2935 03cf 75       		.byte	0x75
 2936 03d0 00       		.sleb128 0
 2937 03d1 00       		.byte	0
 2938 03d2 13       		.uleb128 0x13
 2939 03d3 56000000 		.4byte	.LVL79
 2940 03d7 BC020000 		.4byte	0x2bc
 2941 03db 00       		.byte	0
 2942 03dc 14       		.uleb128 0x14
 2943 03dd 55060000 		.4byte	.LASF168
 2944 03e1 01       		.byte	0x1
 2945 03e2 A905     		.2byte	0x5a9
 2946 03e4 00000000 		.4byte	.LFB39
 2947 03e8 38000000 		.4byte	.LFE39-.LFB39
 2948 03ec 01       		.uleb128 0x1
ARM GAS  C:\Users\user\AppData\Local\Temp\ccywx0XT.s 			page 88


 2949 03ed 9C       		.byte	0x9c
 2950 03ee 05040000 		.4byte	0x405
 2951 03f2 13       		.uleb128 0x13
 2952 03f3 1C000000 		.4byte	.LVL86
 2953 03f7 980F0000 		.4byte	0xf98
 2954 03fb 13       		.uleb128 0x13
 2955 03fc 20000000 		.4byte	.LVL87
 2956 0400 A30F0000 		.4byte	0xfa3
 2957 0404 00       		.byte	0
 2958 0405 15       		.uleb128 0x15
 2959 0406 28060000 		.4byte	.LASF53
 2960 040a 01       		.byte	0x1
 2961 040b ED       		.byte	0xed
 2962 040c 00000000 		.4byte	.LFB3
 2963 0410 20000000 		.4byte	.LFE3-.LFB3
 2964 0414 01       		.uleb128 0x1
 2965 0415 9C       		.byte	0x9c
 2966 0416 3F040000 		.4byte	0x43f
 2967 041a 13       		.uleb128 0x13
 2968 041b 0E000000 		.4byte	.LVL88
 2969 041f AE0F0000 		.4byte	0xfae
 2970 0423 13       		.uleb128 0x13
 2971 0424 12000000 		.4byte	.LVL89
 2972 0428 B90F0000 		.4byte	0xfb9
 2973 042c 13       		.uleb128 0x13
 2974 042d 16000000 		.4byte	.LVL90
 2975 0431 C40F0000 		.4byte	0xfc4
 2976 0435 13       		.uleb128 0x13
 2977 0436 1A000000 		.4byte	.LVL91
 2978 043a CF0F0000 		.4byte	0xfcf
 2979 043e 00       		.byte	0
 2980 043f 16       		.uleb128 0x16
 2981 0440 1D0F0000 		.4byte	.LASF51
 2982 0444 01       		.byte	0x1
 2983 0445 2701     		.2byte	0x127
 2984 0447 00000000 		.4byte	.LFB4
 2985 044b 0C000000 		.4byte	.LFE4-.LFB4
 2986 044f 01       		.uleb128 0x1
 2987 0450 9C       		.byte	0x9c
 2988 0451 16       		.uleb128 0x16
 2989 0452 F3060000 		.4byte	.LASF52
 2990 0456 01       		.byte	0x1
 2991 0457 3F01     		.2byte	0x13f
 2992 0459 00000000 		.4byte	.LFB5
 2993 045d 0C000000 		.4byte	.LFE5-.LFB5
 2994 0461 01       		.uleb128 0x1
 2995 0462 9C       		.byte	0x9c
 2996 0463 17       		.uleb128 0x17
 2997 0464 26050000 		.4byte	.LASF54
 2998 0468 01       		.byte	0x1
 2999 0469 5D01     		.2byte	0x15d
 3000 046b 00000000 		.4byte	.LFB6
 3001 046f 10000000 		.4byte	.LFE6-.LFB6
 3002 0473 01       		.uleb128 0x1
 3003 0474 9C       		.byte	0x9c
 3004 0475 8A040000 		.4byte	0x48a
 3005 0479 0C       		.uleb128 0xc
ARM GAS  C:\Users\user\AppData\Local\Temp\ccywx0XT.s 			page 89


 3006 047a 4E0D0000 		.4byte	.LASF55
 3007 047e 01       		.byte	0x1
 3008 047f 5D01     		.2byte	0x15d
 3009 0481 72000000 		.4byte	0x72
 3010 0485 E8050000 		.4byte	.LLST20
 3011 0489 00       		.byte	0
 3012 048a 18       		.uleb128 0x18
 3013 048b 64010000 		.4byte	.LASF58
 3014 048f 01       		.byte	0x1
 3015 0490 7201     		.2byte	0x172
 3016 0492 72000000 		.4byte	0x72
 3017 0496 00000000 		.4byte	.LFB7
 3018 049a 0C000000 		.4byte	.LFE7-.LFB7
 3019 049e 01       		.uleb128 0x1
 3020 049f 9C       		.byte	0x9c
 3021 04a0 17       		.uleb128 0x17
 3022 04a1 7E0B0000 		.4byte	.LASF56
 3023 04a5 01       		.byte	0x1
 3024 04a6 8801     		.2byte	0x188
 3025 04a8 00000000 		.4byte	.LFB8
 3026 04ac 24000000 		.4byte	.LFE8-.LFB8
 3027 04b0 01       		.uleb128 0x1
 3028 04b1 9C       		.byte	0x9c
 3029 04b2 C7040000 		.4byte	0x4c7
 3030 04b6 0C       		.uleb128 0xc
 3031 04b7 0F040000 		.4byte	.LASF57
 3032 04bb 01       		.byte	0x1
 3033 04bc 8801     		.2byte	0x188
 3034 04be 8A000000 		.4byte	0x8a
 3035 04c2 09060000 		.4byte	.LLST21
 3036 04c6 00       		.byte	0
 3037 04c7 18       		.uleb128 0x18
 3038 04c8 86090000 		.4byte	.LASF59
 3039 04cc 01       		.byte	0x1
 3040 04cd A201     		.2byte	0x1a2
 3041 04cf 8A000000 		.4byte	0x8a
 3042 04d3 00000000 		.4byte	.LFB9
 3043 04d7 0C000000 		.4byte	.LFE9-.LFB9
 3044 04db 01       		.uleb128 0x1
 3045 04dc 9C       		.byte	0x9c
 3046 04dd 18       		.uleb128 0x18
 3047 04de 85000000 		.4byte	.LASF60
 3048 04e2 01       		.byte	0x1
 3049 04e3 B701     		.2byte	0x1b7
 3050 04e5 72000000 		.4byte	0x72
 3051 04e9 00000000 		.4byte	.LFB10
 3052 04ed 0C000000 		.4byte	.LFE10-.LFB10
 3053 04f1 01       		.uleb128 0x1
 3054 04f2 9C       		.byte	0x9c
 3055 04f3 19       		.uleb128 0x19
 3056 04f4 2A070000 		.4byte	.LASF62
 3057 04f8 01       		.byte	0x1
 3058 04f9 D001     		.2byte	0x1d0
 3059 04fb 8A000000 		.4byte	0x8a
 3060 04ff 00000000 		.4byte	.LFB11
 3061 0503 2C000000 		.4byte	.LFE11-.LFB11
 3062 0507 01       		.uleb128 0x1
ARM GAS  C:\Users\user\AppData\Local\Temp\ccywx0XT.s 			page 90


 3063 0508 9C       		.byte	0x9c
 3064 0509 1C050000 		.4byte	0x51c
 3065 050d 1A       		.uleb128 0x1a
 3066 050e A8080000 		.4byte	.LASF61
 3067 0512 01       		.byte	0x1
 3068 0513 D201     		.2byte	0x1d2
 3069 0515 8A000000 		.4byte	0x8a
 3070 0519 01       		.uleb128 0x1
 3071 051a 50       		.byte	0x50
 3072 051b 00       		.byte	0
 3073 051c 19       		.uleb128 0x19
 3074 051d 62050000 		.4byte	.LASF63
 3075 0521 01       		.byte	0x1
 3076 0522 FC01     		.2byte	0x1fc
 3077 0524 8A000000 		.4byte	0x8a
 3078 0528 00000000 		.4byte	.LFB12
 3079 052c 2C000000 		.4byte	.LFE12-.LFB12
 3080 0530 01       		.uleb128 0x1
 3081 0531 9C       		.byte	0x9c
 3082 0532 45050000 		.4byte	0x545
 3083 0536 1A       		.uleb128 0x1a
 3084 0537 24080000 		.4byte	.LASF64
 3085 053b 01       		.byte	0x1
 3086 053c FE01     		.2byte	0x1fe
 3087 053e 8A000000 		.4byte	0x8a
 3088 0542 01       		.uleb128 0x1
 3089 0543 50       		.byte	0x50
 3090 0544 00       		.byte	0
 3091 0545 19       		.uleb128 0x19
 3092 0546 410C0000 		.4byte	.LASF65
 3093 054a 01       		.byte	0x1
 3094 054b 2A02     		.2byte	0x22a
 3095 054d 8A000000 		.4byte	0x8a
 3096 0551 00000000 		.4byte	.LFB13
 3097 0555 2C000000 		.4byte	.LFE13-.LFB13
 3098 0559 01       		.uleb128 0x1
 3099 055a 9C       		.byte	0x9c
 3100 055b 6E050000 		.4byte	0x56e
 3101 055f 1A       		.uleb128 0x1a
 3102 0560 270E0000 		.4byte	.LASF66
 3103 0564 01       		.byte	0x1
 3104 0565 2C02     		.2byte	0x22c
 3105 0567 8A000000 		.4byte	0x8a
 3106 056b 01       		.uleb128 0x1
 3107 056c 50       		.byte	0x50
 3108 056d 00       		.byte	0
 3109 056e 16       		.uleb128 0x16
 3110 056f 80010000 		.4byte	.LASF67
 3111 0573 01       		.byte	0x1
 3112 0574 5602     		.2byte	0x256
 3113 0576 00000000 		.4byte	.LFB14
 3114 057a 0C000000 		.4byte	.LFE14-.LFB14
 3115 057e 01       		.uleb128 0x1
 3116 057f 9C       		.byte	0x9c
 3117 0580 16       		.uleb128 0x16
 3118 0581 F4030000 		.4byte	.LASF68
 3119 0585 01       		.byte	0x1
ARM GAS  C:\Users\user\AppData\Local\Temp\ccywx0XT.s 			page 91


 3120 0586 6E02     		.2byte	0x26e
 3121 0588 00000000 		.4byte	.LFB15
 3122 058c 0C000000 		.4byte	.LFE15-.LFB15
 3123 0590 01       		.uleb128 0x1
 3124 0591 9C       		.byte	0x9c
 3125 0592 17       		.uleb128 0x17
 3126 0593 0F010000 		.4byte	.LASF69
 3127 0597 01       		.byte	0x1
 3128 0598 8C02     		.2byte	0x28c
 3129 059a 00000000 		.4byte	.LFB16
 3130 059e 10000000 		.4byte	.LFE16-.LFB16
 3131 05a2 01       		.uleb128 0x1
 3132 05a3 9C       		.byte	0x9c
 3133 05a4 B9050000 		.4byte	0x5b9
 3134 05a8 0C       		.uleb128 0xc
 3135 05a9 76070000 		.4byte	.LASF70
 3136 05ad 01       		.byte	0x1
 3137 05ae 8C02     		.2byte	0x28c
 3138 05b0 72000000 		.4byte	0x72
 3139 05b4 2A060000 		.4byte	.LLST22
 3140 05b8 00       		.byte	0
 3141 05b9 18       		.uleb128 0x18
 3142 05ba B0030000 		.4byte	.LASF71
 3143 05be 01       		.byte	0x1
 3144 05bf A102     		.2byte	0x2a1
 3145 05c1 72000000 		.4byte	0x72
 3146 05c5 00000000 		.4byte	.LFB17
 3147 05c9 0C000000 		.4byte	.LFE17-.LFB17
 3148 05cd 01       		.uleb128 0x1
 3149 05ce 9C       		.byte	0x9c
 3150 05cf 17       		.uleb128 0x17
 3151 05d0 B6080000 		.4byte	.LASF72
 3152 05d4 01       		.byte	0x1
 3153 05d5 B702     		.2byte	0x2b7
 3154 05d7 00000000 		.4byte	.LFB18
 3155 05db 24000000 		.4byte	.LFE18-.LFB18
 3156 05df 01       		.uleb128 0x1
 3157 05e0 9C       		.byte	0x9c
 3158 05e1 F6050000 		.4byte	0x5f6
 3159 05e5 0C       		.uleb128 0xc
 3160 05e6 6A0E0000 		.4byte	.LASF73
 3161 05ea 01       		.byte	0x1
 3162 05eb B702     		.2byte	0x2b7
 3163 05ed 8A000000 		.4byte	0x8a
 3164 05f1 4B060000 		.4byte	.LLST23
 3165 05f5 00       		.byte	0
 3166 05f6 15       		.uleb128 0x15
 3167 05f7 2D0D0000 		.4byte	.LASF74
 3168 05fb 01       		.byte	0x1
 3169 05fc 7D       		.byte	0x7d
 3170 05fd 00000000 		.4byte	.LFB0
 3171 0601 30000000 		.4byte	.LFE0-.LFB0
 3172 0605 01       		.uleb128 0x1
 3173 0606 9C       		.byte	0x9c
 3174 0607 66060000 		.4byte	0x666
 3175 060b 13       		.uleb128 0x13
 3176 060c 06000000 		.4byte	.LVL103
ARM GAS  C:\Users\user\AppData\Local\Temp\ccywx0XT.s 			page 92


 3177 0610 3F040000 		.4byte	0x43f
 3178 0614 13       		.uleb128 0x13
 3179 0615 0A000000 		.4byte	.LVL104
 3180 0619 6E050000 		.4byte	0x56e
 3181 061d 11       		.uleb128 0x11
 3182 061e 10000000 		.4byte	.LVL105
 3183 0622 63040000 		.4byte	0x463
 3184 0626 30060000 		.4byte	0x630
 3185 062a 12       		.uleb128 0x12
 3186 062b 01       		.uleb128 0x1
 3187 062c 50       		.byte	0x50
 3188 062d 01       		.uleb128 0x1
 3189 062e 30       		.byte	0x30
 3190 062f 00       		.byte	0
 3191 0630 11       		.uleb128 0x11
 3192 0631 16000000 		.4byte	.LVL106
 3193 0635 92050000 		.4byte	0x592
 3194 0639 43060000 		.4byte	0x643
 3195 063d 12       		.uleb128 0x12
 3196 063e 01       		.uleb128 0x1
 3197 063f 50       		.byte	0x50
 3198 0640 01       		.uleb128 0x1
 3199 0641 30       		.byte	0x30
 3200 0642 00       		.byte	0
 3201 0643 11       		.uleb128 0x11
 3202 0644 1C000000 		.4byte	.LVL107
 3203 0648 A0040000 		.4byte	0x4a0
 3204 064c 56060000 		.4byte	0x656
 3205 0650 12       		.uleb128 0x12
 3206 0651 01       		.uleb128 0x1
 3207 0652 50       		.byte	0x50
 3208 0653 01       		.uleb128 0x1
 3209 0654 33       		.byte	0x33
 3210 0655 00       		.byte	0
 3211 0656 1B       		.uleb128 0x1b
 3212 0657 22000000 		.4byte	.LVL108
 3213 065b CF050000 		.4byte	0x5cf
 3214 065f 12       		.uleb128 0x12
 3215 0660 01       		.uleb128 0x1
 3216 0661 50       		.byte	0x50
 3217 0662 01       		.uleb128 0x1
 3218 0663 33       		.byte	0x33
 3219 0664 00       		.byte	0
 3220 0665 00       		.byte	0
 3221 0666 18       		.uleb128 0x18
 3222 0667 16000000 		.4byte	.LASF75
 3223 066b 01       		.byte	0x1
 3224 066c D002     		.2byte	0x2d0
 3225 066e 8A000000 		.4byte	0x8a
 3226 0672 00000000 		.4byte	.LFB19
 3227 0676 0C000000 		.4byte	.LFE19-.LFB19
 3228 067a 01       		.uleb128 0x1
 3229 067b 9C       		.byte	0x9c
 3230 067c 18       		.uleb128 0x18
 3231 067d F4090000 		.4byte	.LASF76
 3232 0681 01       		.byte	0x1
 3233 0682 E502     		.2byte	0x2e5
ARM GAS  C:\Users\user\AppData\Local\Temp\ccywx0XT.s 			page 93


 3234 0684 72000000 		.4byte	0x72
 3235 0688 00000000 		.4byte	.LFB20
 3236 068c 0C000000 		.4byte	.LFE20-.LFB20
 3237 0690 01       		.uleb128 0x1
 3238 0691 9C       		.byte	0x9c
 3239 0692 19       		.uleb128 0x19
 3240 0693 54080000 		.4byte	.LASF77
 3241 0697 01       		.byte	0x1
 3242 0698 FC02     		.2byte	0x2fc
 3243 069a 8A000000 		.4byte	0x8a
 3244 069e 00000000 		.4byte	.LFB21
 3245 06a2 2C000000 		.4byte	.LFE21-.LFB21
 3246 06a6 01       		.uleb128 0x1
 3247 06a7 9C       		.byte	0x9c
 3248 06a8 BB060000 		.4byte	0x6bb
 3249 06ac 1A       		.uleb128 0x1a
 3250 06ad 9A0B0000 		.4byte	.LASF78
 3251 06b1 01       		.byte	0x1
 3252 06b2 FE02     		.2byte	0x2fe
 3253 06b4 8A000000 		.4byte	0x8a
 3254 06b8 01       		.uleb128 0x1
 3255 06b9 50       		.byte	0x50
 3256 06ba 00       		.byte	0
 3257 06bb 19       		.uleb128 0x19
 3258 06bc 080B0000 		.4byte	.LASF79
 3259 06c0 01       		.byte	0x1
 3260 06c1 2803     		.2byte	0x328
 3261 06c3 8A000000 		.4byte	0x8a
 3262 06c7 00000000 		.4byte	.LFB22
 3263 06cb 2C000000 		.4byte	.LFE22-.LFB22
 3264 06cf 01       		.uleb128 0x1
 3265 06d0 9C       		.byte	0x9c
 3266 06d1 E4060000 		.4byte	0x6e4
 3267 06d5 1A       		.uleb128 0x1a
 3268 06d6 410D0000 		.4byte	.LASF80
 3269 06da 01       		.byte	0x1
 3270 06db 2A03     		.2byte	0x32a
 3271 06dd 8A000000 		.4byte	0x8a
 3272 06e1 01       		.uleb128 0x1
 3273 06e2 50       		.byte	0x50
 3274 06e3 00       		.byte	0
 3275 06e4 19       		.uleb128 0x19
 3276 06e5 640D0000 		.4byte	.LASF81
 3277 06e9 01       		.byte	0x1
 3278 06ea 5403     		.2byte	0x354
 3279 06ec 8A000000 		.4byte	0x8a
 3280 06f0 00000000 		.4byte	.LFB23
 3281 06f4 2C000000 		.4byte	.LFE23-.LFB23
 3282 06f8 01       		.uleb128 0x1
 3283 06f9 9C       		.byte	0x9c
 3284 06fa 0D070000 		.4byte	0x70d
 3285 06fe 1A       		.uleb128 0x1a
 3286 06ff B0000000 		.4byte	.LASF82
 3287 0703 01       		.byte	0x1
 3288 0704 5603     		.2byte	0x356
 3289 0706 8A000000 		.4byte	0x8a
 3290 070a 01       		.uleb128 0x1
ARM GAS  C:\Users\user\AppData\Local\Temp\ccywx0XT.s 			page 94


 3291 070b 50       		.byte	0x50
 3292 070c 00       		.byte	0
 3293 070d 17       		.uleb128 0x17
 3294 070e 8E030000 		.4byte	.LASF83
 3295 0712 01       		.byte	0x1
 3296 0713 8203     		.2byte	0x382
 3297 0715 00000000 		.4byte	.LFB24
 3298 0719 4C000000 		.4byte	.LFE24-.LFB24
 3299 071d 01       		.uleb128 0x1
 3300 071e 9C       		.byte	0x9c
 3301 071f 7D070000 		.4byte	0x77d
 3302 0723 0C       		.uleb128 0xc
 3303 0724 C7060000 		.4byte	.LASF84
 3304 0728 01       		.byte	0x1
 3305 0729 8203     		.2byte	0x382
 3306 072b 72000000 		.4byte	0x72
 3307 072f 6C060000 		.4byte	.LLST24
 3308 0733 0C       		.uleb128 0xc
 3309 0734 E4000000 		.4byte	.LASF85
 3310 0738 01       		.byte	0x1
 3311 0739 8203     		.2byte	0x382
 3312 073b 7E000000 		.4byte	0x7e
 3313 073f 8D060000 		.4byte	.LLST25
 3314 0743 1A       		.uleb128 0x1a
 3315 0744 1A0E0000 		.4byte	.LASF86
 3316 0748 01       		.byte	0x1
 3317 0749 8503     		.2byte	0x385
 3318 074b A2000000 		.4byte	0xa2
 3319 074f 01       		.uleb128 0x1
 3320 0750 50       		.byte	0x50
 3321 0751 1A       		.uleb128 0x1a
 3322 0752 BE0D0000 		.4byte	.LASF87
 3323 0756 01       		.byte	0x1
 3324 0757 8603     		.2byte	0x386
 3325 0759 72000000 		.4byte	0x72
 3326 075d 02       		.uleb128 0x2
 3327 075e 91       		.byte	0x91
 3328 075f 67       		.sleb128 -25
 3329 0760 1B       		.uleb128 0x1b
 3330 0761 18000000 		.4byte	.LVL115
 3331 0765 E1010000 		.4byte	0x1e1
 3332 0769 12       		.uleb128 0x12
 3333 076a 01       		.uleb128 0x1
 3334 076b 50       		.byte	0x50
 3335 076c 02       		.uleb128 0x2
 3336 076d 75       		.byte	0x75
 3337 076e 00       		.sleb128 0
 3338 076f 12       		.uleb128 0x12
 3339 0770 01       		.uleb128 0x1
 3340 0771 51       		.byte	0x51
 3341 0772 02       		.uleb128 0x2
 3342 0773 74       		.byte	0x74
 3343 0774 00       		.sleb128 0
 3344 0775 12       		.uleb128 0x12
 3345 0776 01       		.uleb128 0x1
 3346 0777 52       		.byte	0x52
 3347 0778 02       		.uleb128 0x2
ARM GAS  C:\Users\user\AppData\Local\Temp\ccywx0XT.s 			page 95


 3348 0779 91       		.byte	0x91
 3349 077a 67       		.sleb128 -25
 3350 077b 00       		.byte	0
 3351 077c 00       		.byte	0
 3352 077d 19       		.uleb128 0x19
 3353 077e 0F090000 		.4byte	.LASF88
 3354 0782 01       		.byte	0x1
 3355 0783 A603     		.2byte	0x3a6
 3356 0785 7E000000 		.4byte	0x7e
 3357 0789 00000000 		.4byte	.LFB25
 3358 078d 20000000 		.4byte	.LFE25-.LFB25
 3359 0791 01       		.uleb128 0x1
 3360 0792 9C       		.byte	0x9c
 3361 0793 B8070000 		.4byte	0x7b8
 3362 0797 0C       		.uleb128 0xc
 3363 0798 C7060000 		.4byte	.LASF84
 3364 079c 01       		.byte	0x1
 3365 079d A603     		.2byte	0x3a6
 3366 079f 72000000 		.4byte	0x72
 3367 07a3 AE060000 		.4byte	.LLST26
 3368 07a7 0D       		.uleb128 0xd
 3369 07a8 E4000000 		.4byte	.LASF85
 3370 07ac 01       		.byte	0x1
 3371 07ad A903     		.2byte	0x3a9
 3372 07af 7E000000 		.4byte	0x7e
 3373 07b3 E8060000 		.4byte	.LLST27
 3374 07b7 00       		.byte	0
 3375 07b8 17       		.uleb128 0x17
 3376 07b9 32080000 		.4byte	.LASF89
 3377 07bd 01       		.byte	0x1
 3378 07be C603     		.2byte	0x3c6
 3379 07c0 00000000 		.4byte	.LFB26
 3380 07c4 4C000000 		.4byte	.LFE26-.LFB26
 3381 07c8 01       		.uleb128 0x1
 3382 07c9 9C       		.byte	0x9c
 3383 07ca 28080000 		.4byte	0x828
 3384 07ce 0C       		.uleb128 0xc
 3385 07cf C7060000 		.4byte	.LASF84
 3386 07d3 01       		.byte	0x1
 3387 07d4 C603     		.2byte	0x3c6
 3388 07d6 72000000 		.4byte	0x72
 3389 07da 1E070000 		.4byte	.LLST28
 3390 07de 0C       		.uleb128 0xc
 3391 07df B0060000 		.4byte	.LASF90
 3392 07e3 01       		.byte	0x1
 3393 07e4 C603     		.2byte	0x3c6
 3394 07e6 7E000000 		.4byte	0x7e
 3395 07ea 3F070000 		.4byte	.LLST29
 3396 07ee 1A       		.uleb128 0x1a
 3397 07ef A2090000 		.4byte	.LASF91
 3398 07f3 01       		.byte	0x1
 3399 07f4 C903     		.2byte	0x3c9
 3400 07f6 A2000000 		.4byte	0xa2
 3401 07fa 01       		.uleb128 0x1
 3402 07fb 50       		.byte	0x50
 3403 07fc 1A       		.uleb128 0x1a
 3404 07fd BE0D0000 		.4byte	.LASF87
ARM GAS  C:\Users\user\AppData\Local\Temp\ccywx0XT.s 			page 96


 3405 0801 01       		.byte	0x1
 3406 0802 CA03     		.2byte	0x3ca
 3407 0804 72000000 		.4byte	0x72
 3408 0808 02       		.uleb128 0x2
 3409 0809 91       		.byte	0x91
 3410 080a 67       		.sleb128 -25
 3411 080b 1B       		.uleb128 0x1b
 3412 080c 18000000 		.4byte	.LVL124
 3413 0810 E1010000 		.4byte	0x1e1
 3414 0814 12       		.uleb128 0x12
 3415 0815 01       		.uleb128 0x1
 3416 0816 50       		.byte	0x50
 3417 0817 02       		.uleb128 0x2
 3418 0818 75       		.byte	0x75
 3419 0819 00       		.sleb128 0
 3420 081a 12       		.uleb128 0x12
 3421 081b 01       		.uleb128 0x1
 3422 081c 51       		.byte	0x51
 3423 081d 02       		.uleb128 0x2
 3424 081e 74       		.byte	0x74
 3425 081f 00       		.sleb128 0
 3426 0820 12       		.uleb128 0x12
 3427 0821 01       		.uleb128 0x1
 3428 0822 52       		.byte	0x52
 3429 0823 02       		.uleb128 0x2
 3430 0824 91       		.byte	0x91
 3431 0825 67       		.sleb128 -25
 3432 0826 00       		.byte	0
 3433 0827 00       		.byte	0
 3434 0828 19       		.uleb128 0x19
 3435 0829 FB0E0000 		.4byte	.LASF92
 3436 082d 01       		.byte	0x1
 3437 082e EA03     		.2byte	0x3ea
 3438 0830 7E000000 		.4byte	0x7e
 3439 0834 00000000 		.4byte	.LFB27
 3440 0838 20000000 		.4byte	.LFE27-.LFB27
 3441 083c 01       		.uleb128 0x1
 3442 083d 9C       		.byte	0x9c
 3443 083e 63080000 		.4byte	0x863
 3444 0842 0C       		.uleb128 0xc
 3445 0843 C7060000 		.4byte	.LASF84
 3446 0847 01       		.byte	0x1
 3447 0848 EA03     		.2byte	0x3ea
 3448 084a 72000000 		.4byte	0x72
 3449 084e 60070000 		.4byte	.LLST30
 3450 0852 0D       		.uleb128 0xd
 3451 0853 B0060000 		.4byte	.LASF90
 3452 0857 01       		.byte	0x1
 3453 0858 ED03     		.2byte	0x3ed
 3454 085a 7E000000 		.4byte	0x7e
 3455 085e 9A070000 		.4byte	.LLST31
 3456 0862 00       		.byte	0
 3457 0863 17       		.uleb128 0x17
 3458 0864 BE070000 		.4byte	.LASF93
 3459 0868 01       		.byte	0x1
 3460 0869 0A04     		.2byte	0x40a
 3461 086b 00000000 		.4byte	.LFB28
ARM GAS  C:\Users\user\AppData\Local\Temp\ccywx0XT.s 			page 97


 3462 086f 4C000000 		.4byte	.LFE28-.LFB28
 3463 0873 01       		.uleb128 0x1
 3464 0874 9C       		.byte	0x9c
 3465 0875 D3080000 		.4byte	0x8d3
 3466 0879 0C       		.uleb128 0xc
 3467 087a C7060000 		.4byte	.LASF84
 3468 087e 01       		.byte	0x1
 3469 087f 0A04     		.2byte	0x40a
 3470 0881 72000000 		.4byte	0x72
 3471 0885 D0070000 		.4byte	.LLST32
 3472 0889 0C       		.uleb128 0xc
 3473 088a 0B020000 		.4byte	.LASF94
 3474 088e 01       		.byte	0x1
 3475 088f 0A04     		.2byte	0x40a
 3476 0891 7E000000 		.4byte	0x7e
 3477 0895 F1070000 		.4byte	.LLST33
 3478 0899 1A       		.uleb128 0x1a
 3479 089a 110A0000 		.4byte	.LASF95
 3480 089e 01       		.byte	0x1
 3481 089f 0D04     		.2byte	0x40d
 3482 08a1 A2000000 		.4byte	0xa2
 3483 08a5 01       		.uleb128 0x1
 3484 08a6 50       		.byte	0x50
 3485 08a7 1A       		.uleb128 0x1a
 3486 08a8 BE0D0000 		.4byte	.LASF87
 3487 08ac 01       		.byte	0x1
 3488 08ad 0E04     		.2byte	0x40e
 3489 08af 72000000 		.4byte	0x72
 3490 08b3 02       		.uleb128 0x2
 3491 08b4 91       		.byte	0x91
 3492 08b5 67       		.sleb128 -25
 3493 08b6 1B       		.uleb128 0x1b
 3494 08b7 18000000 		.4byte	.LVL133
 3495 08bb E1010000 		.4byte	0x1e1
 3496 08bf 12       		.uleb128 0x12
 3497 08c0 01       		.uleb128 0x1
 3498 08c1 50       		.byte	0x50
 3499 08c2 02       		.uleb128 0x2
 3500 08c3 75       		.byte	0x75
 3501 08c4 00       		.sleb128 0
 3502 08c5 12       		.uleb128 0x12
 3503 08c6 01       		.uleb128 0x1
 3504 08c7 51       		.byte	0x51
 3505 08c8 02       		.uleb128 0x2
 3506 08c9 74       		.byte	0x74
 3507 08ca 00       		.sleb128 0
 3508 08cb 12       		.uleb128 0x12
 3509 08cc 01       		.uleb128 0x1
 3510 08cd 52       		.byte	0x52
 3511 08ce 02       		.uleb128 0x2
 3512 08cf 91       		.byte	0x91
 3513 08d0 67       		.sleb128 -25
 3514 08d1 00       		.byte	0
 3515 08d2 00       		.byte	0
 3516 08d3 19       		.uleb128 0x19
 3517 08d4 1C020000 		.4byte	.LASF96
 3518 08d8 01       		.byte	0x1
ARM GAS  C:\Users\user\AppData\Local\Temp\ccywx0XT.s 			page 98


 3519 08d9 2E04     		.2byte	0x42e
 3520 08db 7E000000 		.4byte	0x7e
 3521 08df 00000000 		.4byte	.LFB29
 3522 08e3 20000000 		.4byte	.LFE29-.LFB29
 3523 08e7 01       		.uleb128 0x1
 3524 08e8 9C       		.byte	0x9c
 3525 08e9 0E090000 		.4byte	0x90e
 3526 08ed 0C       		.uleb128 0xc
 3527 08ee C7060000 		.4byte	.LASF84
 3528 08f2 01       		.byte	0x1
 3529 08f3 2E04     		.2byte	0x42e
 3530 08f5 72000000 		.4byte	0x72
 3531 08f9 12080000 		.4byte	.LLST34
 3532 08fd 0D       		.uleb128 0xd
 3533 08fe 0B020000 		.4byte	.LASF94
 3534 0902 01       		.byte	0x1
 3535 0903 3104     		.2byte	0x431
 3536 0905 7E000000 		.4byte	0x7e
 3537 0909 4C080000 		.4byte	.LLST35
 3538 090d 00       		.byte	0
 3539 090e 17       		.uleb128 0x17
 3540 090f C10E0000 		.4byte	.LASF97
 3541 0913 01       		.byte	0x1
 3542 0914 4E04     		.2byte	0x44e
 3543 0916 00000000 		.4byte	.LFB30
 3544 091a 4C000000 		.4byte	.LFE30-.LFB30
 3545 091e 01       		.uleb128 0x1
 3546 091f 9C       		.byte	0x9c
 3547 0920 7E090000 		.4byte	0x97e
 3548 0924 0C       		.uleb128 0xc
 3549 0925 C7060000 		.4byte	.LASF84
 3550 0929 01       		.byte	0x1
 3551 092a 4E04     		.2byte	0x44e
 3552 092c 72000000 		.4byte	0x72
 3553 0930 82080000 		.4byte	.LLST36
 3554 0934 0C       		.uleb128 0xc
 3555 0935 CB0B0000 		.4byte	.LASF98
 3556 0939 01       		.byte	0x1
 3557 093a 4E04     		.2byte	0x44e
 3558 093c 7E000000 		.4byte	0x7e
 3559 0940 A3080000 		.4byte	.LLST37
 3560 0944 1A       		.uleb128 0x1a
 3561 0945 670A0000 		.4byte	.LASF99
 3562 0949 01       		.byte	0x1
 3563 094a 5104     		.2byte	0x451
 3564 094c A2000000 		.4byte	0xa2
 3565 0950 01       		.uleb128 0x1
 3566 0951 50       		.byte	0x50
 3567 0952 1A       		.uleb128 0x1a
 3568 0953 BE0D0000 		.4byte	.LASF87
 3569 0957 01       		.byte	0x1
 3570 0958 5204     		.2byte	0x452
 3571 095a 72000000 		.4byte	0x72
 3572 095e 02       		.uleb128 0x2
 3573 095f 91       		.byte	0x91
 3574 0960 67       		.sleb128 -25
 3575 0961 1B       		.uleb128 0x1b
ARM GAS  C:\Users\user\AppData\Local\Temp\ccywx0XT.s 			page 99


 3576 0962 18000000 		.4byte	.LVL142
 3577 0966 E1010000 		.4byte	0x1e1
 3578 096a 12       		.uleb128 0x12
 3579 096b 01       		.uleb128 0x1
 3580 096c 50       		.byte	0x50
 3581 096d 02       		.uleb128 0x2
 3582 096e 75       		.byte	0x75
 3583 096f 00       		.sleb128 0
 3584 0970 12       		.uleb128 0x12
 3585 0971 01       		.uleb128 0x1
 3586 0972 51       		.byte	0x51
 3587 0973 02       		.uleb128 0x2
 3588 0974 74       		.byte	0x74
 3589 0975 00       		.sleb128 0
 3590 0976 12       		.uleb128 0x12
 3591 0977 01       		.uleb128 0x1
 3592 0978 52       		.byte	0x52
 3593 0979 02       		.uleb128 0x2
 3594 097a 91       		.byte	0x91
 3595 097b 67       		.sleb128 -25
 3596 097c 00       		.byte	0
 3597 097d 00       		.byte	0
 3598 097e 19       		.uleb128 0x19
 3599 097f E50B0000 		.4byte	.LASF100
 3600 0983 01       		.byte	0x1
 3601 0984 7104     		.2byte	0x471
 3602 0986 7E000000 		.4byte	0x7e
 3603 098a 00000000 		.4byte	.LFB31
 3604 098e 20000000 		.4byte	.LFE31-.LFB31
 3605 0992 01       		.uleb128 0x1
 3606 0993 9C       		.byte	0x9c
 3607 0994 B9090000 		.4byte	0x9b9
 3608 0998 0C       		.uleb128 0xc
 3609 0999 C7060000 		.4byte	.LASF84
 3610 099d 01       		.byte	0x1
 3611 099e 7104     		.2byte	0x471
 3612 09a0 72000000 		.4byte	0x72
 3613 09a4 C4080000 		.4byte	.LLST38
 3614 09a8 0D       		.uleb128 0xd
 3615 09a9 CB0B0000 		.4byte	.LASF98
 3616 09ad 01       		.byte	0x1
 3617 09ae 7404     		.2byte	0x474
 3618 09b0 7E000000 		.4byte	0x7e
 3619 09b4 FE080000 		.4byte	.LLST39
 3620 09b8 00       		.byte	0
 3621 09b9 17       		.uleb128 0x17
 3622 09ba D50C0000 		.4byte	.LASF101
 3623 09be 01       		.byte	0x1
 3624 09bf 9004     		.2byte	0x490
 3625 09c1 00000000 		.4byte	.LFB32
 3626 09c5 4C000000 		.4byte	.LFE32-.LFB32
 3627 09c9 01       		.uleb128 0x1
 3628 09ca 9C       		.byte	0x9c
 3629 09cb 2A0A0000 		.4byte	0xa2a
 3630 09cf 0C       		.uleb128 0xc
 3631 09d0 C7060000 		.4byte	.LASF84
 3632 09d4 01       		.byte	0x1
ARM GAS  C:\Users\user\AppData\Local\Temp\ccywx0XT.s 			page 100


 3633 09d5 9004     		.2byte	0x490
 3634 09d7 72000000 		.4byte	0x72
 3635 09db 34090000 		.4byte	.LLST40
 3636 09df 0C       		.uleb128 0xc
 3637 09e0 7B0C0000 		.4byte	.LASF102
 3638 09e4 01       		.byte	0x1
 3639 09e5 9004     		.2byte	0x490
 3640 09e7 25000000 		.4byte	0x25
 3641 09eb 55090000 		.4byte	.LLST41
 3642 09ef 1A       		.uleb128 0x1a
 3643 09f0 900E0000 		.4byte	.LASF103
 3644 09f4 01       		.byte	0x1
 3645 09f5 9304     		.2byte	0x493
 3646 09f7 A2000000 		.4byte	0xa2
 3647 09fb 01       		.uleb128 0x1
 3648 09fc 50       		.byte	0x50
 3649 09fd 1A       		.uleb128 0x1a
 3650 09fe BE0D0000 		.4byte	.LASF87
 3651 0a02 01       		.byte	0x1
 3652 0a03 9404     		.2byte	0x494
 3653 0a05 72000000 		.4byte	0x72
 3654 0a09 02       		.uleb128 0x2
 3655 0a0a 91       		.byte	0x91
 3656 0a0b 67       		.sleb128 -25
 3657 0a0c 1B       		.uleb128 0x1b
 3658 0a0d 18000000 		.4byte	.LVL151
 3659 0a11 51020000 		.4byte	0x251
 3660 0a15 12       		.uleb128 0x12
 3661 0a16 01       		.uleb128 0x1
 3662 0a17 50       		.byte	0x50
 3663 0a18 03       		.uleb128 0x3
 3664 0a19 F5       		.byte	0xf5
 3665 0a1a 05       		.uleb128 0x5
 3666 0a1b 25       		.uleb128 0x25
 3667 0a1c 12       		.uleb128 0x12
 3668 0a1d 01       		.uleb128 0x1
 3669 0a1e 51       		.byte	0x51
 3670 0a1f 02       		.uleb128 0x2
 3671 0a20 74       		.byte	0x74
 3672 0a21 00       		.sleb128 0
 3673 0a22 12       		.uleb128 0x12
 3674 0a23 01       		.uleb128 0x1
 3675 0a24 52       		.byte	0x52
 3676 0a25 02       		.uleb128 0x2
 3677 0a26 91       		.byte	0x91
 3678 0a27 67       		.sleb128 -25
 3679 0a28 00       		.byte	0
 3680 0a29 00       		.byte	0
 3681 0a2a 19       		.uleb128 0x19
 3682 0a2b CB030000 		.4byte	.LASF104
 3683 0a2f 01       		.byte	0x1
 3684 0a30 B204     		.2byte	0x4b2
 3685 0a32 25000000 		.4byte	0x25
 3686 0a36 00000000 		.4byte	.LFB33
 3687 0a3a 30000000 		.4byte	.LFE33-.LFB33
 3688 0a3e 01       		.uleb128 0x1
 3689 0a3f 9C       		.byte	0x9c
ARM GAS  C:\Users\user\AppData\Local\Temp\ccywx0XT.s 			page 101


 3690 0a40 650A0000 		.4byte	0xa65
 3691 0a44 0C       		.uleb128 0xc
 3692 0a45 C7060000 		.4byte	.LASF84
 3693 0a49 01       		.byte	0x1
 3694 0a4a B204     		.2byte	0x4b2
 3695 0a4c 72000000 		.4byte	0x72
 3696 0a50 83090000 		.4byte	.LLST42
 3697 0a54 0D       		.uleb128 0xd
 3698 0a55 7B0C0000 		.4byte	.LASF102
 3699 0a59 01       		.byte	0x1
 3700 0a5a B504     		.2byte	0x4b5
 3701 0a5c 25000000 		.4byte	0x25
 3702 0a60 BD090000 		.4byte	.LLST43
 3703 0a64 00       		.byte	0
 3704 0a65 17       		.uleb128 0x17
 3705 0a66 4D000000 		.4byte	.LASF105
 3706 0a6a 01       		.byte	0x1
 3707 0a6b D404     		.2byte	0x4d4
 3708 0a6d 00000000 		.4byte	.LFB34
 3709 0a71 4C000000 		.4byte	.LFE34-.LFB34
 3710 0a75 01       		.uleb128 0x1
 3711 0a76 9C       		.byte	0x9c
 3712 0a77 D60A0000 		.4byte	0xad6
 3713 0a7b 0C       		.uleb128 0xc
 3714 0a7c C7060000 		.4byte	.LASF84
 3715 0a80 01       		.byte	0x1
 3716 0a81 D404     		.2byte	0x4d4
 3717 0a83 72000000 		.4byte	0x72
 3718 0a87 FB090000 		.4byte	.LLST44
 3719 0a8b 0C       		.uleb128 0xc
 3720 0a8c 4A0B0000 		.4byte	.LASF106
 3721 0a90 01       		.byte	0x1
 3722 0a91 D404     		.2byte	0x4d4
 3723 0a93 25000000 		.4byte	0x25
 3724 0a97 1C0A0000 		.4byte	.LLST45
 3725 0a9b 1A       		.uleb128 0x1a
 3726 0a9c 08000000 		.4byte	.LASF107
 3727 0aa0 01       		.byte	0x1
 3728 0aa1 D704     		.2byte	0x4d7
 3729 0aa3 A2000000 		.4byte	0xa2
 3730 0aa7 01       		.uleb128 0x1
 3731 0aa8 50       		.byte	0x50
 3732 0aa9 1A       		.uleb128 0x1a
 3733 0aaa BE0D0000 		.4byte	.LASF87
 3734 0aae 01       		.byte	0x1
 3735 0aaf D804     		.2byte	0x4d8
 3736 0ab1 72000000 		.4byte	0x72
 3737 0ab5 02       		.uleb128 0x2
 3738 0ab6 91       		.byte	0x91
 3739 0ab7 67       		.sleb128 -25
 3740 0ab8 1B       		.uleb128 0x1b
 3741 0ab9 18000000 		.4byte	.LVL162
 3742 0abd 51020000 		.4byte	0x251
 3743 0ac1 12       		.uleb128 0x12
 3744 0ac2 01       		.uleb128 0x1
 3745 0ac3 50       		.byte	0x50
 3746 0ac4 03       		.uleb128 0x3
ARM GAS  C:\Users\user\AppData\Local\Temp\ccywx0XT.s 			page 102


 3747 0ac5 F5       		.byte	0xf5
 3748 0ac6 05       		.uleb128 0x5
 3749 0ac7 25       		.uleb128 0x25
 3750 0ac8 12       		.uleb128 0x12
 3751 0ac9 01       		.uleb128 0x1
 3752 0aca 51       		.byte	0x51
 3753 0acb 02       		.uleb128 0x2
 3754 0acc 74       		.byte	0x74
 3755 0acd 00       		.sleb128 0
 3756 0ace 12       		.uleb128 0x12
 3757 0acf 01       		.uleb128 0x1
 3758 0ad0 52       		.byte	0x52
 3759 0ad1 02       		.uleb128 0x2
 3760 0ad2 91       		.byte	0x91
 3761 0ad3 67       		.sleb128 -25
 3762 0ad4 00       		.byte	0
 3763 0ad5 00       		.byte	0
 3764 0ad6 15       		.uleb128 0x15
 3765 0ad7 F4040000 		.4byte	.LASF108
 3766 0adb 01       		.byte	0x1
 3767 0adc 9D       		.byte	0x9d
 3768 0add 00000000 		.4byte	.LFB1
 3769 0ae1 78000000 		.4byte	.LFE1-.LFB1
 3770 0ae5 01       		.uleb128 0x1
 3771 0ae6 9C       		.byte	0x9c
 3772 0ae7 A60B0000 		.4byte	0xba6
 3773 0aeb 1C       		.uleb128 0x1c
 3774 0aec B9020000 		.4byte	.LASF50
 3775 0af0 01       		.byte	0x1
 3776 0af1 9F       		.byte	0x9f
 3777 0af2 72000000 		.4byte	0x72
 3778 0af6 4A0A0000 		.4byte	.LLST46
 3779 0afa 13       		.uleb128 0x13
 3780 0afb 06000000 		.4byte	.LVL164
 3781 0aff DA0F0000 		.4byte	0xfda
 3782 0b03 13       		.uleb128 0x13
 3783 0b04 0A000000 		.4byte	.LVL165
 3784 0b08 E50F0000 		.4byte	0xfe5
 3785 0b0c 13       		.uleb128 0x13
 3786 0b0d 0E000000 		.4byte	.LVL166
 3787 0b11 F00F0000 		.4byte	0xff0
 3788 0b15 11       		.uleb128 0x11
 3789 0b16 14000000 		.4byte	.LVL167
 3790 0b1a FB0F0000 		.4byte	0xffb
 3791 0b1e 280B0000 		.4byte	0xb28
 3792 0b22 12       		.uleb128 0x12
 3793 0b23 01       		.uleb128 0x1
 3794 0b24 50       		.byte	0x50
 3795 0b25 01       		.uleb128 0x1
 3796 0b26 31       		.byte	0x31
 3797 0b27 00       		.byte	0
 3798 0b28 13       		.uleb128 0x13
 3799 0b29 20000000 		.4byte	.LVL168
 3800 0b2d DC030000 		.4byte	0x3dc
 3801 0b31 11       		.uleb128 0x11
 3802 0b32 34000000 		.4byte	.LVL170
 3803 0b36 0E090000 		.4byte	0x90e
ARM GAS  C:\Users\user\AppData\Local\Temp\ccywx0XT.s 			page 103


 3804 0b3a 450B0000 		.4byte	0xb45
 3805 0b3e 12       		.uleb128 0x12
 3806 0b3f 01       		.uleb128 0x1
 3807 0b40 50       		.byte	0x50
 3808 0b41 02       		.uleb128 0x2
 3809 0b42 74       		.byte	0x74
 3810 0b43 00       		.sleb128 0
 3811 0b44 00       		.byte	0
 3812 0b45 11       		.uleb128 0x11
 3813 0b46 3C000000 		.4byte	.LVL171
 3814 0b4a B8070000 		.4byte	0x7b8
 3815 0b4e 590B0000 		.4byte	0xb59
 3816 0b52 12       		.uleb128 0x12
 3817 0b53 01       		.uleb128 0x1
 3818 0b54 50       		.byte	0x50
 3819 0b55 02       		.uleb128 0x2
 3820 0b56 74       		.byte	0x74
 3821 0b57 00       		.sleb128 0
 3822 0b58 00       		.byte	0
 3823 0b59 11       		.uleb128 0x11
 3824 0b5a 44000000 		.4byte	.LVL172
 3825 0b5e 0D070000 		.4byte	0x70d
 3826 0b62 6D0B0000 		.4byte	0xb6d
 3827 0b66 12       		.uleb128 0x12
 3828 0b67 01       		.uleb128 0x1
 3829 0b68 50       		.byte	0x50
 3830 0b69 02       		.uleb128 0x2
 3831 0b6a 74       		.byte	0x74
 3832 0b6b 00       		.sleb128 0
 3833 0b6c 00       		.byte	0
 3834 0b6d 11       		.uleb128 0x11
 3835 0b6e 4C000000 		.4byte	.LVL173
 3836 0b72 63080000 		.4byte	0x863
 3837 0b76 810B0000 		.4byte	0xb81
 3838 0b7a 12       		.uleb128 0x12
 3839 0b7b 01       		.uleb128 0x1
 3840 0b7c 50       		.byte	0x50
 3841 0b7d 02       		.uleb128 0x2
 3842 0b7e 74       		.byte	0x74
 3843 0b7f 00       		.sleb128 0
 3844 0b80 00       		.byte	0
 3845 0b81 11       		.uleb128 0x11
 3846 0b82 58000000 		.4byte	.LVL175
 3847 0b86 650A0000 		.4byte	0xa65
 3848 0b8a 950B0000 		.4byte	0xb95
 3849 0b8e 12       		.uleb128 0x12
 3850 0b8f 01       		.uleb128 0x1
 3851 0b90 50       		.byte	0x50
 3852 0b91 02       		.uleb128 0x2
 3853 0b92 74       		.byte	0x74
 3854 0b93 00       		.sleb128 0
 3855 0b94 00       		.byte	0
 3856 0b95 1B       		.uleb128 0x1b
 3857 0b96 60000000 		.4byte	.LVL176
 3858 0b9a B9090000 		.4byte	0x9b9
 3859 0b9e 12       		.uleb128 0x12
 3860 0b9f 01       		.uleb128 0x1
ARM GAS  C:\Users\user\AppData\Local\Temp\ccywx0XT.s 			page 104


 3861 0ba0 50       		.byte	0x50
 3862 0ba1 02       		.uleb128 0x2
 3863 0ba2 74       		.byte	0x74
 3864 0ba3 00       		.sleb128 0
 3865 0ba4 00       		.byte	0
 3866 0ba5 00       		.byte	0
 3867 0ba6 15       		.uleb128 0x15
 3868 0ba7 71090000 		.4byte	.LASF109
 3869 0bab 01       		.byte	0x1
 3870 0bac CE       		.byte	0xce
 3871 0bad 00000000 		.4byte	.LFB2
 3872 0bb1 20000000 		.4byte	.LFE2-.LFB2
 3873 0bb5 01       		.uleb128 0x1
 3874 0bb6 9C       		.byte	0x9c
 3875 0bb7 CE0B0000 		.4byte	0xbce
 3876 0bbb 13       		.uleb128 0x13
 3877 0bbc 0E000000 		.4byte	.LVL179
 3878 0bc0 F6050000 		.4byte	0x5f6
 3879 0bc4 13       		.uleb128 0x13
 3880 0bc5 1A000000 		.4byte	.LVL180
 3881 0bc9 D60A0000 		.4byte	0xad6
 3882 0bcd 00       		.byte	0
 3883 0bce 19       		.uleb128 0x19
 3884 0bcf 5B0B0000 		.4byte	.LASF110
 3885 0bd3 01       		.byte	0x1
 3886 0bd4 F604     		.2byte	0x4f6
 3887 0bd6 25000000 		.4byte	0x25
 3888 0bda 00000000 		.4byte	.LFB35
 3889 0bde 30000000 		.4byte	.LFE35-.LFB35
 3890 0be2 01       		.uleb128 0x1
 3891 0be3 9C       		.byte	0x9c
 3892 0be4 090C0000 		.4byte	0xc09
 3893 0be8 0C       		.uleb128 0xc
 3894 0be9 C7060000 		.4byte	.LASF84
 3895 0bed 01       		.byte	0x1
 3896 0bee F604     		.2byte	0x4f6
 3897 0bf0 72000000 		.4byte	0x72
 3898 0bf4 7F0A0000 		.4byte	.LLST47
 3899 0bf8 0D       		.uleb128 0xd
 3900 0bf9 4A0B0000 		.4byte	.LASF106
 3901 0bfd 01       		.byte	0x1
 3902 0bfe F904     		.2byte	0x4f9
 3903 0c00 25000000 		.4byte	0x25
 3904 0c04 B90A0000 		.4byte	.LLST48
 3905 0c08 00       		.byte	0
 3906 0c09 1D       		.uleb128 0x1d
 3907 0c0a C00A0000 		.4byte	.LASF111
 3908 0c0e 01       		.byte	0x1
 3909 0c0f 1A05     		.2byte	0x51a
 3910 0c11 7E000000 		.4byte	0x7e
 3911 0c15 00000000 		.4byte	.LFB36
 3912 0c19 48000000 		.4byte	.LFE36-.LFB36
 3913 0c1d 01       		.uleb128 0x1
 3914 0c1e 9C       		.byte	0x9c
 3915 0c1f 590C0000 		.4byte	0xc59
 3916 0c23 0C       		.uleb128 0xc
 3917 0c24 C7060000 		.4byte	.LASF84
ARM GAS  C:\Users\user\AppData\Local\Temp\ccywx0XT.s 			page 105


 3918 0c28 01       		.byte	0x1
 3919 0c29 1A05     		.2byte	0x51a
 3920 0c2b 72000000 		.4byte	0x72
 3921 0c2f F70A0000 		.4byte	.LLST49
 3922 0c33 0D       		.uleb128 0xd
 3923 0c34 6F070000 		.4byte	.LASF46
 3924 0c38 01       		.byte	0x1
 3925 0c39 1D05     		.2byte	0x51d
 3926 0c3b 25000000 		.4byte	0x25
 3927 0c3f 180B0000 		.4byte	.LLST50
 3928 0c43 1B       		.uleb128 0x1b
 3929 0c44 12000000 		.4byte	.LVL190
 3930 0c48 50030000 		.4byte	0x350
 3931 0c4c 12       		.uleb128 0x12
 3932 0c4d 01       		.uleb128 0x1
 3933 0c4e 50       		.byte	0x50
 3934 0c4f 02       		.uleb128 0x2
 3935 0c50 74       		.byte	0x74
 3936 0c51 7F       		.sleb128 -1
 3937 0c52 12       		.uleb128 0x12
 3938 0c53 01       		.uleb128 0x1
 3939 0c54 51       		.byte	0x51
 3940 0c55 01       		.uleb128 0x1
 3941 0c56 30       		.byte	0x30
 3942 0c57 00       		.byte	0
 3943 0c58 00       		.byte	0
 3944 0c59 1D       		.uleb128 0x1d
 3945 0c5a 270B0000 		.4byte	.LASF112
 3946 0c5e 01       		.byte	0x1
 3947 0c5f 3F05     		.2byte	0x53f
 3948 0c61 25000000 		.4byte	0x25
 3949 0c65 00000000 		.4byte	.LFB37
 3950 0c69 5C000000 		.4byte	.LFE37-.LFB37
 3951 0c6d 01       		.uleb128 0x1
 3952 0c6e 9C       		.byte	0x9c
 3953 0c6f A90C0000 		.4byte	0xca9
 3954 0c73 0C       		.uleb128 0xc
 3955 0c74 C7060000 		.4byte	.LASF84
 3956 0c78 01       		.byte	0x1
 3957 0c79 3F05     		.2byte	0x53f
 3958 0c7b 72000000 		.4byte	0x72
 3959 0c7f 6C0B0000 		.4byte	.LLST51
 3960 0c83 0D       		.uleb128 0xd
 3961 0c84 6F070000 		.4byte	.LASF46
 3962 0c88 01       		.byte	0x1
 3963 0c89 4205     		.2byte	0x542
 3964 0c8b 25000000 		.4byte	0x25
 3965 0c8f A60B0000 		.4byte	.LLST52
 3966 0c93 1B       		.uleb128 0x1b
 3967 0c94 14000000 		.4byte	.LVL203
 3968 0c98 50030000 		.4byte	0x350
 3969 0c9c 12       		.uleb128 0x12
 3970 0c9d 01       		.uleb128 0x1
 3971 0c9e 50       		.byte	0x50
 3972 0c9f 02       		.uleb128 0x2
 3973 0ca0 74       		.byte	0x74
 3974 0ca1 7F       		.sleb128 -1
ARM GAS  C:\Users\user\AppData\Local\Temp\ccywx0XT.s 			page 106


 3975 0ca2 12       		.uleb128 0x12
 3976 0ca3 01       		.uleb128 0x1
 3977 0ca4 51       		.byte	0x51
 3978 0ca5 01       		.uleb128 0x1
 3979 0ca6 31       		.byte	0x31
 3980 0ca7 00       		.byte	0
 3981 0ca8 00       		.byte	0
 3982 0ca9 19       		.uleb128 0x19
 3983 0caa ED050000 		.4byte	.LASF113
 3984 0cae 01       		.byte	0x1
 3985 0caf 6B05     		.2byte	0x56b
 3986 0cb1 25000000 		.4byte	0x25
 3987 0cb5 00000000 		.4byte	.LFB38
 3988 0cb9 04000000 		.4byte	.LFE38-.LFB38
 3989 0cbd 01       		.uleb128 0x1
 3990 0cbe 9C       		.byte	0x9c
 3991 0cbf E50C0000 		.4byte	0xce5
 3992 0cc3 0C       		.uleb128 0xc
 3993 0cc4 C0060000 		.4byte	.LASF114
 3994 0cc8 01       		.byte	0x1
 3995 0cc9 6B05     		.2byte	0x56b
 3996 0ccb 72000000 		.4byte	0x72
 3997 0ccf 1B0C0000 		.4byte	.LLST53
 3998 0cd3 1E       		.uleb128 0x1e
 3999 0cd4 6F070000 		.4byte	.LASF46
 4000 0cd8 01       		.byte	0x1
 4001 0cd9 6D05     		.2byte	0x56d
 4002 0cdb 25000000 		.4byte	0x25
 4003 0cdf 04       		.byte	0x4
 4004 0ce0 00000000 		.4byte	0
 4005 0ce4 00       		.byte	0
 4006 0ce5 1F       		.uleb128 0x1f
 4007 0ce6 AA0E0000 		.4byte	.LASF115
 4008 0cea 01       		.byte	0x1
 4009 0ceb 1A       		.byte	0x1a
 4010 0cec 72000000 		.4byte	0x72
 4011 0cf0 05       		.uleb128 0x5
 4012 0cf1 03       		.byte	0x3
 4013 0cf2 00000000 		.4byte	PowerMonitor_1_initVar
 4014 0cf6 1F       		.uleb128 0x1f
 4015 0cf7 D1080000 		.4byte	.LASF116
 4016 0cfb 01       		.byte	0x1
 4017 0cfc 1D       		.byte	0x1d
 4018 0cfd 72000000 		.4byte	0x72
 4019 0d01 05       		.uleb128 0x5
 4020 0d02 03       		.byte	0x3
 4021 0d03 00000000 		.4byte	PowerMonitor_1_initThreshold
 4022 0d07 20       		.uleb128 0x20
 4023 0d08 6E010000 		.4byte	0x16e
 4024 0d0c 120D0000 		.4byte	0xd12
 4025 0d10 21       		.uleb128 0x21
 4026 0d11 00       		.byte	0
 4027 0d12 22       		.uleb128 0x22
 4028 0d13 9A010000 		.4byte	.LASF117
 4029 0d17 03       		.byte	0x3
 4030 0d18 44       		.byte	0x44
 4031 0d19 070D0000 		.4byte	0xd07
ARM GAS  C:\Users\user\AppData\Local\Temp\ccywx0XT.s 			page 107


 4032 0d1d 20       		.uleb128 0x20
 4033 0d1e D6010000 		.4byte	0x1d6
 4034 0d22 280D0000 		.4byte	0xd28
 4035 0d26 21       		.uleb128 0x21
 4036 0d27 00       		.byte	0
 4037 0d28 22       		.uleb128 0x22
 4038 0d29 E50D0000 		.4byte	.LASF118
 4039 0d2d 03       		.byte	0x3
 4040 0d2e 51       		.byte	0x51
 4041 0d2f 1D0D0000 		.4byte	0xd1d
 4042 0d33 22       		.uleb128 0x22
 4043 0d34 8B0C0000 		.4byte	.LASF119
 4044 0d38 03       		.byte	0x3
 4045 0d39 59       		.byte	0x59
 4046 0d3a BC000000 		.4byte	0xbc
 4047 0d3e 22       		.uleb128 0x22
 4048 0d3f E40E0000 		.4byte	.LASF120
 4049 0d43 03       		.byte	0x3
 4050 0d44 5D       		.byte	0x5d
 4051 0d45 72000000 		.4byte	0x72
 4052 0d49 1F       		.uleb128 0x1f
 4053 0d4a BC0C0000 		.4byte	.LASF121
 4054 0d4e 01       		.byte	0x1
 4055 0d4f 2F       		.byte	0x2f
 4056 0d50 CD000000 		.4byte	0xcd
 4057 0d54 05       		.uleb128 0x5
 4058 0d55 03       		.byte	0x3
 4059 0d56 00000000 		.4byte	PowerMonitor_1_faultMask
 4060 0d5a 1F       		.uleb128 0x1f
 4061 0d5b 1F0A0000 		.4byte	.LASF122
 4062 0d5f 01       		.byte	0x1
 4063 0d60 30       		.byte	0x30
 4064 0d61 CD000000 		.4byte	0xcd
 4065 0d65 05       		.uleb128 0x5
 4066 0d66 03       		.byte	0x3
 4067 0d67 00000000 		.4byte	PowerMonitor_1_warnMask
 4068 0d6b 1F       		.uleb128 0x1f
 4069 0d6c F4000000 		.4byte	.LASF123
 4070 0d70 01       		.byte	0x1
 4071 0d71 33       		.byte	0x33
 4072 0d72 72000000 		.4byte	0x72
 4073 0d76 05       		.uleb128 0x5
 4074 0d77 03       		.byte	0x3
 4075 0d78 00000000 		.4byte	PowerMonitor_1_faultEnable
 4076 0d7c 1F       		.uleb128 0x1f
 4077 0d7d 2A010000 		.4byte	.LASF124
 4078 0d81 01       		.byte	0x1
 4079 0d82 34       		.byte	0x34
 4080 0d83 72000000 		.4byte	0x72
 4081 0d87 05       		.uleb128 0x5
 4082 0d88 03       		.byte	0x3
 4083 0d89 00000000 		.4byte	PowerMonitor_1_warnEnable
 4084 0d8d 1F       		.uleb128 0x1f
 4085 0d8e B3050000 		.4byte	.LASF125
 4086 0d92 01       		.byte	0x1
 4087 0d93 37       		.byte	0x37
 4088 0d94 BC000000 		.4byte	0xbc
ARM GAS  C:\Users\user\AppData\Local\Temp\ccywx0XT.s 			page 108


 4089 0d98 05       		.uleb128 0x5
 4090 0d99 03       		.byte	0x3
 4091 0d9a 00000000 		.4byte	PowerMonitor_1_warnSources
 4092 0d9e 1F       		.uleb128 0x1f
 4093 0d9f A20D0000 		.4byte	.LASF126
 4094 0da3 01       		.byte	0x1
 4095 0da4 38       		.byte	0x38
 4096 0da5 BC000000 		.4byte	0xbc
 4097 0da9 05       		.uleb128 0x5
 4098 0daa 03       		.byte	0x3
 4099 0dab 00000000 		.4byte	PowerMonitor_1_faultSources
 4100 0daf 1F       		.uleb128 0x1f
 4101 0db0 BB090000 		.4byte	.LASF127
 4102 0db4 01       		.byte	0x1
 4103 0db5 3B       		.byte	0x3b
 4104 0db6 BC000000 		.4byte	0xbc
 4105 0dba 05       		.uleb128 0x5
 4106 0dbb 03       		.byte	0x3
 4107 0dbc 00000000 		.4byte	PowerMonitor_1_warnSourceStatus
 4108 0dc0 1F       		.uleb128 0x1f
 4109 0dc1 EE080000 		.4byte	.LASF128
 4110 0dc5 01       		.byte	0x1
 4111 0dc6 3C       		.byte	0x3c
 4112 0dc7 BC000000 		.4byte	0xbc
 4113 0dcb 05       		.uleb128 0x5
 4114 0dcc 03       		.byte	0x3
 4115 0dcd 00000000 		.4byte	PowerMonitor_1_faultSourceStatus
 4116 0dd1 1F       		.uleb128 0x1f
 4117 0dd2 73080000 		.4byte	.LASF129
 4118 0dd6 01       		.byte	0x1
 4119 0dd7 3F       		.byte	0x3f
 4120 0dd8 CD000000 		.4byte	0xcd
 4121 0ddc 05       		.uleb128 0x5
 4122 0ddd 03       		.byte	0x3
 4123 0dde 00000000 		.4byte	PowerMonitor_1_OCWarnStatus
 4124 0de2 1F       		.uleb128 0x1f
 4125 0de3 0A050000 		.4byte	.LASF130
 4126 0de7 01       		.byte	0x1
 4127 0de8 40       		.byte	0x40
 4128 0de9 CD000000 		.4byte	0xcd
 4129 0ded 05       		.uleb128 0x5
 4130 0dee 03       		.byte	0x3
 4131 0def 00000000 		.4byte	PowerMonitor_1_UVWarnStatus
 4132 0df3 1F       		.uleb128 0x1f
 4133 0df4 3E030000 		.4byte	.LASF131
 4134 0df8 01       		.byte	0x1
 4135 0df9 41       		.byte	0x41
 4136 0dfa CD000000 		.4byte	0xcd
 4137 0dfe 05       		.uleb128 0x5
 4138 0dff 03       		.byte	0x3
 4139 0e00 00000000 		.4byte	PowerMonitor_1_OVWarnStatus
 4140 0e04 1F       		.uleb128 0x1f
 4141 0e05 370A0000 		.4byte	.LASF132
 4142 0e09 01       		.byte	0x1
 4143 0e0a 42       		.byte	0x42
 4144 0e0b CD000000 		.4byte	0xcd
 4145 0e0f 05       		.uleb128 0x5
ARM GAS  C:\Users\user\AppData\Local\Temp\ccywx0XT.s 			page 109


 4146 0e10 03       		.byte	0x3
 4147 0e11 00000000 		.4byte	PowerMonitor_1_OCFaultStatus
 4148 0e15 1F       		.uleb128 0x1f
 4149 0e16 EE010000 		.4byte	.LASF133
 4150 0e1a 01       		.byte	0x1
 4151 0e1b 43       		.byte	0x43
 4152 0e1c CD000000 		.4byte	0xcd
 4153 0e20 05       		.uleb128 0x5
 4154 0e21 03       		.byte	0x3
 4155 0e22 00000000 		.4byte	PowerMonitor_1_UVFaultStatus
 4156 0e26 1F       		.uleb128 0x1f
 4157 0e27 82050000 		.4byte	.LASF134
 4158 0e2b 01       		.byte	0x1
 4159 0e2c 44       		.byte	0x44
 4160 0e2d CD000000 		.4byte	0xcd
 4161 0e31 05       		.uleb128 0x5
 4162 0e32 03       		.byte	0x3
 4163 0e33 00000000 		.4byte	PowerMonitor_1_OVFaultStatus
 4164 0e37 22       		.uleb128 0x22
 4165 0e38 D2020000 		.4byte	.LASF135
 4166 0e3c 03       		.byte	0x3
 4167 0e3d 88       		.byte	0x88
 4168 0e3e 25000000 		.4byte	0x25
 4169 0e42 22       		.uleb128 0x22
 4170 0e43 31000000 		.4byte	.LASF136
 4171 0e47 03       		.byte	0x3
 4172 0e48 89       		.byte	0x89
 4173 0e49 96000000 		.4byte	0x96
 4174 0e4d 22       		.uleb128 0x22
 4175 0e4e ED020000 		.4byte	.LASF137
 4176 0e52 03       		.byte	0x3
 4177 0e53 91       		.byte	0x91
 4178 0e54 25000000 		.4byte	0x25
 4179 0e58 20       		.uleb128 0x20
 4180 0e59 06010000 		.4byte	0x106
 4181 0e5d 630E0000 		.4byte	0xe63
 4182 0e61 21       		.uleb128 0x21
 4183 0e62 00       		.byte	0
 4184 0e63 23       		.uleb128 0x23
 4185 0e64 C6040000 		.4byte	.LASF138
 4186 0e68 03       		.byte	0x3
 4187 0e69 0001     		.2byte	0x100
 4188 0e6b 580E0000 		.4byte	0xe58
 4189 0e6f 23       		.uleb128 0x23
 4190 0e70 9A070000 		.4byte	.LASF139
 4191 0e74 03       		.byte	0x3
 4192 0e75 0201     		.2byte	0x102
 4193 0e77 580E0000 		.4byte	0xe58
 4194 0e7b 20       		.uleb128 0x20
 4195 0e7c 72000000 		.4byte	0x72
 4196 0e80 8B0E0000 		.4byte	0xe8b
 4197 0e84 24       		.uleb128 0x24
 4198 0e85 D9000000 		.4byte	0xd9
 4199 0e89 01       		.byte	0x1
 4200 0e8a 00       		.byte	0
 4201 0e8b 1F       		.uleb128 0x1f
 4202 0e8c 7F070000 		.4byte	.LASF140
ARM GAS  C:\Users\user\AppData\Local\Temp\ccywx0XT.s 			page 110


 4203 0e90 01       		.byte	0x1
 4204 0e91 47       		.byte	0x47
 4205 0e92 7B0E0000 		.4byte	0xe7b
 4206 0e96 05       		.uleb128 0x5
 4207 0e97 03       		.byte	0x3
 4208 0e98 00000000 		.4byte	PowerMonitor_1_VoltageType
 4209 0e9c 1F       		.uleb128 0x1f
 4210 0e9d 09080000 		.4byte	.LASF141
 4211 0ea1 01       		.byte	0x1
 4212 0ea2 4F       		.byte	0x4f
 4213 0ea3 7B0E0000 		.4byte	0xe7b
 4214 0ea7 05       		.uleb128 0x5
 4215 0ea8 03       		.byte	0x3
 4216 0ea9 00000000 		.4byte	PowerMonitor_1_CurrentType
 4217 0ead 1F       		.uleb128 0x1f
 4218 0eae 98020000 		.4byte	.LASF142
 4219 0eb2 01       		.byte	0x1
 4220 0eb3 54       		.byte	0x54
 4221 0eb4 7B0E0000 		.4byte	0xe7b
 4222 0eb8 05       		.uleb128 0x5
 4223 0eb9 03       		.byte	0x3
 4224 0eba 00000000 		.4byte	PowerMonitor_1_ActiveCurrentChan
 4225 0ebe 22       		.uleb128 0x22
 4226 0ebf CE050000 		.4byte	.LASF143
 4227 0ec3 01       		.byte	0x1
 4228 0ec4 20       		.byte	0x20
 4229 0ec5 72000000 		.4byte	0x72
 4230 0ec9 22       		.uleb128 0x22
 4231 0eca 19040000 		.4byte	.LASF144
 4232 0ece 01       		.byte	0x1
 4233 0ecf 21       		.byte	0x21
 4234 0ed0 72000000 		.4byte	0x72
 4235 0ed4 22       		.uleb128 0x22
 4236 0ed5 08030000 		.4byte	.LASF145
 4237 0ed9 01       		.byte	0x1
 4238 0eda 22       		.byte	0x22
 4239 0edb 72000000 		.4byte	0x72
 4240 0edf 20       		.uleb128 0x20
 4241 0ee0 7E000000 		.4byte	0x7e
 4242 0ee4 EF0E0000 		.4byte	0xeef
 4243 0ee8 24       		.uleb128 0x24
 4244 0ee9 D9000000 		.4byte	0xd9
 4245 0eed 01       		.byte	0x1
 4246 0eee 00       		.byte	0
 4247 0eef 1F       		.uleb128 0x1f
 4248 0ef0 CF010000 		.4byte	.LASF146
 4249 0ef4 01       		.byte	0x1
 4250 0ef5 48       		.byte	0x48
 4251 0ef6 DF0E0000 		.4byte	0xedf
 4252 0efa 05       		.uleb128 0x5
 4253 0efb 03       		.byte	0x3
 4254 0efc 00000000 		.4byte	PowerMonitor_1_UVWarnThreshold
 4255 0f00 1F       		.uleb128 0x1f
 4256 0f01 31090000 		.4byte	.LASF147
 4257 0f05 01       		.byte	0x1
 4258 0f06 49       		.byte	0x49
 4259 0f07 DF0E0000 		.4byte	0xedf
ARM GAS  C:\Users\user\AppData\Local\Temp\ccywx0XT.s 			page 111


 4260 0f0b 05       		.uleb128 0x5
 4261 0f0c 03       		.byte	0x3
 4262 0f0d 00000000 		.4byte	PowerMonitor_1_OVWarnThreshold
 4263 0f11 1F       		.uleb128 0x1f
 4264 0f12 42050000 		.4byte	.LASF148
 4265 0f16 01       		.byte	0x1
 4266 0f17 4A       		.byte	0x4a
 4267 0f18 DF0E0000 		.4byte	0xedf
 4268 0f1c 05       		.uleb128 0x5
 4269 0f1d 03       		.byte	0x3
 4270 0f1e 00000000 		.4byte	PowerMonitor_1_UVFaultThreshold
 4271 0f22 1F       		.uleb128 0x1f
 4272 0f23 44010000 		.4byte	.LASF149
 4273 0f27 01       		.byte	0x1
 4274 0f28 4B       		.byte	0x4b
 4275 0f29 DF0E0000 		.4byte	0xedf
 4276 0f2d 05       		.uleb128 0x5
 4277 0f2e 03       		.byte	0x3
 4278 0f2f 00000000 		.4byte	PowerMonitor_1_OVFaultThreshold
 4279 0f33 20       		.uleb128 0x20
 4280 0f34 25000000 		.4byte	0x25
 4281 0f38 430F0000 		.4byte	0xf43
 4282 0f3c 24       		.uleb128 0x24
 4283 0f3d D9000000 		.4byte	0xd9
 4284 0f41 01       		.byte	0x1
 4285 0f42 00       		.byte	0
 4286 0f43 1F       		.uleb128 0x1f
 4287 0f44 BD000000 		.4byte	.LASF150
 4288 0f48 01       		.byte	0x1
 4289 0f49 4C       		.byte	0x4c
 4290 0f4a 330F0000 		.4byte	0xf33
 4291 0f4e 05       		.uleb128 0x5
 4292 0f4f 03       		.byte	0x3
 4293 0f50 00000000 		.4byte	PowerMonitor_1_VoltageScale
 4294 0f54 1F       		.uleb128 0x1f
 4295 0f55 C60D0000 		.4byte	.LASF151
 4296 0f59 01       		.byte	0x1
 4297 0f5a 50       		.byte	0x50
 4298 0f5b 330F0000 		.4byte	0xf33
 4299 0f5f 05       		.uleb128 0x5
 4300 0f60 03       		.byte	0x3
 4301 0f61 00000000 		.4byte	PowerMonitor_1_OCWarnThreshold
 4302 0f65 1F       		.uleb128 0x1f
 4303 0f66 5A030000 		.4byte	.LASF152
 4304 0f6a 01       		.byte	0x1
 4305 0f6b 51       		.byte	0x51
 4306 0f6c 330F0000 		.4byte	0xf33
 4307 0f70 05       		.uleb128 0x5
 4308 0f71 03       		.byte	0x3
 4309 0f72 00000000 		.4byte	PowerMonitor_1_OCFaultThreshold
 4310 0f76 1F       		.uleb128 0x1f
 4311 0f77 540E0000 		.4byte	.LASF153
 4312 0f7b 01       		.byte	0x1
 4313 0f7c 52       		.byte	0x52
 4314 0f7d 330F0000 		.4byte	0xf33
 4315 0f81 05       		.uleb128 0x5
 4316 0f82 03       		.byte	0x3
ARM GAS  C:\Users\user\AppData\Local\Temp\ccywx0XT.s 			page 112


 4317 0f83 00000000 		.4byte	PowerMonitor_1_RShunt
 4318 0f87 1F       		.uleb128 0x1f
 4319 0f88 DD040000 		.4byte	.LASF154
 4320 0f8c 01       		.byte	0x1
 4321 0f8d 53       		.byte	0x53
 4322 0f8e 330F0000 		.4byte	0xf33
 4323 0f92 05       		.uleb128 0x5
 4324 0f93 03       		.byte	0x3
 4325 0f94 00000000 		.4byte	PowerMonitor_1_CSAGain
 4326 0f98 25       		.uleb128 0x25
 4327 0f99 F70C0000 		.4byte	.LASF155
 4328 0f9d F70C0000 		.4byte	.LASF155
 4329 0fa1 03       		.byte	0x3
 4330 0fa2 F0       		.byte	0xf0
 4331 0fa3 25       		.uleb128 0x25
 4332 0fa4 750A0000 		.4byte	.LASF156
 4333 0fa8 750A0000 		.4byte	.LASF156
 4334 0fac 03       		.byte	0x3
 4335 0fad EF       		.byte	0xef
 4336 0fae 25       		.uleb128 0x25
 4337 0faf 4B020000 		.4byte	.LASF157
 4338 0fb3 4B020000 		.4byte	.LASF157
 4339 0fb7 04       		.byte	0x4
 4340 0fb8 26       		.byte	0x26
 4341 0fb9 25       		.uleb128 0x25
 4342 0fba A70B0000 		.4byte	.LASF158
 4343 0fbe A70B0000 		.4byte	.LASF158
 4344 0fc2 05       		.byte	0x5
 4345 0fc3 26       		.byte	0x26
 4346 0fc4 25       		.uleb128 0x25
 4347 0fc5 10060000 		.4byte	.LASF159
 4348 0fc9 10060000 		.4byte	.LASF159
 4349 0fcd 06       		.byte	0x6
 4350 0fce 3F       		.byte	0x3f
 4351 0fcf 25       		.uleb128 0x25
 4352 0fd0 DB060000 		.4byte	.LASF160
 4353 0fd4 DB060000 		.4byte	.LASF160
 4354 0fd8 07       		.byte	0x7
 4355 0fd9 4A       		.byte	0x4a
 4356 0fda 25       		.uleb128 0x25
 4357 0fdb 4A070000 		.4byte	.LASF161
 4358 0fdf 4A070000 		.4byte	.LASF161
 4359 0fe3 04       		.byte	0x4
 4360 0fe4 24       		.byte	0x24
 4361 0fe5 25       		.uleb128 0x25
 4362 0fe6 E30A0000 		.4byte	.LASF162
 4363 0fea E30A0000 		.4byte	.LASF162
 4364 0fee 05       		.byte	0x5
 4365 0fef 24       		.byte	0x24
 4366 0ff0 25       		.uleb128 0x25
 4367 0ff1 3C060000 		.4byte	.LASF163
 4368 0ff5 3C060000 		.4byte	.LASF163
 4369 0ff9 06       		.byte	0x6
 4370 0ffa 3E       		.byte	0x3e
 4371 0ffb 25       		.uleb128 0x25
 4372 0ffc 0F070000 		.4byte	.LASF164
 4373 1000 0F070000 		.4byte	.LASF164
ARM GAS  C:\Users\user\AppData\Local\Temp\ccywx0XT.s 			page 113


 4374 1004 06       		.byte	0x6
 4375 1005 41       		.byte	0x41
 4376 1006 00       		.byte	0
 4377              		.section	.debug_abbrev,"",%progbits
 4378              	.Ldebug_abbrev0:
 4379 0000 01       		.uleb128 0x1
 4380 0001 11       		.uleb128 0x11
 4381 0002 01       		.byte	0x1
 4382 0003 25       		.uleb128 0x25
 4383 0004 0E       		.uleb128 0xe
 4384 0005 13       		.uleb128 0x13
 4385 0006 0B       		.uleb128 0xb
 4386 0007 03       		.uleb128 0x3
 4387 0008 0E       		.uleb128 0xe
 4388 0009 1B       		.uleb128 0x1b
 4389 000a 0E       		.uleb128 0xe
 4390 000b 55       		.uleb128 0x55
 4391 000c 17       		.uleb128 0x17
 4392 000d 11       		.uleb128 0x11
 4393 000e 01       		.uleb128 0x1
 4394 000f 10       		.uleb128 0x10
 4395 0010 17       		.uleb128 0x17
 4396 0011 00       		.byte	0
 4397 0012 00       		.byte	0
 4398 0013 02       		.uleb128 0x2
 4399 0014 24       		.uleb128 0x24
 4400 0015 00       		.byte	0
 4401 0016 0B       		.uleb128 0xb
 4402 0017 0B       		.uleb128 0xb
 4403 0018 3E       		.uleb128 0x3e
 4404 0019 0B       		.uleb128 0xb
 4405 001a 03       		.uleb128 0x3
 4406 001b 0E       		.uleb128 0xe
 4407 001c 00       		.byte	0
 4408 001d 00       		.byte	0
 4409 001e 03       		.uleb128 0x3
 4410 001f 24       		.uleb128 0x24
 4411 0020 00       		.byte	0
 4412 0021 0B       		.uleb128 0xb
 4413 0022 0B       		.uleb128 0xb
 4414 0023 3E       		.uleb128 0x3e
 4415 0024 0B       		.uleb128 0xb
 4416 0025 03       		.uleb128 0x3
 4417 0026 08       		.uleb128 0x8
 4418 0027 00       		.byte	0
 4419 0028 00       		.byte	0
 4420 0029 04       		.uleb128 0x4
 4421 002a 16       		.uleb128 0x16
 4422 002b 00       		.byte	0
 4423 002c 03       		.uleb128 0x3
 4424 002d 0E       		.uleb128 0xe
 4425 002e 3A       		.uleb128 0x3a
 4426 002f 0B       		.uleb128 0xb
 4427 0030 3B       		.uleb128 0x3b
 4428 0031 05       		.uleb128 0x5
 4429 0032 49       		.uleb128 0x49
 4430 0033 13       		.uleb128 0x13
ARM GAS  C:\Users\user\AppData\Local\Temp\ccywx0XT.s 			page 114


 4431 0034 00       		.byte	0
 4432 0035 00       		.byte	0
 4433 0036 05       		.uleb128 0x5
 4434 0037 35       		.uleb128 0x35
 4435 0038 00       		.byte	0
 4436 0039 49       		.uleb128 0x49
 4437 003a 13       		.uleb128 0x13
 4438 003b 00       		.byte	0
 4439 003c 00       		.byte	0
 4440 003d 06       		.uleb128 0x6
 4441 003e 13       		.uleb128 0x13
 4442 003f 01       		.byte	0x1
 4443 0040 0B       		.uleb128 0xb
 4444 0041 0B       		.uleb128 0xb
 4445 0042 3A       		.uleb128 0x3a
 4446 0043 0B       		.uleb128 0xb
 4447 0044 3B       		.uleb128 0x3b
 4448 0045 0B       		.uleb128 0xb
 4449 0046 01       		.uleb128 0x1
 4450 0047 13       		.uleb128 0x13
 4451 0048 00       		.byte	0
 4452 0049 00       		.byte	0
 4453 004a 07       		.uleb128 0x7
 4454 004b 0D       		.uleb128 0xd
 4455 004c 00       		.byte	0
 4456 004d 03       		.uleb128 0x3
 4457 004e 08       		.uleb128 0x8
 4458 004f 3A       		.uleb128 0x3a
 4459 0050 0B       		.uleb128 0xb
 4460 0051 3B       		.uleb128 0x3b
 4461 0052 0B       		.uleb128 0xb
 4462 0053 49       		.uleb128 0x49
 4463 0054 13       		.uleb128 0x13
 4464 0055 38       		.uleb128 0x38
 4465 0056 0B       		.uleb128 0xb
 4466 0057 00       		.byte	0
 4467 0058 00       		.byte	0
 4468 0059 08       		.uleb128 0x8
 4469 005a 0D       		.uleb128 0xd
 4470 005b 00       		.byte	0
 4471 005c 03       		.uleb128 0x3
 4472 005d 0E       		.uleb128 0xe
 4473 005e 3A       		.uleb128 0x3a
 4474 005f 0B       		.uleb128 0xb
 4475 0060 3B       		.uleb128 0x3b
 4476 0061 0B       		.uleb128 0xb
 4477 0062 49       		.uleb128 0x49
 4478 0063 13       		.uleb128 0x13
 4479 0064 38       		.uleb128 0x38
 4480 0065 0B       		.uleb128 0xb
 4481 0066 00       		.byte	0
 4482 0067 00       		.byte	0
 4483 0068 09       		.uleb128 0x9
 4484 0069 16       		.uleb128 0x16
 4485 006a 00       		.byte	0
 4486 006b 03       		.uleb128 0x3
 4487 006c 0E       		.uleb128 0xe
ARM GAS  C:\Users\user\AppData\Local\Temp\ccywx0XT.s 			page 115


 4488 006d 3A       		.uleb128 0x3a
 4489 006e 0B       		.uleb128 0xb
 4490 006f 3B       		.uleb128 0x3b
 4491 0070 0B       		.uleb128 0xb
 4492 0071 49       		.uleb128 0x49
 4493 0072 13       		.uleb128 0x13
 4494 0073 00       		.byte	0
 4495 0074 00       		.byte	0
 4496 0075 0A       		.uleb128 0xa
 4497 0076 2E       		.uleb128 0x2e
 4498 0077 01       		.byte	0x1
 4499 0078 03       		.uleb128 0x3
 4500 0079 0E       		.uleb128 0xe
 4501 007a 3A       		.uleb128 0x3a
 4502 007b 0B       		.uleb128 0xb
 4503 007c 3B       		.uleb128 0x3b
 4504 007d 05       		.uleb128 0x5
 4505 007e 27       		.uleb128 0x27
 4506 007f 19       		.uleb128 0x19
 4507 0080 49       		.uleb128 0x49
 4508 0081 13       		.uleb128 0x13
 4509 0082 11       		.uleb128 0x11
 4510 0083 01       		.uleb128 0x1
 4511 0084 12       		.uleb128 0x12
 4512 0085 06       		.uleb128 0x6
 4513 0086 40       		.uleb128 0x40
 4514 0087 18       		.uleb128 0x18
 4515 0088 9642     		.uleb128 0x2116
 4516 008a 19       		.uleb128 0x19
 4517 008b 01       		.uleb128 0x1
 4518 008c 13       		.uleb128 0x13
 4519 008d 00       		.byte	0
 4520 008e 00       		.byte	0
 4521 008f 0B       		.uleb128 0xb
 4522 0090 05       		.uleb128 0x5
 4523 0091 00       		.byte	0
 4524 0092 03       		.uleb128 0x3
 4525 0093 08       		.uleb128 0x8
 4526 0094 3A       		.uleb128 0x3a
 4527 0095 0B       		.uleb128 0xb
 4528 0096 3B       		.uleb128 0x3b
 4529 0097 05       		.uleb128 0x5
 4530 0098 49       		.uleb128 0x49
 4531 0099 13       		.uleb128 0x13
 4532 009a 02       		.uleb128 0x2
 4533 009b 17       		.uleb128 0x17
 4534 009c 00       		.byte	0
 4535 009d 00       		.byte	0
 4536 009e 0C       		.uleb128 0xc
 4537 009f 05       		.uleb128 0x5
 4538 00a0 00       		.byte	0
 4539 00a1 03       		.uleb128 0x3
 4540 00a2 0E       		.uleb128 0xe
 4541 00a3 3A       		.uleb128 0x3a
 4542 00a4 0B       		.uleb128 0xb
 4543 00a5 3B       		.uleb128 0x3b
 4544 00a6 05       		.uleb128 0x5
ARM GAS  C:\Users\user\AppData\Local\Temp\ccywx0XT.s 			page 116


 4545 00a7 49       		.uleb128 0x49
 4546 00a8 13       		.uleb128 0x13
 4547 00a9 02       		.uleb128 0x2
 4548 00aa 17       		.uleb128 0x17
 4549 00ab 00       		.byte	0
 4550 00ac 00       		.byte	0
 4551 00ad 0D       		.uleb128 0xd
 4552 00ae 34       		.uleb128 0x34
 4553 00af 00       		.byte	0
 4554 00b0 03       		.uleb128 0x3
 4555 00b1 0E       		.uleb128 0xe
 4556 00b2 3A       		.uleb128 0x3a
 4557 00b3 0B       		.uleb128 0xb
 4558 00b4 3B       		.uleb128 0x3b
 4559 00b5 05       		.uleb128 0x5
 4560 00b6 49       		.uleb128 0x49
 4561 00b7 13       		.uleb128 0x13
 4562 00b8 02       		.uleb128 0x2
 4563 00b9 17       		.uleb128 0x17
 4564 00ba 00       		.byte	0
 4565 00bb 00       		.byte	0
 4566 00bc 0E       		.uleb128 0xe
 4567 00bd 0F       		.uleb128 0xf
 4568 00be 00       		.byte	0
 4569 00bf 0B       		.uleb128 0xb
 4570 00c0 0B       		.uleb128 0xb
 4571 00c1 49       		.uleb128 0x49
 4572 00c2 13       		.uleb128 0x13
 4573 00c3 00       		.byte	0
 4574 00c4 00       		.byte	0
 4575 00c5 0F       		.uleb128 0xf
 4576 00c6 2E       		.uleb128 0x2e
 4577 00c7 01       		.byte	0x1
 4578 00c8 03       		.uleb128 0x3
 4579 00c9 0E       		.uleb128 0xe
 4580 00ca 3A       		.uleb128 0x3a
 4581 00cb 0B       		.uleb128 0xb
 4582 00cc 3B       		.uleb128 0x3b
 4583 00cd 05       		.uleb128 0x5
 4584 00ce 27       		.uleb128 0x27
 4585 00cf 19       		.uleb128 0x19
 4586 00d0 49       		.uleb128 0x49
 4587 00d1 13       		.uleb128 0x13
 4588 00d2 11       		.uleb128 0x11
 4589 00d3 01       		.uleb128 0x1
 4590 00d4 12       		.uleb128 0x12
 4591 00d5 06       		.uleb128 0x6
 4592 00d6 40       		.uleb128 0x40
 4593 00d7 18       		.uleb128 0x18
 4594 00d8 9742     		.uleb128 0x2117
 4595 00da 19       		.uleb128 0x19
 4596 00db 01       		.uleb128 0x1
 4597 00dc 13       		.uleb128 0x13
 4598 00dd 00       		.byte	0
 4599 00de 00       		.byte	0
 4600 00df 10       		.uleb128 0x10
 4601 00e0 34       		.uleb128 0x34
ARM GAS  C:\Users\user\AppData\Local\Temp\ccywx0XT.s 			page 117


 4602 00e1 00       		.byte	0
 4603 00e2 03       		.uleb128 0x3
 4604 00e3 08       		.uleb128 0x8
 4605 00e4 3A       		.uleb128 0x3a
 4606 00e5 0B       		.uleb128 0xb
 4607 00e6 3B       		.uleb128 0x3b
 4608 00e7 05       		.uleb128 0x5
 4609 00e8 49       		.uleb128 0x49
 4610 00e9 13       		.uleb128 0x13
 4611 00ea 02       		.uleb128 0x2
 4612 00eb 17       		.uleb128 0x17
 4613 00ec 00       		.byte	0
 4614 00ed 00       		.byte	0
 4615 00ee 11       		.uleb128 0x11
 4616 00ef 898201   		.uleb128 0x4109
 4617 00f2 01       		.byte	0x1
 4618 00f3 11       		.uleb128 0x11
 4619 00f4 01       		.uleb128 0x1
 4620 00f5 31       		.uleb128 0x31
 4621 00f6 13       		.uleb128 0x13
 4622 00f7 01       		.uleb128 0x1
 4623 00f8 13       		.uleb128 0x13
 4624 00f9 00       		.byte	0
 4625 00fa 00       		.byte	0
 4626 00fb 12       		.uleb128 0x12
 4627 00fc 8A8201   		.uleb128 0x410a
 4628 00ff 00       		.byte	0
 4629 0100 02       		.uleb128 0x2
 4630 0101 18       		.uleb128 0x18
 4631 0102 9142     		.uleb128 0x2111
 4632 0104 18       		.uleb128 0x18
 4633 0105 00       		.byte	0
 4634 0106 00       		.byte	0
 4635 0107 13       		.uleb128 0x13
 4636 0108 898201   		.uleb128 0x4109
 4637 010b 00       		.byte	0
 4638 010c 11       		.uleb128 0x11
 4639 010d 01       		.uleb128 0x1
 4640 010e 31       		.uleb128 0x31
 4641 010f 13       		.uleb128 0x13
 4642 0110 00       		.byte	0
 4643 0111 00       		.byte	0
 4644 0112 14       		.uleb128 0x14
 4645 0113 2E       		.uleb128 0x2e
 4646 0114 01       		.byte	0x1
 4647 0115 03       		.uleb128 0x3
 4648 0116 0E       		.uleb128 0xe
 4649 0117 3A       		.uleb128 0x3a
 4650 0118 0B       		.uleb128 0xb
 4651 0119 3B       		.uleb128 0x3b
 4652 011a 05       		.uleb128 0x5
 4653 011b 27       		.uleb128 0x27
 4654 011c 19       		.uleb128 0x19
 4655 011d 11       		.uleb128 0x11
 4656 011e 01       		.uleb128 0x1
 4657 011f 12       		.uleb128 0x12
 4658 0120 06       		.uleb128 0x6
ARM GAS  C:\Users\user\AppData\Local\Temp\ccywx0XT.s 			page 118


 4659 0121 40       		.uleb128 0x40
 4660 0122 18       		.uleb128 0x18
 4661 0123 9742     		.uleb128 0x2117
 4662 0125 19       		.uleb128 0x19
 4663 0126 01       		.uleb128 0x1
 4664 0127 13       		.uleb128 0x13
 4665 0128 00       		.byte	0
 4666 0129 00       		.byte	0
 4667 012a 15       		.uleb128 0x15
 4668 012b 2E       		.uleb128 0x2e
 4669 012c 01       		.byte	0x1
 4670 012d 3F       		.uleb128 0x3f
 4671 012e 19       		.uleb128 0x19
 4672 012f 03       		.uleb128 0x3
 4673 0130 0E       		.uleb128 0xe
 4674 0131 3A       		.uleb128 0x3a
 4675 0132 0B       		.uleb128 0xb
 4676 0133 3B       		.uleb128 0x3b
 4677 0134 0B       		.uleb128 0xb
 4678 0135 27       		.uleb128 0x27
 4679 0136 19       		.uleb128 0x19
 4680 0137 11       		.uleb128 0x11
 4681 0138 01       		.uleb128 0x1
 4682 0139 12       		.uleb128 0x12
 4683 013a 06       		.uleb128 0x6
 4684 013b 40       		.uleb128 0x40
 4685 013c 18       		.uleb128 0x18
 4686 013d 9742     		.uleb128 0x2117
 4687 013f 19       		.uleb128 0x19
 4688 0140 01       		.uleb128 0x1
 4689 0141 13       		.uleb128 0x13
 4690 0142 00       		.byte	0
 4691 0143 00       		.byte	0
 4692 0144 16       		.uleb128 0x16
 4693 0145 2E       		.uleb128 0x2e
 4694 0146 00       		.byte	0
 4695 0147 3F       		.uleb128 0x3f
 4696 0148 19       		.uleb128 0x19
 4697 0149 03       		.uleb128 0x3
 4698 014a 0E       		.uleb128 0xe
 4699 014b 3A       		.uleb128 0x3a
 4700 014c 0B       		.uleb128 0xb
 4701 014d 3B       		.uleb128 0x3b
 4702 014e 05       		.uleb128 0x5
 4703 014f 27       		.uleb128 0x27
 4704 0150 19       		.uleb128 0x19
 4705 0151 11       		.uleb128 0x11
 4706 0152 01       		.uleb128 0x1
 4707 0153 12       		.uleb128 0x12
 4708 0154 06       		.uleb128 0x6
 4709 0155 40       		.uleb128 0x40
 4710 0156 18       		.uleb128 0x18
 4711 0157 9742     		.uleb128 0x2117
 4712 0159 19       		.uleb128 0x19
 4713 015a 00       		.byte	0
 4714 015b 00       		.byte	0
 4715 015c 17       		.uleb128 0x17
ARM GAS  C:\Users\user\AppData\Local\Temp\ccywx0XT.s 			page 119


 4716 015d 2E       		.uleb128 0x2e
 4717 015e 01       		.byte	0x1
 4718 015f 3F       		.uleb128 0x3f
 4719 0160 19       		.uleb128 0x19
 4720 0161 03       		.uleb128 0x3
 4721 0162 0E       		.uleb128 0xe
 4722 0163 3A       		.uleb128 0x3a
 4723 0164 0B       		.uleb128 0xb
 4724 0165 3B       		.uleb128 0x3b
 4725 0166 05       		.uleb128 0x5
 4726 0167 27       		.uleb128 0x27
 4727 0168 19       		.uleb128 0x19
 4728 0169 11       		.uleb128 0x11
 4729 016a 01       		.uleb128 0x1
 4730 016b 12       		.uleb128 0x12
 4731 016c 06       		.uleb128 0x6
 4732 016d 40       		.uleb128 0x40
 4733 016e 18       		.uleb128 0x18
 4734 016f 9742     		.uleb128 0x2117
 4735 0171 19       		.uleb128 0x19
 4736 0172 01       		.uleb128 0x1
 4737 0173 13       		.uleb128 0x13
 4738 0174 00       		.byte	0
 4739 0175 00       		.byte	0
 4740 0176 18       		.uleb128 0x18
 4741 0177 2E       		.uleb128 0x2e
 4742 0178 00       		.byte	0
 4743 0179 3F       		.uleb128 0x3f
 4744 017a 19       		.uleb128 0x19
 4745 017b 03       		.uleb128 0x3
 4746 017c 0E       		.uleb128 0xe
 4747 017d 3A       		.uleb128 0x3a
 4748 017e 0B       		.uleb128 0xb
 4749 017f 3B       		.uleb128 0x3b
 4750 0180 05       		.uleb128 0x5
 4751 0181 27       		.uleb128 0x27
 4752 0182 19       		.uleb128 0x19
 4753 0183 49       		.uleb128 0x49
 4754 0184 13       		.uleb128 0x13
 4755 0185 11       		.uleb128 0x11
 4756 0186 01       		.uleb128 0x1
 4757 0187 12       		.uleb128 0x12
 4758 0188 06       		.uleb128 0x6
 4759 0189 40       		.uleb128 0x40
 4760 018a 18       		.uleb128 0x18
 4761 018b 9742     		.uleb128 0x2117
 4762 018d 19       		.uleb128 0x19
 4763 018e 00       		.byte	0
 4764 018f 00       		.byte	0
 4765 0190 19       		.uleb128 0x19
 4766 0191 2E       		.uleb128 0x2e
 4767 0192 01       		.byte	0x1
 4768 0193 3F       		.uleb128 0x3f
 4769 0194 19       		.uleb128 0x19
 4770 0195 03       		.uleb128 0x3
 4771 0196 0E       		.uleb128 0xe
 4772 0197 3A       		.uleb128 0x3a
ARM GAS  C:\Users\user\AppData\Local\Temp\ccywx0XT.s 			page 120


 4773 0198 0B       		.uleb128 0xb
 4774 0199 3B       		.uleb128 0x3b
 4775 019a 05       		.uleb128 0x5
 4776 019b 27       		.uleb128 0x27
 4777 019c 19       		.uleb128 0x19
 4778 019d 49       		.uleb128 0x49
 4779 019e 13       		.uleb128 0x13
 4780 019f 11       		.uleb128 0x11
 4781 01a0 01       		.uleb128 0x1
 4782 01a1 12       		.uleb128 0x12
 4783 01a2 06       		.uleb128 0x6
 4784 01a3 40       		.uleb128 0x40
 4785 01a4 18       		.uleb128 0x18
 4786 01a5 9742     		.uleb128 0x2117
 4787 01a7 19       		.uleb128 0x19
 4788 01a8 01       		.uleb128 0x1
 4789 01a9 13       		.uleb128 0x13
 4790 01aa 00       		.byte	0
 4791 01ab 00       		.byte	0
 4792 01ac 1A       		.uleb128 0x1a
 4793 01ad 34       		.uleb128 0x34
 4794 01ae 00       		.byte	0
 4795 01af 03       		.uleb128 0x3
 4796 01b0 0E       		.uleb128 0xe
 4797 01b1 3A       		.uleb128 0x3a
 4798 01b2 0B       		.uleb128 0xb
 4799 01b3 3B       		.uleb128 0x3b
 4800 01b4 05       		.uleb128 0x5
 4801 01b5 49       		.uleb128 0x49
 4802 01b6 13       		.uleb128 0x13
 4803 01b7 02       		.uleb128 0x2
 4804 01b8 18       		.uleb128 0x18
 4805 01b9 00       		.byte	0
 4806 01ba 00       		.byte	0
 4807 01bb 1B       		.uleb128 0x1b
 4808 01bc 898201   		.uleb128 0x4109
 4809 01bf 01       		.byte	0x1
 4810 01c0 11       		.uleb128 0x11
 4811 01c1 01       		.uleb128 0x1
 4812 01c2 31       		.uleb128 0x31
 4813 01c3 13       		.uleb128 0x13
 4814 01c4 00       		.byte	0
 4815 01c5 00       		.byte	0
 4816 01c6 1C       		.uleb128 0x1c
 4817 01c7 34       		.uleb128 0x34
 4818 01c8 00       		.byte	0
 4819 01c9 03       		.uleb128 0x3
 4820 01ca 0E       		.uleb128 0xe
 4821 01cb 3A       		.uleb128 0x3a
 4822 01cc 0B       		.uleb128 0xb
 4823 01cd 3B       		.uleb128 0x3b
 4824 01ce 0B       		.uleb128 0xb
 4825 01cf 49       		.uleb128 0x49
 4826 01d0 13       		.uleb128 0x13
 4827 01d1 02       		.uleb128 0x2
 4828 01d2 17       		.uleb128 0x17
 4829 01d3 00       		.byte	0
ARM GAS  C:\Users\user\AppData\Local\Temp\ccywx0XT.s 			page 121


 4830 01d4 00       		.byte	0
 4831 01d5 1D       		.uleb128 0x1d
 4832 01d6 2E       		.uleb128 0x2e
 4833 01d7 01       		.byte	0x1
 4834 01d8 3F       		.uleb128 0x3f
 4835 01d9 19       		.uleb128 0x19
 4836 01da 03       		.uleb128 0x3
 4837 01db 0E       		.uleb128 0xe
 4838 01dc 3A       		.uleb128 0x3a
 4839 01dd 0B       		.uleb128 0xb
 4840 01de 3B       		.uleb128 0x3b
 4841 01df 05       		.uleb128 0x5
 4842 01e0 27       		.uleb128 0x27
 4843 01e1 19       		.uleb128 0x19
 4844 01e2 49       		.uleb128 0x49
 4845 01e3 13       		.uleb128 0x13
 4846 01e4 11       		.uleb128 0x11
 4847 01e5 01       		.uleb128 0x1
 4848 01e6 12       		.uleb128 0x12
 4849 01e7 06       		.uleb128 0x6
 4850 01e8 40       		.uleb128 0x40
 4851 01e9 18       		.uleb128 0x18
 4852 01ea 9642     		.uleb128 0x2116
 4853 01ec 19       		.uleb128 0x19
 4854 01ed 01       		.uleb128 0x1
 4855 01ee 13       		.uleb128 0x13
 4856 01ef 00       		.byte	0
 4857 01f0 00       		.byte	0
 4858 01f1 1E       		.uleb128 0x1e
 4859 01f2 34       		.uleb128 0x34
 4860 01f3 00       		.byte	0
 4861 01f4 03       		.uleb128 0x3
 4862 01f5 0E       		.uleb128 0xe
 4863 01f6 3A       		.uleb128 0x3a
 4864 01f7 0B       		.uleb128 0xb
 4865 01f8 3B       		.uleb128 0x3b
 4866 01f9 05       		.uleb128 0x5
 4867 01fa 49       		.uleb128 0x49
 4868 01fb 13       		.uleb128 0x13
 4869 01fc 1C       		.uleb128 0x1c
 4870 01fd 0A       		.uleb128 0xa
 4871 01fe 00       		.byte	0
 4872 01ff 00       		.byte	0
 4873 0200 1F       		.uleb128 0x1f
 4874 0201 34       		.uleb128 0x34
 4875 0202 00       		.byte	0
 4876 0203 03       		.uleb128 0x3
 4877 0204 0E       		.uleb128 0xe
 4878 0205 3A       		.uleb128 0x3a
 4879 0206 0B       		.uleb128 0xb
 4880 0207 3B       		.uleb128 0x3b
 4881 0208 0B       		.uleb128 0xb
 4882 0209 49       		.uleb128 0x49
 4883 020a 13       		.uleb128 0x13
 4884 020b 3F       		.uleb128 0x3f
 4885 020c 19       		.uleb128 0x19
 4886 020d 02       		.uleb128 0x2
ARM GAS  C:\Users\user\AppData\Local\Temp\ccywx0XT.s 			page 122


 4887 020e 18       		.uleb128 0x18
 4888 020f 00       		.byte	0
 4889 0210 00       		.byte	0
 4890 0211 20       		.uleb128 0x20
 4891 0212 01       		.uleb128 0x1
 4892 0213 01       		.byte	0x1
 4893 0214 49       		.uleb128 0x49
 4894 0215 13       		.uleb128 0x13
 4895 0216 01       		.uleb128 0x1
 4896 0217 13       		.uleb128 0x13
 4897 0218 00       		.byte	0
 4898 0219 00       		.byte	0
 4899 021a 21       		.uleb128 0x21
 4900 021b 21       		.uleb128 0x21
 4901 021c 00       		.byte	0
 4902 021d 00       		.byte	0
 4903 021e 00       		.byte	0
 4904 021f 22       		.uleb128 0x22
 4905 0220 34       		.uleb128 0x34
 4906 0221 00       		.byte	0
 4907 0222 03       		.uleb128 0x3
 4908 0223 0E       		.uleb128 0xe
 4909 0224 3A       		.uleb128 0x3a
 4910 0225 0B       		.uleb128 0xb
 4911 0226 3B       		.uleb128 0x3b
 4912 0227 0B       		.uleb128 0xb
 4913 0228 49       		.uleb128 0x49
 4914 0229 13       		.uleb128 0x13
 4915 022a 3F       		.uleb128 0x3f
 4916 022b 19       		.uleb128 0x19
 4917 022c 3C       		.uleb128 0x3c
 4918 022d 19       		.uleb128 0x19
 4919 022e 00       		.byte	0
 4920 022f 00       		.byte	0
 4921 0230 23       		.uleb128 0x23
 4922 0231 34       		.uleb128 0x34
 4923 0232 00       		.byte	0
 4924 0233 03       		.uleb128 0x3
 4925 0234 0E       		.uleb128 0xe
 4926 0235 3A       		.uleb128 0x3a
 4927 0236 0B       		.uleb128 0xb
 4928 0237 3B       		.uleb128 0x3b
 4929 0238 05       		.uleb128 0x5
 4930 0239 49       		.uleb128 0x49
 4931 023a 13       		.uleb128 0x13
 4932 023b 3F       		.uleb128 0x3f
 4933 023c 19       		.uleb128 0x19
 4934 023d 3C       		.uleb128 0x3c
 4935 023e 19       		.uleb128 0x19
 4936 023f 00       		.byte	0
 4937 0240 00       		.byte	0
 4938 0241 24       		.uleb128 0x24
 4939 0242 21       		.uleb128 0x21
 4940 0243 00       		.byte	0
 4941 0244 49       		.uleb128 0x49
 4942 0245 13       		.uleb128 0x13
 4943 0246 2F       		.uleb128 0x2f
ARM GAS  C:\Users\user\AppData\Local\Temp\ccywx0XT.s 			page 123


 4944 0247 0B       		.uleb128 0xb
 4945 0248 00       		.byte	0
 4946 0249 00       		.byte	0
 4947 024a 25       		.uleb128 0x25
 4948 024b 2E       		.uleb128 0x2e
 4949 024c 00       		.byte	0
 4950 024d 3F       		.uleb128 0x3f
 4951 024e 19       		.uleb128 0x19
 4952 024f 3C       		.uleb128 0x3c
 4953 0250 19       		.uleb128 0x19
 4954 0251 6E       		.uleb128 0x6e
 4955 0252 0E       		.uleb128 0xe
 4956 0253 03       		.uleb128 0x3
 4957 0254 0E       		.uleb128 0xe
 4958 0255 3A       		.uleb128 0x3a
 4959 0256 0B       		.uleb128 0xb
 4960 0257 3B       		.uleb128 0x3b
 4961 0258 0B       		.uleb128 0xb
 4962 0259 00       		.byte	0
 4963 025a 00       		.byte	0
 4964 025b 00       		.byte	0
 4965              		.section	.debug_loc,"",%progbits
 4966              	.Ldebug_loc0:
 4967              	.LLST0:
 4968 0000 00000000 		.4byte	.LVL0
 4969 0004 09000000 		.4byte	.LVL1-1
 4970 0008 0100     		.2byte	0x1
 4971 000a 50       		.byte	0x50
 4972 000b 09000000 		.4byte	.LVL1-1
 4973 000f A8000000 		.4byte	.LFE40
 4974 0013 0400     		.2byte	0x4
 4975 0015 F3       		.byte	0xf3
 4976 0016 01       		.uleb128 0x1
 4977 0017 50       		.byte	0x50
 4978 0018 9F       		.byte	0x9f
 4979 0019 00000000 		.4byte	0
 4980 001d 00000000 		.4byte	0
 4981              	.LLST1:
 4982 0021 00000000 		.4byte	.LVL0
 4983 0025 09000000 		.4byte	.LVL1-1
 4984 0029 0100     		.2byte	0x1
 4985 002b 51       		.byte	0x51
 4986 002c 09000000 		.4byte	.LVL1-1
 4987 0030 A8000000 		.4byte	.LFE40
 4988 0034 0400     		.2byte	0x4
 4989 0036 F3       		.byte	0xf3
 4990 0037 01       		.uleb128 0x1
 4991 0038 51       		.byte	0x51
 4992 0039 9F       		.byte	0x9f
 4993 003a 00000000 		.4byte	0
 4994 003e 00000000 		.4byte	0
 4995              	.LLST2:
 4996 0042 00000000 		.4byte	.LVL0
 4997 0046 09000000 		.4byte	.LVL1-1
 4998 004a 0100     		.2byte	0x1
 4999 004c 52       		.byte	0x52
 5000 004d 09000000 		.4byte	.LVL1-1
ARM GAS  C:\Users\user\AppData\Local\Temp\ccywx0XT.s 			page 124


 5001 0051 96000000 		.4byte	.LVL19
 5002 0055 0100     		.2byte	0x1
 5003 0057 55       		.byte	0x55
 5004 0058 96000000 		.4byte	.LVL19
 5005 005c A8000000 		.4byte	.LFE40
 5006 0060 0400     		.2byte	0x4
 5007 0062 F3       		.byte	0xf3
 5008 0063 01       		.uleb128 0x1
 5009 0064 52       		.byte	0x52
 5010 0065 9F       		.byte	0x9f
 5011 0066 00000000 		.4byte	0
 5012 006a 00000000 		.4byte	0
 5013              	.LLST3:
 5014 006e 0A000000 		.4byte	.LVL1
 5015 0072 21000000 		.4byte	.LVL2-1
 5016 0076 0100     		.2byte	0x1
 5017 0078 50       		.byte	0x50
 5018 0079 24000000 		.4byte	.LVL3
 5019 007d 31000000 		.4byte	.LVL4-1
 5020 0081 0100     		.2byte	0x1
 5021 0083 50       		.byte	0x50
 5022 0084 31000000 		.4byte	.LVL4-1
 5023 0088 4A000000 		.4byte	.LVL6
 5024 008c 0100     		.2byte	0x1
 5025 008e 56       		.byte	0x56
 5026 008f 4A000000 		.4byte	.LVL6
 5027 0093 51000000 		.4byte	.LVL7-1
 5028 0097 0100     		.2byte	0x1
 5029 0099 50       		.byte	0x50
 5030 009a 54000000 		.4byte	.LVL8
 5031 009e 5D000000 		.4byte	.LVL9-1
 5032 00a2 0100     		.2byte	0x1
 5033 00a4 50       		.byte	0x50
 5034 00a5 5D000000 		.4byte	.LVL9-1
 5035 00a9 8A000000 		.4byte	.LVL14
 5036 00ad 0100     		.2byte	0x1
 5037 00af 56       		.byte	0x56
 5038 00b0 8A000000 		.4byte	.LVL14
 5039 00b4 8C000000 		.4byte	.LVL15
 5040 00b8 0100     		.2byte	0x1
 5041 00ba 50       		.byte	0x50
 5042 00bb 8E000000 		.4byte	.LVL16
 5043 00bf 90000000 		.4byte	.LVL17
 5044 00c3 0100     		.2byte	0x1
 5045 00c5 56       		.byte	0x56
 5046 00c6 00000000 		.4byte	0
 5047 00ca 00000000 		.4byte	0
 5048              	.LLST4:
 5049 00ce 0A000000 		.4byte	.LVL1
 5050 00d2 88000000 		.4byte	.LVL13
 5051 00d6 0600     		.2byte	0x6
 5052 00d8 9E       		.byte	0x9e
 5053 00d9 04       		.uleb128 0x4
 5054 00da 00000000 		.4byte	0
 5055 00de 88000000 		.4byte	.LVL13
 5056 00e2 8A000000 		.4byte	.LVL14
 5057 00e6 0100     		.2byte	0x1
ARM GAS  C:\Users\user\AppData\Local\Temp\ccywx0XT.s 			page 125


 5058 00e8 50       		.byte	0x50
 5059 00e9 8A000000 		.4byte	.LVL14
 5060 00ed 90000000 		.4byte	.LVL17
 5061 00f1 0600     		.2byte	0x6
 5062 00f3 9E       		.byte	0x9e
 5063 00f4 04       		.uleb128 0x4
 5064 00f5 00000000 		.4byte	0
 5065 00f9 90000000 		.4byte	.LVL17
 5066 00fd 93000000 		.4byte	.LVL18-1
 5067 0101 0100     		.2byte	0x1
 5068 0103 50       		.byte	0x50
 5069 0104 00000000 		.4byte	0
 5070 0108 00000000 		.4byte	0
 5071              	.LLST5:
 5072 010c 00000000 		.4byte	.LVL20
 5073 0110 2C000000 		.4byte	.LVL23
 5074 0114 0100     		.2byte	0x1
 5075 0116 50       		.byte	0x50
 5076 0117 2C000000 		.4byte	.LVL23
 5077 011b 3A000000 		.4byte	.LVL26
 5078 011f 0100     		.2byte	0x1
 5079 0121 55       		.byte	0x55
 5080 0122 3A000000 		.4byte	.LVL26
 5081 0126 66000000 		.4byte	.LVL32
 5082 012a 0600     		.2byte	0x6
 5083 012c F3       		.byte	0xf3
 5084 012d 03       		.uleb128 0x3
 5085 012e F5       		.byte	0xf5
 5086 012f 00       		.uleb128 0
 5087 0130 25       		.uleb128 0x25
 5088 0131 9F       		.byte	0x9f
 5089 0132 66000000 		.4byte	.LVL32
 5090 0136 71000000 		.4byte	.LVL33-1
 5091 013a 0100     		.2byte	0x1
 5092 013c 50       		.byte	0x50
 5093 013d 71000000 		.4byte	.LVL33-1
 5094 0141 74000000 		.4byte	.LVL34
 5095 0145 0100     		.2byte	0x1
 5096 0147 55       		.byte	0x55
 5097 0148 74000000 		.4byte	.LVL34
 5098 014c A8000000 		.4byte	.LVL40
 5099 0150 0600     		.2byte	0x6
 5100 0152 F3       		.byte	0xf3
 5101 0153 03       		.uleb128 0x3
 5102 0154 F5       		.byte	0xf5
 5103 0155 00       		.uleb128 0
 5104 0156 25       		.uleb128 0x25
 5105 0157 9F       		.byte	0x9f
 5106 0158 A8000000 		.4byte	.LVL40
 5107 015c AA000000 		.4byte	.LVL41
 5108 0160 0100     		.2byte	0x1
 5109 0162 50       		.byte	0x50
 5110 0163 AA000000 		.4byte	.LVL41
 5111 0167 AC000000 		.4byte	.LVL42
 5112 016b 0600     		.2byte	0x6
 5113 016d F3       		.byte	0xf3
 5114 016e 03       		.uleb128 0x3
ARM GAS  C:\Users\user\AppData\Local\Temp\ccywx0XT.s 			page 126


 5115 016f F5       		.byte	0xf5
 5116 0170 00       		.uleb128 0
 5117 0171 25       		.uleb128 0x25
 5118 0172 9F       		.byte	0x9f
 5119 0173 AC000000 		.4byte	.LVL42
 5120 0177 AE000000 		.4byte	.LVL43
 5121 017b 0100     		.2byte	0x1
 5122 017d 50       		.byte	0x50
 5123 017e AE000000 		.4byte	.LVL43
 5124 0182 B0000000 		.4byte	.LVL44
 5125 0186 0100     		.2byte	0x1
 5126 0188 55       		.byte	0x55
 5127 0189 B0000000 		.4byte	.LVL44
 5128 018d C8000000 		.4byte	.LFE41
 5129 0191 0600     		.2byte	0x6
 5130 0193 F3       		.byte	0xf3
 5131 0194 03       		.uleb128 0x3
 5132 0195 F5       		.byte	0xf5
 5133 0196 00       		.uleb128 0
 5134 0197 25       		.uleb128 0x25
 5135 0198 9F       		.byte	0x9f
 5136 0199 00000000 		.4byte	0
 5137 019d 00000000 		.4byte	0
 5138              	.LLST6:
 5139 01a1 00000000 		.4byte	.LVL20
 5140 01a5 14000000 		.4byte	.LVL22
 5141 01a9 0100     		.2byte	0x1
 5142 01ab 51       		.byte	0x51
 5143 01ac 14000000 		.4byte	.LVL22
 5144 01b0 A8000000 		.4byte	.LVL40
 5145 01b4 0400     		.2byte	0x4
 5146 01b6 F3       		.byte	0xf3
 5147 01b7 01       		.uleb128 0x1
 5148 01b8 51       		.byte	0x51
 5149 01b9 9F       		.byte	0x9f
 5150 01ba A8000000 		.4byte	.LVL40
 5151 01be AC000000 		.4byte	.LVL42
 5152 01c2 0100     		.2byte	0x1
 5153 01c4 51       		.byte	0x51
 5154 01c5 AC000000 		.4byte	.LVL42
 5155 01c9 C8000000 		.4byte	.LFE41
 5156 01cd 0400     		.2byte	0x4
 5157 01cf F3       		.byte	0xf3
 5158 01d0 01       		.uleb128 0x1
 5159 01d1 51       		.byte	0x51
 5160 01d2 9F       		.byte	0x9f
 5161 01d3 00000000 		.4byte	0
 5162 01d7 00000000 		.4byte	0
 5163              	.LLST7:
 5164 01db 00000000 		.4byte	.LVL20
 5165 01df 2F000000 		.4byte	.LVL24-1
 5166 01e3 0100     		.2byte	0x1
 5167 01e5 52       		.byte	0x52
 5168 01e6 2F000000 		.4byte	.LVL24-1
 5169 01ea 66000000 		.4byte	.LVL32
 5170 01ee 0100     		.2byte	0x1
 5171 01f0 54       		.byte	0x54
ARM GAS  C:\Users\user\AppData\Local\Temp\ccywx0XT.s 			page 127


 5172 01f1 66000000 		.4byte	.LVL32
 5173 01f5 71000000 		.4byte	.LVL33-1
 5174 01f9 0100     		.2byte	0x1
 5175 01fb 52       		.byte	0x52
 5176 01fc 71000000 		.4byte	.LVL33-1
 5177 0200 A8000000 		.4byte	.LVL40
 5178 0204 0100     		.2byte	0x1
 5179 0206 54       		.byte	0x54
 5180 0207 A8000000 		.4byte	.LVL40
 5181 020b B0000000 		.4byte	.LVL44
 5182 020f 0100     		.2byte	0x1
 5183 0211 52       		.byte	0x52
 5184 0212 B0000000 		.4byte	.LVL44
 5185 0216 B2000000 		.4byte	.LVL45
 5186 021a 0100     		.2byte	0x1
 5187 021c 54       		.byte	0x54
 5188 021d B2000000 		.4byte	.LVL45
 5189 0221 C8000000 		.4byte	.LFE41
 5190 0225 0400     		.2byte	0x4
 5191 0227 F3       		.byte	0xf3
 5192 0228 01       		.uleb128 0x1
 5193 0229 52       		.byte	0x52
 5194 022a 9F       		.byte	0x9f
 5195 022b 00000000 		.4byte	0
 5196 022f 00000000 		.4byte	0
 5197              	.LLST8:
 5198 0233 02000000 		.4byte	.LVL21
 5199 0237 2C000000 		.4byte	.LVL23
 5200 023b 0100     		.2byte	0x1
 5201 023d 50       		.byte	0x50
 5202 023e 2C000000 		.4byte	.LVL23
 5203 0242 3A000000 		.4byte	.LVL26
 5204 0246 0100     		.2byte	0x1
 5205 0248 55       		.byte	0x55
 5206 0249 3A000000 		.4byte	.LVL26
 5207 024d 41000000 		.4byte	.LVL27-1
 5208 0251 0100     		.2byte	0x1
 5209 0253 50       		.byte	0x50
 5210 0254 41000000 		.4byte	.LVL27-1
 5211 0258 5A000000 		.4byte	.LVL29
 5212 025c 0100     		.2byte	0x1
 5213 025e 55       		.byte	0x55
 5214 025f 5A000000 		.4byte	.LVL29
 5215 0263 61000000 		.4byte	.LVL30-1
 5216 0267 0100     		.2byte	0x1
 5217 0269 50       		.byte	0x50
 5218 026a 64000000 		.4byte	.LVL31
 5219 026e 71000000 		.4byte	.LVL33-1
 5220 0272 0100     		.2byte	0x1
 5221 0274 50       		.byte	0x50
 5222 0275 71000000 		.4byte	.LVL33-1
 5223 0279 74000000 		.4byte	.LVL34
 5224 027d 0100     		.2byte	0x1
 5225 027f 55       		.byte	0x55
 5226 0280 74000000 		.4byte	.LVL34
 5227 0284 7B000000 		.4byte	.LVL35-1
 5228 0288 0100     		.2byte	0x1
ARM GAS  C:\Users\user\AppData\Local\Temp\ccywx0XT.s 			page 128


 5229 028a 50       		.byte	0x50
 5230 028b 7B000000 		.4byte	.LVL35-1
 5231 028f A8000000 		.4byte	.LVL40
 5232 0293 0100     		.2byte	0x1
 5233 0295 55       		.byte	0x55
 5234 0296 A8000000 		.4byte	.LVL40
 5235 029a AA000000 		.4byte	.LVL41
 5236 029e 0100     		.2byte	0x1
 5237 02a0 50       		.byte	0x50
 5238 02a1 AA000000 		.4byte	.LVL41
 5239 02a5 AC000000 		.4byte	.LVL42
 5240 02a9 0600     		.2byte	0x6
 5241 02ab F3       		.byte	0xf3
 5242 02ac 03       		.uleb128 0x3
 5243 02ad F5       		.byte	0xf5
 5244 02ae 00       		.uleb128 0
 5245 02af 25       		.uleb128 0x25
 5246 02b0 9F       		.byte	0x9f
 5247 02b1 AC000000 		.4byte	.LVL42
 5248 02b5 AE000000 		.4byte	.LVL43
 5249 02b9 0100     		.2byte	0x1
 5250 02bb 50       		.byte	0x50
 5251 02bc AE000000 		.4byte	.LVL43
 5252 02c0 B2000000 		.4byte	.LVL45
 5253 02c4 0100     		.2byte	0x1
 5254 02c6 55       		.byte	0x55
 5255 02c7 00000000 		.4byte	0
 5256 02cb 00000000 		.4byte	0
 5257              	.LLST9:
 5258 02cf 02000000 		.4byte	.LVL21
 5259 02d3 A6000000 		.4byte	.LVL39
 5260 02d7 0600     		.2byte	0x6
 5261 02d9 9E       		.byte	0x9e
 5262 02da 04       		.uleb128 0x4
 5263 02db 00000000 		.4byte	0
 5264 02df A6000000 		.4byte	.LVL39
 5265 02e3 A8000000 		.4byte	.LVL40
 5266 02e7 0100     		.2byte	0x1
 5267 02e9 50       		.byte	0x50
 5268 02ea A8000000 		.4byte	.LVL40
 5269 02ee B2000000 		.4byte	.LVL45
 5270 02f2 0600     		.2byte	0x6
 5271 02f4 9E       		.byte	0x9e
 5272 02f5 04       		.uleb128 0x4
 5273 02f6 00000000 		.4byte	0
 5274 02fa B2000000 		.4byte	.LVL45
 5275 02fe B5000000 		.4byte	.LVL46-1
 5276 0302 0100     		.2byte	0x1
 5277 0304 50       		.byte	0x50
 5278 0305 00000000 		.4byte	0
 5279 0309 00000000 		.4byte	0
 5280              	.LLST10:
 5281 030d 00000000 		.4byte	.LVL47
 5282 0311 14000000 		.4byte	.LVL49
 5283 0315 0100     		.2byte	0x1
 5284 0317 50       		.byte	0x50
 5285 0318 14000000 		.4byte	.LVL49
ARM GAS  C:\Users\user\AppData\Local\Temp\ccywx0XT.s 			page 129


 5286 031c 1C000000 		.4byte	.LVL51
 5287 0320 0400     		.2byte	0x4
 5288 0322 F3       		.byte	0xf3
 5289 0323 01       		.uleb128 0x1
 5290 0324 50       		.byte	0x50
 5291 0325 9F       		.byte	0x9f
 5292 0326 1C000000 		.4byte	.LVL51
 5293 032a 26000000 		.4byte	.LVL52
 5294 032e 0100     		.2byte	0x1
 5295 0330 50       		.byte	0x50
 5296 0331 26000000 		.4byte	.LVL52
 5297 0335 2E000000 		.4byte	.LVL54
 5298 0339 0400     		.2byte	0x4
 5299 033b F3       		.byte	0xf3
 5300 033c 01       		.uleb128 0x1
 5301 033d 50       		.byte	0x50
 5302 033e 9F       		.byte	0x9f
 5303 033f 2E000000 		.4byte	.LVL54
 5304 0343 30000000 		.4byte	.LVL55
 5305 0347 0100     		.2byte	0x1
 5306 0349 50       		.byte	0x50
 5307 034a 30000000 		.4byte	.LVL55
 5308 034e 60000000 		.4byte	.LFE43
 5309 0352 0400     		.2byte	0x4
 5310 0354 F3       		.byte	0xf3
 5311 0355 01       		.uleb128 0x1
 5312 0356 50       		.byte	0x50
 5313 0357 9F       		.byte	0x9f
 5314 0358 00000000 		.4byte	0
 5315 035c 00000000 		.4byte	0
 5316              	.LLST11:
 5317 0360 00000000 		.4byte	.LVL47
 5318 0364 19000000 		.4byte	.LVL50-1
 5319 0368 0100     		.2byte	0x1
 5320 036a 51       		.byte	0x51
 5321 036b 19000000 		.4byte	.LVL50-1
 5322 036f 1C000000 		.4byte	.LVL51
 5323 0373 0400     		.2byte	0x4
 5324 0375 F3       		.byte	0xf3
 5325 0376 01       		.uleb128 0x1
 5326 0377 51       		.byte	0x51
 5327 0378 9F       		.byte	0x9f
 5328 0379 1C000000 		.4byte	.LVL51
 5329 037d 2B000000 		.4byte	.LVL53-1
 5330 0381 0100     		.2byte	0x1
 5331 0383 51       		.byte	0x51
 5332 0384 2B000000 		.4byte	.LVL53-1
 5333 0388 2E000000 		.4byte	.LVL54
 5334 038c 0400     		.2byte	0x4
 5335 038e F3       		.byte	0xf3
 5336 038f 01       		.uleb128 0x1
 5337 0390 51       		.byte	0x51
 5338 0391 9F       		.byte	0x9f
 5339 0392 2E000000 		.4byte	.LVL54
 5340 0396 30000000 		.4byte	.LVL55
 5341 039a 0100     		.2byte	0x1
 5342 039c 51       		.byte	0x51
ARM GAS  C:\Users\user\AppData\Local\Temp\ccywx0XT.s 			page 130


 5343 039d 30000000 		.4byte	.LVL55
 5344 03a1 60000000 		.4byte	.LFE43
 5345 03a5 0400     		.2byte	0x4
 5346 03a7 F3       		.byte	0xf3
 5347 03a8 01       		.uleb128 0x1
 5348 03a9 51       		.byte	0x51
 5349 03aa 9F       		.byte	0x9f
 5350 03ab 00000000 		.4byte	0
 5351 03af 00000000 		.4byte	0
 5352              	.LLST12:
 5353 03b3 02000000 		.4byte	.LVL48
 5354 03b7 1A000000 		.4byte	.LVL50
 5355 03bb 0600     		.2byte	0x6
 5356 03bd 9E       		.byte	0x9e
 5357 03be 04       		.uleb128 0x4
 5358 03bf 00000000 		.4byte	0
 5359 03c3 1A000000 		.4byte	.LVL50
 5360 03c7 1C000000 		.4byte	.LVL51
 5361 03cb 0100     		.2byte	0x1
 5362 03cd 50       		.byte	0x50
 5363 03ce 1C000000 		.4byte	.LVL51
 5364 03d2 2C000000 		.4byte	.LVL53
 5365 03d6 0600     		.2byte	0x6
 5366 03d8 9E       		.byte	0x9e
 5367 03d9 04       		.uleb128 0x4
 5368 03da 00000000 		.4byte	0
 5369 03de 2C000000 		.4byte	.LVL53
 5370 03e2 2E000000 		.4byte	.LVL54
 5371 03e6 0100     		.2byte	0x1
 5372 03e8 50       		.byte	0x50
 5373 03e9 2E000000 		.4byte	.LVL54
 5374 03ed 30000000 		.4byte	.LVL55
 5375 03f1 0600     		.2byte	0x6
 5376 03f3 9E       		.byte	0x9e
 5377 03f4 04       		.uleb128 0x4
 5378 03f5 00000000 		.4byte	0
 5379 03f9 30000000 		.4byte	.LVL55
 5380 03fd 41000000 		.4byte	.LVL56-1
 5381 0401 0100     		.2byte	0x1
 5382 0403 50       		.byte	0x50
 5383 0404 42000000 		.4byte	.LVL56
 5384 0408 4B000000 		.4byte	.LVL57-1
 5385 040c 0100     		.2byte	0x1
 5386 040e 50       		.byte	0x50
 5387 040f 4C000000 		.4byte	.LVL57
 5388 0413 60000000 		.4byte	.LFE43
 5389 0417 0100     		.2byte	0x1
 5390 0419 50       		.byte	0x50
 5391 041a 00000000 		.4byte	0
 5392 041e 00000000 		.4byte	0
 5393              	.LLST13:
 5394 0422 00000000 		.4byte	.LVL58
 5395 0426 06000000 		.4byte	.LVL60
 5396 042a 0100     		.2byte	0x1
 5397 042c 50       		.byte	0x50
 5398 042d 06000000 		.4byte	.LVL60
 5399 0431 24000000 		.4byte	.LFE44
ARM GAS  C:\Users\user\AppData\Local\Temp\ccywx0XT.s 			page 131


 5400 0435 0400     		.2byte	0x4
 5401 0437 F3       		.byte	0xf3
 5402 0438 01       		.uleb128 0x1
 5403 0439 50       		.byte	0x50
 5404 043a 9F       		.byte	0x9f
 5405 043b 00000000 		.4byte	0
 5406 043f 00000000 		.4byte	0
 5407              	.LLST14:
 5408 0443 02000000 		.4byte	.LVL59
 5409 0447 08000000 		.4byte	.LVL61
 5410 044b 0200     		.2byte	0x2
 5411 044d 30       		.byte	0x30
 5412 044e 9F       		.byte	0x9f
 5413 044f 08000000 		.4byte	.LVL61
 5414 0453 24000000 		.4byte	.LFE44
 5415 0457 0100     		.2byte	0x1
 5416 0459 50       		.byte	0x50
 5417 045a 00000000 		.4byte	0
 5418 045e 00000000 		.4byte	0
 5419              	.LLST15:
 5420 0462 02000000 		.4byte	.LVL59
 5421 0466 08000000 		.4byte	.LVL61
 5422 046a 0200     		.2byte	0x2
 5423 046c 30       		.byte	0x30
 5424 046d 9F       		.byte	0x9f
 5425 046e 08000000 		.4byte	.LVL61
 5426 0472 16000000 		.4byte	.LVL63
 5427 0476 0100     		.2byte	0x1
 5428 0478 53       		.byte	0x53
 5429 0479 18000000 		.4byte	.LVL64
 5430 047d 24000000 		.4byte	.LFE44
 5431 0481 0100     		.2byte	0x1
 5432 0483 53       		.byte	0x53
 5433 0484 00000000 		.4byte	0
 5434 0488 00000000 		.4byte	0
 5435              	.LLST16:
 5436 048c 00000000 		.4byte	.LVL65
 5437 0490 0D000000 		.4byte	.LVL67-1
 5438 0494 0100     		.2byte	0x1
 5439 0496 50       		.byte	0x50
 5440 0497 0D000000 		.4byte	.LVL67-1
 5441 049b 52000000 		.4byte	.LVL78
 5442 049f 0400     		.2byte	0x4
 5443 04a1 F3       		.byte	0xf3
 5444 04a2 01       		.uleb128 0x1
 5445 04a3 50       		.byte	0x50
 5446 04a4 9F       		.byte	0x9f
 5447 04a5 52000000 		.4byte	.LVL78
 5448 04a9 55000000 		.4byte	.LVL79-1
 5449 04ad 0100     		.2byte	0x1
 5450 04af 50       		.byte	0x50
 5451 04b0 55000000 		.4byte	.LVL79-1
 5452 04b4 98000000 		.4byte	.LFE42
 5453 04b8 0400     		.2byte	0x4
 5454 04ba F3       		.byte	0xf3
 5455 04bb 01       		.uleb128 0x1
 5456 04bc 50       		.byte	0x50
ARM GAS  C:\Users\user\AppData\Local\Temp\ccywx0XT.s 			page 132


 5457 04bd 9F       		.byte	0x9f
 5458 04be 00000000 		.4byte	0
 5459 04c2 00000000 		.4byte	0
 5460              	.LLST17:
 5461 04c6 00000000 		.4byte	.LVL65
 5462 04ca 0D000000 		.4byte	.LVL67-1
 5463 04ce 0100     		.2byte	0x1
 5464 04d0 51       		.byte	0x51
 5465 04d1 0D000000 		.4byte	.LVL67-1
 5466 04d5 52000000 		.4byte	.LVL78
 5467 04d9 0400     		.2byte	0x4
 5468 04db F3       		.byte	0xf3
 5469 04dc 01       		.uleb128 0x1
 5470 04dd 51       		.byte	0x51
 5471 04de 9F       		.byte	0x9f
 5472 04df 52000000 		.4byte	.LVL78
 5473 04e3 55000000 		.4byte	.LVL79-1
 5474 04e7 0100     		.2byte	0x1
 5475 04e9 51       		.byte	0x51
 5476 04ea 55000000 		.4byte	.LVL79-1
 5477 04ee 98000000 		.4byte	.LFE42
 5478 04f2 0400     		.2byte	0x4
 5479 04f4 F3       		.byte	0xf3
 5480 04f5 01       		.uleb128 0x1
 5481 04f6 51       		.byte	0x51
 5482 04f7 9F       		.byte	0x9f
 5483 04f8 00000000 		.4byte	0
 5484 04fc 00000000 		.4byte	0
 5485              	.LLST18:
 5486 0500 06000000 		.4byte	.LVL66
 5487 0504 1A000000 		.4byte	.LVL69
 5488 0508 0600     		.2byte	0x6
 5489 050a 9E       		.byte	0x9e
 5490 050b 04       		.uleb128 0x4
 5491 050c 00000000 		.4byte	0
 5492 0510 1A000000 		.4byte	.LVL69
 5493 0514 1C000000 		.4byte	.LVL70
 5494 0518 0100     		.2byte	0x1
 5495 051a 50       		.byte	0x50
 5496 051b 1C000000 		.4byte	.LVL70
 5497 051f 1E000000 		.4byte	.LVL71
 5498 0523 0600     		.2byte	0x6
 5499 0525 9E       		.byte	0x9e
 5500 0526 04       		.uleb128 0x4
 5501 0527 00000000 		.4byte	0
 5502 052b 1E000000 		.4byte	.LVL71
 5503 052f 2F000000 		.4byte	.LVL72-1
 5504 0533 0100     		.2byte	0x1
 5505 0535 50       		.byte	0x50
 5506 0536 32000000 		.4byte	.LVL73
 5507 053a 38000000 		.4byte	.LVL74
 5508 053e 0100     		.2byte	0x1
 5509 0540 50       		.byte	0x50
 5510 0541 38000000 		.4byte	.LVL74
 5511 0545 42000000 		.4byte	.LVL76
 5512 0549 0100     		.2byte	0x1
 5513 054b 54       		.byte	0x54
ARM GAS  C:\Users\user\AppData\Local\Temp\ccywx0XT.s 			page 133


 5514 054c 42000000 		.4byte	.LVL76
 5515 0550 4F000000 		.4byte	.LVL77-1
 5516 0554 0100     		.2byte	0x1
 5517 0556 50       		.byte	0x50
 5518 0557 50000000 		.4byte	.LVL77
 5519 055b 52000000 		.4byte	.LVL78
 5520 055f 0100     		.2byte	0x1
 5521 0561 50       		.byte	0x50
 5522 0562 52000000 		.4byte	.LVL78
 5523 0566 56000000 		.4byte	.LVL79
 5524 056a 0600     		.2byte	0x6
 5525 056c 9E       		.byte	0x9e
 5526 056d 04       		.uleb128 0x4
 5527 056e 00000000 		.4byte	0
 5528 0572 56000000 		.4byte	.LVL79
 5529 0576 63000000 		.4byte	.LVL80-1
 5530 057a 0100     		.2byte	0x1
 5531 057c 50       		.byte	0x50
 5532 057d 66000000 		.4byte	.LVL81
 5533 0581 6C000000 		.4byte	.LVL82
 5534 0585 0100     		.2byte	0x1
 5535 0587 50       		.byte	0x50
 5536 0588 6C000000 		.4byte	.LVL82
 5537 058c 76000000 		.4byte	.LVL84
 5538 0590 0100     		.2byte	0x1
 5539 0592 54       		.byte	0x54
 5540 0593 76000000 		.4byte	.LVL84
 5541 0597 7F000000 		.4byte	.LVL85-1
 5542 059b 0100     		.2byte	0x1
 5543 059d 50       		.byte	0x50
 5544 059e 80000000 		.4byte	.LVL85
 5545 05a2 98000000 		.4byte	.LFE42
 5546 05a6 0100     		.2byte	0x1
 5547 05a8 50       		.byte	0x50
 5548 05a9 00000000 		.4byte	0
 5549 05ad 00000000 		.4byte	0
 5550              	.LLST19:
 5551 05b1 0E000000 		.4byte	.LVL67
 5552 05b5 19000000 		.4byte	.LVL69-1
 5553 05b9 0100     		.2byte	0x1
 5554 05bb 50       		.byte	0x50
 5555 05bc 1C000000 		.4byte	.LVL70
 5556 05c0 1E000000 		.4byte	.LVL71
 5557 05c4 0100     		.2byte	0x1
 5558 05c6 50       		.byte	0x50
 5559 05c7 52000000 		.4byte	.LVL78
 5560 05cb 55000000 		.4byte	.LVL79-1
 5561 05cf 0100     		.2byte	0x1
 5562 05d1 50       		.byte	0x50
 5563 05d2 55000000 		.4byte	.LVL79-1
 5564 05d6 80000000 		.4byte	.LVL85
 5565 05da 0400     		.2byte	0x4
 5566 05dc F3       		.byte	0xf3
 5567 05dd 01       		.uleb128 0x1
 5568 05de 50       		.byte	0x50
 5569 05df 9F       		.byte	0x9f
 5570 05e0 00000000 		.4byte	0
ARM GAS  C:\Users\user\AppData\Local\Temp\ccywx0XT.s 			page 134


 5571 05e4 00000000 		.4byte	0
 5572              	.LLST20:
 5573 05e8 00000000 		.4byte	.LVL92
 5574 05ec 04000000 		.4byte	.LVL93
 5575 05f0 0100     		.2byte	0x1
 5576 05f2 50       		.byte	0x50
 5577 05f3 04000000 		.4byte	.LVL93
 5578 05f7 10000000 		.4byte	.LFE6
 5579 05fb 0400     		.2byte	0x4
 5580 05fd F3       		.byte	0xf3
 5581 05fe 01       		.uleb128 0x1
 5582 05ff 50       		.byte	0x50
 5583 0600 9F       		.byte	0x9f
 5584 0601 00000000 		.4byte	0
 5585 0605 00000000 		.4byte	0
 5586              	.LLST21:
 5587 0609 00000000 		.4byte	.LVL94
 5588 060d 0C000000 		.4byte	.LVL95
 5589 0611 0100     		.2byte	0x1
 5590 0613 50       		.byte	0x50
 5591 0614 0C000000 		.4byte	.LVL95
 5592 0618 24000000 		.4byte	.LFE8
 5593 061c 0400     		.2byte	0x4
 5594 061e F3       		.byte	0xf3
 5595 061f 01       		.uleb128 0x1
 5596 0620 50       		.byte	0x50
 5597 0621 9F       		.byte	0x9f
 5598 0622 00000000 		.4byte	0
 5599 0626 00000000 		.4byte	0
 5600              	.LLST22:
 5601 062a 00000000 		.4byte	.LVL99
 5602 062e 04000000 		.4byte	.LVL100
 5603 0632 0100     		.2byte	0x1
 5604 0634 50       		.byte	0x50
 5605 0635 04000000 		.4byte	.LVL100
 5606 0639 10000000 		.4byte	.LFE16
 5607 063d 0400     		.2byte	0x4
 5608 063f F3       		.byte	0xf3
 5609 0640 01       		.uleb128 0x1
 5610 0641 50       		.byte	0x50
 5611 0642 9F       		.byte	0x9f
 5612 0643 00000000 		.4byte	0
 5613 0647 00000000 		.4byte	0
 5614              	.LLST23:
 5615 064b 00000000 		.4byte	.LVL101
 5616 064f 0C000000 		.4byte	.LVL102
 5617 0653 0100     		.2byte	0x1
 5618 0655 50       		.byte	0x50
 5619 0656 0C000000 		.4byte	.LVL102
 5620 065a 24000000 		.4byte	.LFE18
 5621 065e 0400     		.2byte	0x4
 5622 0660 F3       		.byte	0xf3
 5623 0661 01       		.uleb128 0x1
 5624 0662 50       		.byte	0x50
 5625 0663 9F       		.byte	0x9f
 5626 0664 00000000 		.4byte	0
 5627 0668 00000000 		.4byte	0
ARM GAS  C:\Users\user\AppData\Local\Temp\ccywx0XT.s 			page 135


 5628              	.LLST24:
 5629 066c 00000000 		.4byte	.LVL112
 5630 0670 14000000 		.4byte	.LVL114
 5631 0674 0100     		.2byte	0x1
 5632 0676 50       		.byte	0x50
 5633 0677 14000000 		.4byte	.LVL114
 5634 067b 4C000000 		.4byte	.LFE24
 5635 067f 0400     		.2byte	0x4
 5636 0681 F3       		.byte	0xf3
 5637 0682 01       		.uleb128 0x1
 5638 0683 50       		.byte	0x50
 5639 0684 9F       		.byte	0x9f
 5640 0685 00000000 		.4byte	0
 5641 0689 00000000 		.4byte	0
 5642              	.LLST25:
 5643 068d 00000000 		.4byte	.LVL112
 5644 0691 12000000 		.4byte	.LVL113
 5645 0695 0100     		.2byte	0x1
 5646 0697 51       		.byte	0x51
 5647 0698 12000000 		.4byte	.LVL113
 5648 069c 4C000000 		.4byte	.LFE24
 5649 06a0 0400     		.2byte	0x4
 5650 06a2 F3       		.byte	0xf3
 5651 06a3 01       		.uleb128 0x1
 5652 06a4 51       		.byte	0x51
 5653 06a5 9F       		.byte	0x9f
 5654 06a6 00000000 		.4byte	0
 5655 06aa 00000000 		.4byte	0
 5656              	.LLST26:
 5657 06ae 00000000 		.4byte	.LVL116
 5658 06b2 0A000000 		.4byte	.LVL117
 5659 06b6 0100     		.2byte	0x1
 5660 06b8 50       		.byte	0x50
 5661 06b9 0A000000 		.4byte	.LVL117
 5662 06bd 18000000 		.4byte	.LVL119
 5663 06c1 0400     		.2byte	0x4
 5664 06c3 F3       		.byte	0xf3
 5665 06c4 01       		.uleb128 0x1
 5666 06c5 50       		.byte	0x50
 5667 06c6 9F       		.byte	0x9f
 5668 06c7 18000000 		.4byte	.LVL119
 5669 06cb 1A000000 		.4byte	.LVL120
 5670 06cf 0100     		.2byte	0x1
 5671 06d1 50       		.byte	0x50
 5672 06d2 1A000000 		.4byte	.LVL120
 5673 06d6 20000000 		.4byte	.LFE25
 5674 06da 0400     		.2byte	0x4
 5675 06dc F3       		.byte	0xf3
 5676 06dd 01       		.uleb128 0x1
 5677 06de 50       		.byte	0x50
 5678 06df 9F       		.byte	0x9f
 5679 06e0 00000000 		.4byte	0
 5680 06e4 00000000 		.4byte	0
 5681              	.LLST27:
 5682 06e8 00000000 		.4byte	.LVL116
 5683 06ec 16000000 		.4byte	.LVL118
 5684 06f0 0200     		.2byte	0x2
ARM GAS  C:\Users\user\AppData\Local\Temp\ccywx0XT.s 			page 136


 5685 06f2 30       		.byte	0x30
 5686 06f3 9F       		.byte	0x9f
 5687 06f4 16000000 		.4byte	.LVL118
 5688 06f8 18000000 		.4byte	.LVL119
 5689 06fc 0100     		.2byte	0x1
 5690 06fe 50       		.byte	0x50
 5691 06ff 18000000 		.4byte	.LVL119
 5692 0703 1A000000 		.4byte	.LVL120
 5693 0707 0200     		.2byte	0x2
 5694 0709 30       		.byte	0x30
 5695 070a 9F       		.byte	0x9f
 5696 070b 1A000000 		.4byte	.LVL120
 5697 070f 20000000 		.4byte	.LFE25
 5698 0713 0100     		.2byte	0x1
 5699 0715 50       		.byte	0x50
 5700 0716 00000000 		.4byte	0
 5701 071a 00000000 		.4byte	0
 5702              	.LLST28:
 5703 071e 00000000 		.4byte	.LVL121
 5704 0722 14000000 		.4byte	.LVL123
 5705 0726 0100     		.2byte	0x1
 5706 0728 50       		.byte	0x50
 5707 0729 14000000 		.4byte	.LVL123
 5708 072d 4C000000 		.4byte	.LFE26
 5709 0731 0400     		.2byte	0x4
 5710 0733 F3       		.byte	0xf3
 5711 0734 01       		.uleb128 0x1
 5712 0735 50       		.byte	0x50
 5713 0736 9F       		.byte	0x9f
 5714 0737 00000000 		.4byte	0
 5715 073b 00000000 		.4byte	0
 5716              	.LLST29:
 5717 073f 00000000 		.4byte	.LVL121
 5718 0743 12000000 		.4byte	.LVL122
 5719 0747 0100     		.2byte	0x1
 5720 0749 51       		.byte	0x51
 5721 074a 12000000 		.4byte	.LVL122
 5722 074e 4C000000 		.4byte	.LFE26
 5723 0752 0400     		.2byte	0x4
 5724 0754 F3       		.byte	0xf3
 5725 0755 01       		.uleb128 0x1
 5726 0756 51       		.byte	0x51
 5727 0757 9F       		.byte	0x9f
 5728 0758 00000000 		.4byte	0
 5729 075c 00000000 		.4byte	0
 5730              	.LLST30:
 5731 0760 00000000 		.4byte	.LVL125
 5732 0764 0A000000 		.4byte	.LVL126
 5733 0768 0100     		.2byte	0x1
 5734 076a 50       		.byte	0x50
 5735 076b 0A000000 		.4byte	.LVL126
 5736 076f 18000000 		.4byte	.LVL128
 5737 0773 0400     		.2byte	0x4
 5738 0775 F3       		.byte	0xf3
 5739 0776 01       		.uleb128 0x1
 5740 0777 50       		.byte	0x50
 5741 0778 9F       		.byte	0x9f
ARM GAS  C:\Users\user\AppData\Local\Temp\ccywx0XT.s 			page 137


 5742 0779 18000000 		.4byte	.LVL128
 5743 077d 1A000000 		.4byte	.LVL129
 5744 0781 0100     		.2byte	0x1
 5745 0783 50       		.byte	0x50
 5746 0784 1A000000 		.4byte	.LVL129
 5747 0788 20000000 		.4byte	.LFE27
 5748 078c 0400     		.2byte	0x4
 5749 078e F3       		.byte	0xf3
 5750 078f 01       		.uleb128 0x1
 5751 0790 50       		.byte	0x50
 5752 0791 9F       		.byte	0x9f
 5753 0792 00000000 		.4byte	0
 5754 0796 00000000 		.4byte	0
 5755              	.LLST31:
 5756 079a 00000000 		.4byte	.LVL125
 5757 079e 16000000 		.4byte	.LVL127
 5758 07a2 0200     		.2byte	0x2
 5759 07a4 30       		.byte	0x30
 5760 07a5 9F       		.byte	0x9f
 5761 07a6 16000000 		.4byte	.LVL127
 5762 07aa 18000000 		.4byte	.LVL128
 5763 07ae 0100     		.2byte	0x1
 5764 07b0 50       		.byte	0x50
 5765 07b1 18000000 		.4byte	.LVL128
 5766 07b5 1A000000 		.4byte	.LVL129
 5767 07b9 0200     		.2byte	0x2
 5768 07bb 30       		.byte	0x30
 5769 07bc 9F       		.byte	0x9f
 5770 07bd 1A000000 		.4byte	.LVL129
 5771 07c1 20000000 		.4byte	.LFE27
 5772 07c5 0100     		.2byte	0x1
 5773 07c7 50       		.byte	0x50
 5774 07c8 00000000 		.4byte	0
 5775 07cc 00000000 		.4byte	0
 5776              	.LLST32:
 5777 07d0 00000000 		.4byte	.LVL130
 5778 07d4 14000000 		.4byte	.LVL132
 5779 07d8 0100     		.2byte	0x1
 5780 07da 50       		.byte	0x50
 5781 07db 14000000 		.4byte	.LVL132
 5782 07df 4C000000 		.4byte	.LFE28
 5783 07e3 0400     		.2byte	0x4
 5784 07e5 F3       		.byte	0xf3
 5785 07e6 01       		.uleb128 0x1
 5786 07e7 50       		.byte	0x50
 5787 07e8 9F       		.byte	0x9f
 5788 07e9 00000000 		.4byte	0
 5789 07ed 00000000 		.4byte	0
 5790              	.LLST33:
 5791 07f1 00000000 		.4byte	.LVL130
 5792 07f5 12000000 		.4byte	.LVL131
 5793 07f9 0100     		.2byte	0x1
 5794 07fb 51       		.byte	0x51
 5795 07fc 12000000 		.4byte	.LVL131
 5796 0800 4C000000 		.4byte	.LFE28
 5797 0804 0400     		.2byte	0x4
 5798 0806 F3       		.byte	0xf3
ARM GAS  C:\Users\user\AppData\Local\Temp\ccywx0XT.s 			page 138


 5799 0807 01       		.uleb128 0x1
 5800 0808 51       		.byte	0x51
 5801 0809 9F       		.byte	0x9f
 5802 080a 00000000 		.4byte	0
 5803 080e 00000000 		.4byte	0
 5804              	.LLST34:
 5805 0812 00000000 		.4byte	.LVL134
 5806 0816 0A000000 		.4byte	.LVL135
 5807 081a 0100     		.2byte	0x1
 5808 081c 50       		.byte	0x50
 5809 081d 0A000000 		.4byte	.LVL135
 5810 0821 18000000 		.4byte	.LVL137
 5811 0825 0400     		.2byte	0x4
 5812 0827 F3       		.byte	0xf3
 5813 0828 01       		.uleb128 0x1
 5814 0829 50       		.byte	0x50
 5815 082a 9F       		.byte	0x9f
 5816 082b 18000000 		.4byte	.LVL137
 5817 082f 1A000000 		.4byte	.LVL138
 5818 0833 0100     		.2byte	0x1
 5819 0835 50       		.byte	0x50
 5820 0836 1A000000 		.4byte	.LVL138
 5821 083a 20000000 		.4byte	.LFE29
 5822 083e 0400     		.2byte	0x4
 5823 0840 F3       		.byte	0xf3
 5824 0841 01       		.uleb128 0x1
 5825 0842 50       		.byte	0x50
 5826 0843 9F       		.byte	0x9f
 5827 0844 00000000 		.4byte	0
 5828 0848 00000000 		.4byte	0
 5829              	.LLST35:
 5830 084c 00000000 		.4byte	.LVL134
 5831 0850 16000000 		.4byte	.LVL136
 5832 0854 0200     		.2byte	0x2
 5833 0856 30       		.byte	0x30
 5834 0857 9F       		.byte	0x9f
 5835 0858 16000000 		.4byte	.LVL136
 5836 085c 18000000 		.4byte	.LVL137
 5837 0860 0100     		.2byte	0x1
 5838 0862 50       		.byte	0x50
 5839 0863 18000000 		.4byte	.LVL137
 5840 0867 1A000000 		.4byte	.LVL138
 5841 086b 0200     		.2byte	0x2
 5842 086d 30       		.byte	0x30
 5843 086e 9F       		.byte	0x9f
 5844 086f 1A000000 		.4byte	.LVL138
 5845 0873 20000000 		.4byte	.LFE29
 5846 0877 0100     		.2byte	0x1
 5847 0879 50       		.byte	0x50
 5848 087a 00000000 		.4byte	0
 5849 087e 00000000 		.4byte	0
 5850              	.LLST36:
 5851 0882 00000000 		.4byte	.LVL139
 5852 0886 14000000 		.4byte	.LVL141
 5853 088a 0100     		.2byte	0x1
 5854 088c 50       		.byte	0x50
 5855 088d 14000000 		.4byte	.LVL141
ARM GAS  C:\Users\user\AppData\Local\Temp\ccywx0XT.s 			page 139


 5856 0891 4C000000 		.4byte	.LFE30
 5857 0895 0400     		.2byte	0x4
 5858 0897 F3       		.byte	0xf3
 5859 0898 01       		.uleb128 0x1
 5860 0899 50       		.byte	0x50
 5861 089a 9F       		.byte	0x9f
 5862 089b 00000000 		.4byte	0
 5863 089f 00000000 		.4byte	0
 5864              	.LLST37:
 5865 08a3 00000000 		.4byte	.LVL139
 5866 08a7 12000000 		.4byte	.LVL140
 5867 08ab 0100     		.2byte	0x1
 5868 08ad 51       		.byte	0x51
 5869 08ae 12000000 		.4byte	.LVL140
 5870 08b2 4C000000 		.4byte	.LFE30
 5871 08b6 0400     		.2byte	0x4
 5872 08b8 F3       		.byte	0xf3
 5873 08b9 01       		.uleb128 0x1
 5874 08ba 51       		.byte	0x51
 5875 08bb 9F       		.byte	0x9f
 5876 08bc 00000000 		.4byte	0
 5877 08c0 00000000 		.4byte	0
 5878              	.LLST38:
 5879 08c4 00000000 		.4byte	.LVL143
 5880 08c8 0A000000 		.4byte	.LVL144
 5881 08cc 0100     		.2byte	0x1
 5882 08ce 50       		.byte	0x50
 5883 08cf 0A000000 		.4byte	.LVL144
 5884 08d3 18000000 		.4byte	.LVL146
 5885 08d7 0400     		.2byte	0x4
 5886 08d9 F3       		.byte	0xf3
 5887 08da 01       		.uleb128 0x1
 5888 08db 50       		.byte	0x50
 5889 08dc 9F       		.byte	0x9f
 5890 08dd 18000000 		.4byte	.LVL146
 5891 08e1 1A000000 		.4byte	.LVL147
 5892 08e5 0100     		.2byte	0x1
 5893 08e7 50       		.byte	0x50
 5894 08e8 1A000000 		.4byte	.LVL147
 5895 08ec 20000000 		.4byte	.LFE31
 5896 08f0 0400     		.2byte	0x4
 5897 08f2 F3       		.byte	0xf3
 5898 08f3 01       		.uleb128 0x1
 5899 08f4 50       		.byte	0x50
 5900 08f5 9F       		.byte	0x9f
 5901 08f6 00000000 		.4byte	0
 5902 08fa 00000000 		.4byte	0
 5903              	.LLST39:
 5904 08fe 00000000 		.4byte	.LVL143
 5905 0902 16000000 		.4byte	.LVL145
 5906 0906 0200     		.2byte	0x2
 5907 0908 30       		.byte	0x30
 5908 0909 9F       		.byte	0x9f
 5909 090a 16000000 		.4byte	.LVL145
 5910 090e 18000000 		.4byte	.LVL146
 5911 0912 0100     		.2byte	0x1
 5912 0914 50       		.byte	0x50
ARM GAS  C:\Users\user\AppData\Local\Temp\ccywx0XT.s 			page 140


 5913 0915 18000000 		.4byte	.LVL146
 5914 0919 1A000000 		.4byte	.LVL147
 5915 091d 0200     		.2byte	0x2
 5916 091f 30       		.byte	0x30
 5917 0920 9F       		.byte	0x9f
 5918 0921 1A000000 		.4byte	.LVL147
 5919 0925 20000000 		.4byte	.LFE31
 5920 0929 0100     		.2byte	0x1
 5921 092b 50       		.byte	0x50
 5922 092c 00000000 		.4byte	0
 5923 0930 00000000 		.4byte	0
 5924              	.LLST40:
 5925 0934 00000000 		.4byte	.LVL148
 5926 0938 14000000 		.4byte	.LVL150
 5927 093c 0100     		.2byte	0x1
 5928 093e 50       		.byte	0x50
 5929 093f 14000000 		.4byte	.LVL150
 5930 0943 4C000000 		.4byte	.LFE32
 5931 0947 0400     		.2byte	0x4
 5932 0949 F3       		.byte	0xf3
 5933 094a 01       		.uleb128 0x1
 5934 094b 50       		.byte	0x50
 5935 094c 9F       		.byte	0x9f
 5936 094d 00000000 		.4byte	0
 5937 0951 00000000 		.4byte	0
 5938              	.LLST41:
 5939 0955 00000000 		.4byte	.LVL148
 5940 0959 12000000 		.4byte	.LVL149
 5941 095d 0100     		.2byte	0x1
 5942 095f 51       		.byte	0x51
 5943 0960 12000000 		.4byte	.LVL149
 5944 0964 40000000 		.4byte	.LVL152
 5945 0968 0100     		.2byte	0x1
 5946 096a 55       		.byte	0x55
 5947 096b 40000000 		.4byte	.LVL152
 5948 096f 4C000000 		.4byte	.LFE32
 5949 0973 0600     		.2byte	0x6
 5950 0975 F3       		.byte	0xf3
 5951 0976 03       		.uleb128 0x3
 5952 0977 F5       		.byte	0xf5
 5953 0978 01       		.uleb128 0x1
 5954 0979 25       		.uleb128 0x25
 5955 097a 9F       		.byte	0x9f
 5956 097b 00000000 		.4byte	0
 5957 097f 00000000 		.4byte	0
 5958              	.LLST42:
 5959 0983 00000000 		.4byte	.LVL153
 5960 0987 0A000000 		.4byte	.LVL154
 5961 098b 0100     		.2byte	0x1
 5962 098d 50       		.byte	0x50
 5963 098e 0A000000 		.4byte	.LVL154
 5964 0992 20000000 		.4byte	.LVL156
 5965 0996 0400     		.2byte	0x4
 5966 0998 F3       		.byte	0xf3
 5967 0999 01       		.uleb128 0x1
 5968 099a 50       		.byte	0x50
 5969 099b 9F       		.byte	0x9f
ARM GAS  C:\Users\user\AppData\Local\Temp\ccywx0XT.s 			page 141


 5970 099c 20000000 		.4byte	.LVL156
 5971 09a0 22000000 		.4byte	.LVL157
 5972 09a4 0100     		.2byte	0x1
 5973 09a6 50       		.byte	0x50
 5974 09a7 22000000 		.4byte	.LVL157
 5975 09ab 30000000 		.4byte	.LFE33
 5976 09af 0400     		.2byte	0x4
 5977 09b1 F3       		.byte	0xf3
 5978 09b2 01       		.uleb128 0x1
 5979 09b3 50       		.byte	0x50
 5980 09b4 9F       		.byte	0x9f
 5981 09b5 00000000 		.4byte	0
 5982 09b9 00000000 		.4byte	0
 5983              	.LLST43:
 5984 09bd 00000000 		.4byte	.LVL153
 5985 09c1 1E000000 		.4byte	.LVL155
 5986 09c5 0600     		.2byte	0x6
 5987 09c7 9E       		.byte	0x9e
 5988 09c8 04       		.uleb128 0x4
 5989 09c9 00000000 		.4byte	0
 5990 09cd 1E000000 		.4byte	.LVL155
 5991 09d1 20000000 		.4byte	.LVL156
 5992 09d5 0100     		.2byte	0x1
 5993 09d7 50       		.byte	0x50
 5994 09d8 20000000 		.4byte	.LVL156
 5995 09dc 26000000 		.4byte	.LVL158
 5996 09e0 0600     		.2byte	0x6
 5997 09e2 9E       		.byte	0x9e
 5998 09e3 04       		.uleb128 0x4
 5999 09e4 00000000 		.4byte	0
 6000 09e8 26000000 		.4byte	.LVL158
 6001 09ec 30000000 		.4byte	.LFE33
 6002 09f0 0100     		.2byte	0x1
 6003 09f2 50       		.byte	0x50
 6004 09f3 00000000 		.4byte	0
 6005 09f7 00000000 		.4byte	0
 6006              	.LLST44:
 6007 09fb 00000000 		.4byte	.LVL159
 6008 09ff 14000000 		.4byte	.LVL161
 6009 0a03 0100     		.2byte	0x1
 6010 0a05 50       		.byte	0x50
 6011 0a06 14000000 		.4byte	.LVL161
 6012 0a0a 4C000000 		.4byte	.LFE34
 6013 0a0e 0400     		.2byte	0x4
 6014 0a10 F3       		.byte	0xf3
 6015 0a11 01       		.uleb128 0x1
 6016 0a12 50       		.byte	0x50
 6017 0a13 9F       		.byte	0x9f
 6018 0a14 00000000 		.4byte	0
 6019 0a18 00000000 		.4byte	0
 6020              	.LLST45:
 6021 0a1c 00000000 		.4byte	.LVL159
 6022 0a20 12000000 		.4byte	.LVL160
 6023 0a24 0100     		.2byte	0x1
 6024 0a26 51       		.byte	0x51
 6025 0a27 12000000 		.4byte	.LVL160
 6026 0a2b 40000000 		.4byte	.LVL163
ARM GAS  C:\Users\user\AppData\Local\Temp\ccywx0XT.s 			page 142


 6027 0a2f 0100     		.2byte	0x1
 6028 0a31 55       		.byte	0x55
 6029 0a32 40000000 		.4byte	.LVL163
 6030 0a36 4C000000 		.4byte	.LFE34
 6031 0a3a 0600     		.2byte	0x6
 6032 0a3c F3       		.byte	0xf3
 6033 0a3d 03       		.uleb128 0x3
 6034 0a3e F5       		.byte	0xf5
 6035 0a3f 01       		.uleb128 0x1
 6036 0a40 25       		.uleb128 0x25
 6037 0a41 9F       		.byte	0x9f
 6038 0a42 00000000 		.4byte	0
 6039 0a46 00000000 		.4byte	0
 6040              	.LLST46:
 6041 0a4a 20000000 		.4byte	.LVL168
 6042 0a4e 22000000 		.4byte	.LVL169
 6043 0a52 0200     		.2byte	0x2
 6044 0a54 30       		.byte	0x30
 6045 0a55 9F       		.byte	0x9f
 6046 0a56 22000000 		.4byte	.LVL169
 6047 0a5a 50000000 		.4byte	.LVL174
 6048 0a5e 0100     		.2byte	0x1
 6049 0a60 55       		.byte	0x55
 6050 0a61 60000000 		.4byte	.LVL176
 6051 0a65 62000000 		.4byte	.LVL177
 6052 0a69 0100     		.2byte	0x1
 6053 0a6b 54       		.byte	0x54
 6054 0a6c 62000000 		.4byte	.LVL177
 6055 0a70 70000000 		.4byte	.LVL178
 6056 0a74 0100     		.2byte	0x1
 6057 0a76 55       		.byte	0x55
 6058 0a77 00000000 		.4byte	0
 6059 0a7b 00000000 		.4byte	0
 6060              	.LLST47:
 6061 0a7f 00000000 		.4byte	.LVL181
 6062 0a83 0A000000 		.4byte	.LVL182
 6063 0a87 0100     		.2byte	0x1
 6064 0a89 50       		.byte	0x50
 6065 0a8a 0A000000 		.4byte	.LVL182
 6066 0a8e 20000000 		.4byte	.LVL184
 6067 0a92 0400     		.2byte	0x4
 6068 0a94 F3       		.byte	0xf3
 6069 0a95 01       		.uleb128 0x1
 6070 0a96 50       		.byte	0x50
 6071 0a97 9F       		.byte	0x9f
 6072 0a98 20000000 		.4byte	.LVL184
 6073 0a9c 22000000 		.4byte	.LVL185
 6074 0aa0 0100     		.2byte	0x1
 6075 0aa2 50       		.byte	0x50
 6076 0aa3 22000000 		.4byte	.LVL185
 6077 0aa7 30000000 		.4byte	.LFE35
 6078 0aab 0400     		.2byte	0x4
 6079 0aad F3       		.byte	0xf3
 6080 0aae 01       		.uleb128 0x1
 6081 0aaf 50       		.byte	0x50
 6082 0ab0 9F       		.byte	0x9f
 6083 0ab1 00000000 		.4byte	0
ARM GAS  C:\Users\user\AppData\Local\Temp\ccywx0XT.s 			page 143


 6084 0ab5 00000000 		.4byte	0
 6085              	.LLST48:
 6086 0ab9 00000000 		.4byte	.LVL181
 6087 0abd 1E000000 		.4byte	.LVL183
 6088 0ac1 0600     		.2byte	0x6
 6089 0ac3 9E       		.byte	0x9e
 6090 0ac4 04       		.uleb128 0x4
 6091 0ac5 00000000 		.4byte	0
 6092 0ac9 1E000000 		.4byte	.LVL183
 6093 0acd 20000000 		.4byte	.LVL184
 6094 0ad1 0100     		.2byte	0x1
 6095 0ad3 50       		.byte	0x50
 6096 0ad4 20000000 		.4byte	.LVL184
 6097 0ad8 26000000 		.4byte	.LVL186
 6098 0adc 0600     		.2byte	0x6
 6099 0ade 9E       		.byte	0x9e
 6100 0adf 04       		.uleb128 0x4
 6101 0ae0 00000000 		.4byte	0
 6102 0ae4 26000000 		.4byte	.LVL186
 6103 0ae8 30000000 		.4byte	.LFE35
 6104 0aec 0100     		.2byte	0x1
 6105 0aee 50       		.byte	0x50
 6106 0aef 00000000 		.4byte	0
 6107 0af3 00000000 		.4byte	0
 6108              	.LLST49:
 6109 0af7 00000000 		.4byte	.LVL187
 6110 0afb 06000000 		.4byte	.LVL189
 6111 0aff 0100     		.2byte	0x1
 6112 0b01 50       		.byte	0x50
 6113 0b02 06000000 		.4byte	.LVL189
 6114 0b06 48000000 		.4byte	.LFE36
 6115 0b0a 0400     		.2byte	0x4
 6116 0b0c F3       		.byte	0xf3
 6117 0b0d 01       		.uleb128 0x1
 6118 0b0e 50       		.byte	0x50
 6119 0b0f 9F       		.byte	0x9f
 6120 0b10 00000000 		.4byte	0
 6121 0b14 00000000 		.4byte	0
 6122              	.LLST50:
 6123 0b18 04000000 		.4byte	.LVL188
 6124 0b1c 12000000 		.4byte	.LVL190
 6125 0b20 0600     		.2byte	0x6
 6126 0b22 9E       		.byte	0x9e
 6127 0b23 04       		.uleb128 0x4
 6128 0b24 00000000 		.4byte	0
 6129 0b28 12000000 		.4byte	.LVL190
 6130 0b2c 1D000000 		.4byte	.LVL191-1
 6131 0b30 0100     		.2byte	0x1
 6132 0b32 50       		.byte	0x50
 6133 0b33 1E000000 		.4byte	.LVL191
 6134 0b37 25000000 		.4byte	.LVL192-1
 6135 0b3b 0100     		.2byte	0x1
 6136 0b3d 50       		.byte	0x50
 6137 0b3e 28000000 		.4byte	.LVL193
 6138 0b42 2A000000 		.4byte	.LVL194
 6139 0b46 0100     		.2byte	0x1
 6140 0b48 50       		.byte	0x50
ARM GAS  C:\Users\user\AppData\Local\Temp\ccywx0XT.s 			page 144


 6141 0b49 2A000000 		.4byte	.LVL194
 6142 0b4d 2C000000 		.4byte	.LVL195
 6143 0b51 0600     		.2byte	0x6
 6144 0b53 9E       		.byte	0x9e
 6145 0b54 04       		.uleb128 0x4
 6146 0b55 00000000 		.4byte	0
 6147 0b59 2C000000 		.4byte	.LVL195
 6148 0b5d 42000000 		.4byte	.LVL199
 6149 0b61 0100     		.2byte	0x1
 6150 0b63 54       		.byte	0x54
 6151 0b64 00000000 		.4byte	0
 6152 0b68 00000000 		.4byte	0
 6153              	.LLST51:
 6154 0b6c 00000000 		.4byte	.LVL200
 6155 0b70 10000000 		.4byte	.LVL202
 6156 0b74 0100     		.2byte	0x1
 6157 0b76 50       		.byte	0x50
 6158 0b77 10000000 		.4byte	.LVL202
 6159 0b7b 52000000 		.4byte	.LVL212
 6160 0b7f 0400     		.2byte	0x4
 6161 0b81 F3       		.byte	0xf3
 6162 0b82 01       		.uleb128 0x1
 6163 0b83 50       		.byte	0x50
 6164 0b84 9F       		.byte	0x9f
 6165 0b85 52000000 		.4byte	.LVL212
 6166 0b89 54000000 		.4byte	.LVL213
 6167 0b8d 0100     		.2byte	0x1
 6168 0b8f 50       		.byte	0x50
 6169 0b90 54000000 		.4byte	.LVL213
 6170 0b94 5C000000 		.4byte	.LFE37
 6171 0b98 0400     		.2byte	0x4
 6172 0b9a F3       		.byte	0xf3
 6173 0b9b 01       		.uleb128 0x1
 6174 0b9c 50       		.byte	0x50
 6175 0b9d 9F       		.byte	0x9f
 6176 0b9e 00000000 		.4byte	0
 6177 0ba2 00000000 		.4byte	0
 6178              	.LLST52:
 6179 0ba6 02000000 		.4byte	.LVL201
 6180 0baa 16000000 		.4byte	.LVL204
 6181 0bae 0600     		.2byte	0x6
 6182 0bb0 9E       		.byte	0x9e
 6183 0bb1 04       		.uleb128 0x4
 6184 0bb2 00000000 		.4byte	0
 6185 0bb6 16000000 		.4byte	.LVL204
 6186 0bba 18000000 		.4byte	.LVL205
 6187 0bbe 0100     		.2byte	0x1
 6188 0bc0 50       		.byte	0x50
 6189 0bc1 18000000 		.4byte	.LVL205
 6190 0bc5 32000000 		.4byte	.LVL207
 6191 0bc9 0100     		.2byte	0x1
 6192 0bcb 55       		.byte	0x55
 6193 0bcc 32000000 		.4byte	.LVL207
 6194 0bd0 34000000 		.4byte	.LVL208
 6195 0bd4 0100     		.2byte	0x1
 6196 0bd6 50       		.byte	0x50
 6197 0bd7 34000000 		.4byte	.LVL208
ARM GAS  C:\Users\user\AppData\Local\Temp\ccywx0XT.s 			page 145


 6198 0bdb 50000000 		.4byte	.LVL211
 6199 0bdf 0100     		.2byte	0x1
 6200 0be1 55       		.byte	0x55
 6201 0be2 50000000 		.4byte	.LVL211
 6202 0be6 52000000 		.4byte	.LVL212
 6203 0bea 0100     		.2byte	0x1
 6204 0bec 50       		.byte	0x50
 6205 0bed 52000000 		.4byte	.LVL212
 6206 0bf1 54000000 		.4byte	.LVL213
 6207 0bf5 0600     		.2byte	0x6
 6208 0bf7 9E       		.byte	0x9e
 6209 0bf8 04       		.uleb128 0x4
 6210 0bf9 00000000 		.4byte	0
 6211 0bfd 54000000 		.4byte	.LVL213
 6212 0c01 58000000 		.4byte	.LVL214
 6213 0c05 0100     		.2byte	0x1
 6214 0c07 55       		.byte	0x55
 6215 0c08 58000000 		.4byte	.LVL214
 6216 0c0c 5C000000 		.4byte	.LFE37
 6217 0c10 0100     		.2byte	0x1
 6218 0c12 50       		.byte	0x50
 6219 0c13 00000000 		.4byte	0
 6220 0c17 00000000 		.4byte	0
 6221              	.LLST53:
 6222 0c1b 00000000 		.4byte	.LVL215
 6223 0c1f 02000000 		.4byte	.LVL216
 6224 0c23 0100     		.2byte	0x1
 6225 0c25 50       		.byte	0x50
 6226 0c26 02000000 		.4byte	.LVL216
 6227 0c2a 04000000 		.4byte	.LFE38
 6228 0c2e 0400     		.2byte	0x4
 6229 0c30 F3       		.byte	0xf3
 6230 0c31 01       		.uleb128 0x1
 6231 0c32 50       		.byte	0x50
 6232 0c33 9F       		.byte	0x9f
 6233 0c34 00000000 		.4byte	0
 6234 0c38 00000000 		.4byte	0
 6235              		.section	.debug_aranges,"",%progbits
 6236 0000 7C010000 		.4byte	0x17c
 6237 0004 0200     		.2byte	0x2
 6238 0006 00000000 		.4byte	.Ldebug_info0
 6239 000a 04       		.byte	0x4
 6240 000b 00       		.byte	0
 6241 000c 0000     		.2byte	0
 6242 000e 0000     		.2byte	0
 6243 0010 00000000 		.4byte	.LFB40
 6244 0014 A8000000 		.4byte	.LFE40-.LFB40
 6245 0018 00000000 		.4byte	.LFB41
 6246 001c C8000000 		.4byte	.LFE41-.LFB41
 6247 0020 00000000 		.4byte	.LFB43
 6248 0024 60000000 		.4byte	.LFE43-.LFB43
 6249 0028 00000000 		.4byte	.LFB44
 6250 002c 24000000 		.4byte	.LFE44-.LFB44
 6251 0030 00000000 		.4byte	.LFB42
 6252 0034 98000000 		.4byte	.LFE42-.LFB42
 6253 0038 00000000 		.4byte	.LFB39
 6254 003c 38000000 		.4byte	.LFE39-.LFB39
ARM GAS  C:\Users\user\AppData\Local\Temp\ccywx0XT.s 			page 146


 6255 0040 00000000 		.4byte	.LFB3
 6256 0044 20000000 		.4byte	.LFE3-.LFB3
 6257 0048 00000000 		.4byte	.LFB4
 6258 004c 0C000000 		.4byte	.LFE4-.LFB4
 6259 0050 00000000 		.4byte	.LFB5
 6260 0054 0C000000 		.4byte	.LFE5-.LFB5
 6261 0058 00000000 		.4byte	.LFB6
 6262 005c 10000000 		.4byte	.LFE6-.LFB6
 6263 0060 00000000 		.4byte	.LFB7
 6264 0064 0C000000 		.4byte	.LFE7-.LFB7
 6265 0068 00000000 		.4byte	.LFB8
 6266 006c 24000000 		.4byte	.LFE8-.LFB8
 6267 0070 00000000 		.4byte	.LFB9
 6268 0074 0C000000 		.4byte	.LFE9-.LFB9
 6269 0078 00000000 		.4byte	.LFB10
 6270 007c 0C000000 		.4byte	.LFE10-.LFB10
 6271 0080 00000000 		.4byte	.LFB11
 6272 0084 2C000000 		.4byte	.LFE11-.LFB11
 6273 0088 00000000 		.4byte	.LFB12
 6274 008c 2C000000 		.4byte	.LFE12-.LFB12
 6275 0090 00000000 		.4byte	.LFB13
 6276 0094 2C000000 		.4byte	.LFE13-.LFB13
 6277 0098 00000000 		.4byte	.LFB14
 6278 009c 0C000000 		.4byte	.LFE14-.LFB14
 6279 00a0 00000000 		.4byte	.LFB15
 6280 00a4 0C000000 		.4byte	.LFE15-.LFB15
 6281 00a8 00000000 		.4byte	.LFB16
 6282 00ac 10000000 		.4byte	.LFE16-.LFB16
 6283 00b0 00000000 		.4byte	.LFB17
 6284 00b4 0C000000 		.4byte	.LFE17-.LFB17
 6285 00b8 00000000 		.4byte	.LFB18
 6286 00bc 24000000 		.4byte	.LFE18-.LFB18
 6287 00c0 00000000 		.4byte	.LFB0
 6288 00c4 30000000 		.4byte	.LFE0-.LFB0
 6289 00c8 00000000 		.4byte	.LFB19
 6290 00cc 0C000000 		.4byte	.LFE19-.LFB19
 6291 00d0 00000000 		.4byte	.LFB20
 6292 00d4 0C000000 		.4byte	.LFE20-.LFB20
 6293 00d8 00000000 		.4byte	.LFB21
 6294 00dc 2C000000 		.4byte	.LFE21-.LFB21
 6295 00e0 00000000 		.4byte	.LFB22
 6296 00e4 2C000000 		.4byte	.LFE22-.LFB22
 6297 00e8 00000000 		.4byte	.LFB23
 6298 00ec 2C000000 		.4byte	.LFE23-.LFB23
 6299 00f0 00000000 		.4byte	.LFB24
 6300 00f4 4C000000 		.4byte	.LFE24-.LFB24
 6301 00f8 00000000 		.4byte	.LFB25
 6302 00fc 20000000 		.4byte	.LFE25-.LFB25
 6303 0100 00000000 		.4byte	.LFB26
 6304 0104 4C000000 		.4byte	.LFE26-.LFB26
 6305 0108 00000000 		.4byte	.LFB27
 6306 010c 20000000 		.4byte	.LFE27-.LFB27
 6307 0110 00000000 		.4byte	.LFB28
 6308 0114 4C000000 		.4byte	.LFE28-.LFB28
 6309 0118 00000000 		.4byte	.LFB29
 6310 011c 20000000 		.4byte	.LFE29-.LFB29
 6311 0120 00000000 		.4byte	.LFB30
ARM GAS  C:\Users\user\AppData\Local\Temp\ccywx0XT.s 			page 147


 6312 0124 4C000000 		.4byte	.LFE30-.LFB30
 6313 0128 00000000 		.4byte	.LFB31
 6314 012c 20000000 		.4byte	.LFE31-.LFB31
 6315 0130 00000000 		.4byte	.LFB32
 6316 0134 4C000000 		.4byte	.LFE32-.LFB32
 6317 0138 00000000 		.4byte	.LFB33
 6318 013c 30000000 		.4byte	.LFE33-.LFB33
 6319 0140 00000000 		.4byte	.LFB34
 6320 0144 4C000000 		.4byte	.LFE34-.LFB34
 6321 0148 00000000 		.4byte	.LFB1
 6322 014c 78000000 		.4byte	.LFE1-.LFB1
 6323 0150 00000000 		.4byte	.LFB2
 6324 0154 20000000 		.4byte	.LFE2-.LFB2
 6325 0158 00000000 		.4byte	.LFB35
 6326 015c 30000000 		.4byte	.LFE35-.LFB35
 6327 0160 00000000 		.4byte	.LFB36
 6328 0164 48000000 		.4byte	.LFE36-.LFB36
 6329 0168 00000000 		.4byte	.LFB37
 6330 016c 5C000000 		.4byte	.LFE37-.LFB37
 6331 0170 00000000 		.4byte	.LFB38
 6332 0174 04000000 		.4byte	.LFE38-.LFB38
 6333 0178 00000000 		.4byte	0
 6334 017c 00000000 		.4byte	0
 6335              		.section	.debug_ranges,"",%progbits
 6336              	.Ldebug_ranges0:
 6337 0000 00000000 		.4byte	.LFB40
 6338 0004 A8000000 		.4byte	.LFE40
 6339 0008 00000000 		.4byte	.LFB41
 6340 000c C8000000 		.4byte	.LFE41
 6341 0010 00000000 		.4byte	.LFB43
 6342 0014 60000000 		.4byte	.LFE43
 6343 0018 00000000 		.4byte	.LFB44
 6344 001c 24000000 		.4byte	.LFE44
 6345 0020 00000000 		.4byte	.LFB42
 6346 0024 98000000 		.4byte	.LFE42
 6347 0028 00000000 		.4byte	.LFB39
 6348 002c 38000000 		.4byte	.LFE39
 6349 0030 00000000 		.4byte	.LFB3
 6350 0034 20000000 		.4byte	.LFE3
 6351 0038 00000000 		.4byte	.LFB4
 6352 003c 0C000000 		.4byte	.LFE4
 6353 0040 00000000 		.4byte	.LFB5
 6354 0044 0C000000 		.4byte	.LFE5
 6355 0048 00000000 		.4byte	.LFB6
 6356 004c 10000000 		.4byte	.LFE6
 6357 0050 00000000 		.4byte	.LFB7
 6358 0054 0C000000 		.4byte	.LFE7
 6359 0058 00000000 		.4byte	.LFB8
 6360 005c 24000000 		.4byte	.LFE8
 6361 0060 00000000 		.4byte	.LFB9
 6362 0064 0C000000 		.4byte	.LFE9
 6363 0068 00000000 		.4byte	.LFB10
 6364 006c 0C000000 		.4byte	.LFE10
 6365 0070 00000000 		.4byte	.LFB11
 6366 0074 2C000000 		.4byte	.LFE11
 6367 0078 00000000 		.4byte	.LFB12
 6368 007c 2C000000 		.4byte	.LFE12
ARM GAS  C:\Users\user\AppData\Local\Temp\ccywx0XT.s 			page 148


 6369 0080 00000000 		.4byte	.LFB13
 6370 0084 2C000000 		.4byte	.LFE13
 6371 0088 00000000 		.4byte	.LFB14
 6372 008c 0C000000 		.4byte	.LFE14
 6373 0090 00000000 		.4byte	.LFB15
 6374 0094 0C000000 		.4byte	.LFE15
 6375 0098 00000000 		.4byte	.LFB16
 6376 009c 10000000 		.4byte	.LFE16
 6377 00a0 00000000 		.4byte	.LFB17
 6378 00a4 0C000000 		.4byte	.LFE17
 6379 00a8 00000000 		.4byte	.LFB18
 6380 00ac 24000000 		.4byte	.LFE18
 6381 00b0 00000000 		.4byte	.LFB0
 6382 00b4 30000000 		.4byte	.LFE0
 6383 00b8 00000000 		.4byte	.LFB19
 6384 00bc 0C000000 		.4byte	.LFE19
 6385 00c0 00000000 		.4byte	.LFB20
 6386 00c4 0C000000 		.4byte	.LFE20
 6387 00c8 00000000 		.4byte	.LFB21
 6388 00cc 2C000000 		.4byte	.LFE21
 6389 00d0 00000000 		.4byte	.LFB22
 6390 00d4 2C000000 		.4byte	.LFE22
 6391 00d8 00000000 		.4byte	.LFB23
 6392 00dc 2C000000 		.4byte	.LFE23
 6393 00e0 00000000 		.4byte	.LFB24
 6394 00e4 4C000000 		.4byte	.LFE24
 6395 00e8 00000000 		.4byte	.LFB25
 6396 00ec 20000000 		.4byte	.LFE25
 6397 00f0 00000000 		.4byte	.LFB26
 6398 00f4 4C000000 		.4byte	.LFE26
 6399 00f8 00000000 		.4byte	.LFB27
 6400 00fc 20000000 		.4byte	.LFE27
 6401 0100 00000000 		.4byte	.LFB28
 6402 0104 4C000000 		.4byte	.LFE28
 6403 0108 00000000 		.4byte	.LFB29
 6404 010c 20000000 		.4byte	.LFE29
 6405 0110 00000000 		.4byte	.LFB30
 6406 0114 4C000000 		.4byte	.LFE30
 6407 0118 00000000 		.4byte	.LFB31
 6408 011c 20000000 		.4byte	.LFE31
 6409 0120 00000000 		.4byte	.LFB32
 6410 0124 4C000000 		.4byte	.LFE32
 6411 0128 00000000 		.4byte	.LFB33
 6412 012c 30000000 		.4byte	.LFE33
 6413 0130 00000000 		.4byte	.LFB34
 6414 0134 4C000000 		.4byte	.LFE34
 6415 0138 00000000 		.4byte	.LFB1
 6416 013c 78000000 		.4byte	.LFE1
 6417 0140 00000000 		.4byte	.LFB2
 6418 0144 20000000 		.4byte	.LFE2
 6419 0148 00000000 		.4byte	.LFB35
 6420 014c 30000000 		.4byte	.LFE35
 6421 0150 00000000 		.4byte	.LFB36
 6422 0154 48000000 		.4byte	.LFE36
 6423 0158 00000000 		.4byte	.LFB37
 6424 015c 5C000000 		.4byte	.LFE37
 6425 0160 00000000 		.4byte	.LFB38
ARM GAS  C:\Users\user\AppData\Local\Temp\ccywx0XT.s 			page 149


 6426 0164 04000000 		.4byte	.LFE38
 6427 0168 00000000 		.4byte	0
 6428 016c 00000000 		.4byte	0
 6429              		.section	.debug_line,"",%progbits
 6430              	.Ldebug_line0:
 6431 0000 19050000 		.section	.debug_str,"MS",%progbits,1
 6431      0200D700 
 6431      00000201 
 6431      FB0E0D00 
 6431      01010101 
 6432              	.LASF48:
 6433 0000 6368616E 		.ascii	"chanNum\000"
 6433      4E756D00 
 6434              	.LASF107:
 6435 0008 6F634661 		.ascii	"ocFaultCounts\000"
 6435      756C7443 
 6435      6F756E74 
 6435      7300
 6436              	.LASF75:
 6437 0016 506F7765 		.ascii	"PowerMonitor_1_GetWarnMask\000"
 6437      724D6F6E 
 6437      69746F72 
 6437      5F315F47 
 6437      65745761 
 6438              	.LASF136:
 6439 0031 506F7765 		.ascii	"PowerMonitor_1_adcSeAdjCfg1\000"
 6439      724D6F6E 
 6439      69746F72 
 6439      5F315F61 
 6439      64635365 
 6440              	.LASF105:
 6441 004d 506F7765 		.ascii	"PowerMonitor_1_SetOCFaultThreshold\000"
 6441      724D6F6E 
 6441      69746F72 
 6441      5F315F53 
 6441      65744F43 
 6442              	.LASF31:
 6443 0070 55564661 		.ascii	"UVFaultThrshldCounts\000"
 6443      756C7454 
 6443      68727368 
 6443      6C64436F 
 6443      756E7473 
 6444              	.LASF60:
 6445 0085 506F7765 		.ascii	"PowerMonitor_1_GetFaultSource\000"
 6445      724D6F6E 
 6445      69746F72 
 6445      5F315F47 
 6445      65744661 
 6446              	.LASF9:
 6447 00a3 756E7369 		.ascii	"unsigned int\000"
 6447      676E6564 
 6447      20696E74 
 6447      00
 6448              	.LASF82:
 6449 00b0 4F435761 		.ascii	"OCWarnStatus\000"
 6449      726E5374 
 6449      61747573 
ARM GAS  C:\Users\user\AppData\Local\Temp\ccywx0XT.s 			page 150


 6449      00
 6450              	.LASF150:
 6451 00bd 506F7765 		.ascii	"PowerMonitor_1_VoltageScale\000"
 6451      724D6F6E 
 6451      69746F72 
 6451      5F315F56 
 6451      6F6C7461 
 6452              	.LASF13:
 6453 00d9 696E7431 		.ascii	"int16\000"
 6453      3600
 6454              	.LASF39:
 6455 00df 70696E56 		.ascii	"pinV\000"
 6455      00
 6456              	.LASF85:
 6457 00e4 75765761 		.ascii	"uvWarnThreshold\000"
 6457      726E5468 
 6457      72657368 
 6457      6F6C6400 
 6458              	.LASF123:
 6459 00f4 506F7765 		.ascii	"PowerMonitor_1_faultEnable\000"
 6459      724D6F6E 
 6459      69746F72 
 6459      5F315F66 
 6459      61756C74 
 6460              	.LASF69:
 6461 010f 506F7765 		.ascii	"PowerMonitor_1_SetWarnMode\000"
 6461      724D6F6E 
 6461      69746F72 
 6461      5F315F53 
 6461      65745761 
 6462              	.LASF124:
 6463 012a 506F7765 		.ascii	"PowerMonitor_1_warnEnable\000"
 6463      724D6F6E 
 6463      69746F72 
 6463      5F315F77 
 6463      61726E45 
 6464              	.LASF149:
 6465 0144 506F7765 		.ascii	"PowerMonitor_1_OVFaultThreshold\000"
 6465      724D6F6E 
 6465      69746F72 
 6465      5F315F4F 
 6465      56466175 
 6466              	.LASF58:
 6467 0164 506F7765 		.ascii	"PowerMonitor_1_GetFaultMode\000"
 6467      724D6F6E 
 6467      69746F72 
 6467      5F315F47 
 6467      65744661 
 6468              	.LASF67:
 6469 0180 506F7765 		.ascii	"PowerMonitor_1_EnableWarn\000"
 6469      724D6F6E 
 6469      69746F72 
 6469      5F315F45 
 6469      6E61626C 
 6470              	.LASF117:
 6471 019a 506F7765 		.ascii	"PowerMonitor_1_warnWin\000"
 6471      724D6F6E 
ARM GAS  C:\Users\user\AppData\Local\Temp\ccywx0XT.s 			page 151


 6471      69746F72 
 6471      5F315F77 
 6471      61726E57 
 6472              	.LASF21:
 6473 01b1 506F7765 		.ascii	"PowerMonitor_1_ADC_CTL_STRUCT\000"
 6473      724D6F6E 
 6473      69746F72 
 6473      5F315F41 
 6473      44435F43 
 6474              	.LASF146:
 6475 01cf 506F7765 		.ascii	"PowerMonitor_1_UVWarnThreshold\000"
 6475      724D6F6E 
 6475      69746F72 
 6475      5F315F55 
 6475      56576172 
 6476              	.LASF133:
 6477 01ee 506F7765 		.ascii	"PowerMonitor_1_UVFaultStatus\000"
 6477      724D6F6E 
 6477      69746F72 
 6477      5F315F55 
 6477      56466175 
 6478              	.LASF94:
 6479 020b 75764661 		.ascii	"uvFaultThreshold\000"
 6479      756C7454 
 6479      68726573 
 6479      686F6C64 
 6479      00
 6480              	.LASF96:
 6481 021c 506F7765 		.ascii	"PowerMonitor_1_GetUVFaultThreshold\000"
 6481      724D6F6E 
 6481      69746F72 
 6481      5F315F47 
 6481      65745556 
 6482              	.LASF0:
 6483 023f 666C6F61 		.ascii	"float\000"
 6483      7400
 6484              	.LASF14:
 6485 0245 696E7433 		.ascii	"int32\000"
 6485      3200
 6486              	.LASF157:
 6487 024b 506F7765 		.ascii	"PowerMonitor_1_PM_AMux_Voltage_Stop\000"
 6487      724D6F6E 
 6487      69746F72 
 6487      5F315F50 
 6487      4D5F414D 
 6488              	.LASF167:
 6489 026f 473A5C44 		.ascii	"G:\\DSA\\PORIGE\\Workspace03\\Design01.cydsn\000"
 6489      53415C50 
 6489      4F524947 
 6489      455C576F 
 6489      726B7370 
 6490              	.LASF142:
 6491 0298 506F7765 		.ascii	"PowerMonitor_1_ActiveCurrentChan\000"
 6491      724D6F6E 
 6491      69746F72 
 6491      5F315F41 
 6491      63746976 
ARM GAS  C:\Users\user\AppData\Local\Temp\ccywx0XT.s 			page 152


 6492              	.LASF50:
 6493 02b9 696E6465 		.ascii	"index\000"
 6493      7800
 6494              	.LASF35:
 6495 02bf 4F434661 		.ascii	"OCFaultThrshldAmps\000"
 6495      756C7454 
 6495      68727368 
 6495      6C64416D 
 6495      707300
 6496              	.LASF135:
 6497 02d2 506F7765 		.ascii	"PowerMonitor_1_adcGainCfg1\000"
 6497      724D6F6E 
 6497      69746F72 
 6497      5F315F61 
 6497      64634761 
 6498              	.LASF137:
 6499 02ed 506F7765 		.ascii	"PowerMonitor_1_adcGainCfg2\000"
 6499      724D6F6E 
 6499      69746F72 
 6499      5F315F61 
 6499      64634761 
 6500              	.LASF145:
 6501 0308 506F7765 		.ascii	"PowerMonitor_1_lastAuxVoltChan\000"
 6501      724D6F6E 
 6501      69746F72 
 6501      5F315F6C 
 6501      61737441 
 6502              	.LASF8:
 6503 0327 6C6F6E67 		.ascii	"long long unsigned int\000"
 6503      206C6F6E 
 6503      6720756E 
 6503      7369676E 
 6503      65642069 
 6504              	.LASF131:
 6505 033e 506F7765 		.ascii	"PowerMonitor_1_OVWarnStatus\000"
 6505      724D6F6E 
 6505      69746F72 
 6505      5F315F4F 
 6505      56576172 
 6506              	.LASF152:
 6507 035a 506F7765 		.ascii	"PowerMonitor_1_OCFaultThreshold\000"
 6507      724D6F6E 
 6507      69746F72 
 6507      5F315F4F 
 6507      43466175 
 6508              	.LASF23:
 6509 037a 4F565761 		.ascii	"OVWarnThrshldCounts\000"
 6509      726E5468 
 6509      7273686C 
 6509      64436F75 
 6509      6E747300 
 6510              	.LASF83:
 6511 038e 506F7765 		.ascii	"PowerMonitor_1_SetUVWarnThreshold\000"
 6511      724D6F6E 
 6511      69746F72 
 6511      5F315F53 
 6511      65745556 
ARM GAS  C:\Users\user\AppData\Local\Temp\ccywx0XT.s 			page 153


 6512              	.LASF71:
 6513 03b0 506F7765 		.ascii	"PowerMonitor_1_GetWarnMode\000"
 6513      724D6F6E 
 6513      69746F72 
 6513      5F315F47 
 6513      65745761 
 6514              	.LASF104:
 6515 03cb 506F7765 		.ascii	"PowerMonitor_1_GetOCWarnThreshold\000"
 6515      724D6F6E 
 6515      69746F72 
 6515      5F315F47 
 6515      65744F43 
 6516              	.LASF22:
 6517 03ed 656E6162 		.ascii	"enable\000"
 6517      6C6500
 6518              	.LASF68:
 6519 03f4 506F7765 		.ascii	"PowerMonitor_1_DisableWarn\000"
 6519      724D6F6E 
 6519      69746F72 
 6519      5F315F44 
 6519      69736162 
 6520              	.LASF57:
 6521 040f 6661756C 		.ascii	"faultMask\000"
 6521      744D6173 
 6521      6B00
 6522              	.LASF144:
 6523 0419 506F7765 		.ascii	"PowerMonitor_1_lastCurrentChan\000"
 6523      724D6F6E 
 6523      69746F72 
 6523      5F315F6C 
 6523      61737443 
 6524              	.LASF165:
 6525 0438 474E5520 		.ascii	"GNU C11 5.4.1 20160609 (release) [ARM/embedded-5-br"
 6525      43313120 
 6525      352E342E 
 6525      31203230 
 6525      31363036 
 6526 046b 616E6368 		.ascii	"anch revision 237715] -mcpu=cortex-m3 -mthumb -g -O"
 6526      20726576 
 6526      6973696F 
 6526      6E203233 
 6526      37373135 
 6527 049e 67202D66 		.ascii	"g -ffunction-sections -ffat-lto-objects\000"
 6527      66756E63 
 6527      74696F6E 
 6527      2D736563 
 6527      74696F6E 
 6528              	.LASF138:
 6529 04c6 506F7765 		.ascii	"PowerMonitor_1_voltCtl\000"
 6529      724D6F6E 
 6529      69746F72 
 6529      5F315F76 
 6529      6F6C7443 
 6530              	.LASF154:
 6531 04dd 506F7765 		.ascii	"PowerMonitor_1_CSAGain\000"
 6531      724D6F6E 
 6531      69746F72 
ARM GAS  C:\Users\user\AppData\Local\Temp\ccywx0XT.s 			page 154


 6531      5F315F43 
 6531      53414761 
 6532              	.LASF108:
 6533 04f4 506F7765 		.ascii	"PowerMonitor_1_Enable\000"
 6533      724D6F6E 
 6533      69746F72 
 6533      5F315F45 
 6533      6E61626C 
 6534              	.LASF130:
 6535 050a 506F7765 		.ascii	"PowerMonitor_1_UVWarnStatus\000"
 6535      724D6F6E 
 6535      69746F72 
 6535      5F315F55 
 6535      56576172 
 6536              	.LASF54:
 6537 0526 506F7765 		.ascii	"PowerMonitor_1_SetFaultMode\000"
 6537      724D6F6E 
 6537      69746F72 
 6537      5F315F53 
 6537      65744661 
 6538              	.LASF148:
 6539 0542 506F7765 		.ascii	"PowerMonitor_1_UVFaultThreshold\000"
 6539      724D6F6E 
 6539      69746F72 
 6539      5F315F55 
 6539      56466175 
 6540              	.LASF63:
 6541 0562 506F7765 		.ascii	"PowerMonitor_1_GetUVFaultStatus\000"
 6541      724D6F6E 
 6541      69746F72 
 6541      5F315F47 
 6541      65745556 
 6542              	.LASF134:
 6543 0582 506F7765 		.ascii	"PowerMonitor_1_OVFaultStatus\000"
 6543      724D6F6E 
 6543      69746F72 
 6543      5F315F4F 
 6543      56466175 
 6544              	.LASF24:
 6545 059f 55565761 		.ascii	"UVWarnThrshldCounts\000"
 6545      726E5468 
 6545      7273686C 
 6545      64436F75 
 6545      6E747300 
 6546              	.LASF125:
 6547 05b3 506F7765 		.ascii	"PowerMonitor_1_warnSources\000"
 6547      724D6F6E 
 6547      69746F72 
 6547      5F315F77 
 6547      61726E53 
 6548              	.LASF143:
 6549 05ce 506F7765 		.ascii	"PowerMonitor_1_lastVoltageChan\000"
 6549      724D6F6E 
 6549      69746F72 
 6549      5F315F6C 
 6549      61737456 
 6550              	.LASF113:
ARM GAS  C:\Users\user\AppData\Local\Temp\ccywx0XT.s 			page 155


 6551 05ed 506F7765 		.ascii	"PowerMonitor_1_GetAuxiliaryVoltage\000"
 6551      724D6F6E 
 6551      69746F72 
 6551      5F315F47 
 6551      65744175 
 6552              	.LASF159:
 6553 0610 506F7765 		.ascii	"PowerMonitor_1_PGA_Stop\000"
 6553      724D6F6E 
 6553      69746F72 
 6553      5F315F50 
 6553      47415F53 
 6554              	.LASF53:
 6555 0628 506F7765 		.ascii	"PowerMonitor_1_Stop\000"
 6555      724D6F6E 
 6555      69746F72 
 6555      5F315F53 
 6555      746F7000 
 6556              	.LASF163:
 6557 063c 506F7765 		.ascii	"PowerMonitor_1_PGA_Start\000"
 6557      724D6F6E 
 6557      69746F72 
 6557      5F315F50 
 6557      47415F53 
 6558              	.LASF168:
 6559 0655 506F7765 		.ascii	"PowerMonitor_1_StartupIsr\000"
 6559      724D6F6E 
 6559      69746F72 
 6559      5F315F53 
 6559      74617274 
 6560              	.LASF42:
 6561 066f 506F7765 		.ascii	"PowerMonitor_1_AToCounts\000"
 6561      724D6F6E 
 6561      69746F72 
 6561      5F315F41 
 6561      546F436F 
 6562              	.LASF37:
 6563 0688 6368616E 		.ascii	"chan\000"
 6563      00
 6564              	.LASF16:
 6565 068d 63686172 		.ascii	"char\000"
 6565      00
 6566              	.LASF49:
 6567 0692 506F7765 		.ascii	"PowerMonitor_1_GetMeasuredVal\000"
 6567      724D6F6E 
 6567      69746F72 
 6567      5F315F47 
 6567      65744D65 
 6568              	.LASF90:
 6569 06b0 6F765761 		.ascii	"ovWarnThreshold\000"
 6569      726E5468 
 6569      72657368 
 6569      6F6C6400 
 6570              	.LASF114:
 6571 06c0 6175784E 		.ascii	"auxNum\000"
 6571      756D00
 6572              	.LASF84:
 6573 06c7 636F6E76 		.ascii	"converterNum\000"
ARM GAS  C:\Users\user\AppData\Local\Temp\ccywx0XT.s 			page 156


 6573      65727465 
 6573      724E756D 
 6573      00
 6574              	.LASF11:
 6575 06d4 75696E74 		.ascii	"uint16\000"
 6575      313600
 6576              	.LASF160:
 6577 06db 506F7765 		.ascii	"PowerMonitor_1_ADC_Stop\000"
 6577      724D6F6E 
 6577      69746F72 
 6577      5F315F41 
 6577      44435F53 
 6578              	.LASF52:
 6579 06f3 506F7765 		.ascii	"PowerMonitor_1_DisableFault\000"
 6579      724D6F6E 
 6579      69746F72 
 6579      5F315F44 
 6579      69736162 
 6580              	.LASF164:
 6581 070f 506F7765 		.ascii	"PowerMonitor_1_PGA_SetGain\000"
 6581      724D6F6E 
 6581      69746F72 
 6581      5F315F50 
 6581      47415F53 
 6582              	.LASF62:
 6583 072a 506F7765 		.ascii	"PowerMonitor_1_GetOVFaultStatus\000"
 6583      724D6F6E 
 6583      69746F72 
 6583      5F315F47 
 6583      65744F56 
 6584              	.LASF161:
 6585 074a 506F7765 		.ascii	"PowerMonitor_1_PM_AMux_Voltage_Start\000"
 6585      724D6F6E 
 6585      69746F72 
 6585      5F315F50 
 6585      4D5F414D 
 6586              	.LASF46:
 6587 076f 72657476 		.ascii	"retval\000"
 6587      616C00
 6588              	.LASF70:
 6589 0776 7761726E 		.ascii	"warnMode\000"
 6589      4D6F6465 
 6589      00
 6590              	.LASF140:
 6591 077f 506F7765 		.ascii	"PowerMonitor_1_VoltageType\000"
 6591      724D6F6E 
 6591      69746F72 
 6591      5F315F56 
 6591      6F6C7461 
 6592              	.LASF139:
 6593 079a 506F7765 		.ascii	"PowerMonitor_1_ampCtl\000"
 6593      724D6F6E 
 6593      69746F72 
 6593      5F315F61 
 6593      6D704374 
 6594              	.LASF7:
 6595 07b0 6C6F6E67 		.ascii	"long long int\000"
ARM GAS  C:\Users\user\AppData\Local\Temp\ccywx0XT.s 			page 157


 6595      206C6F6E 
 6595      6720696E 
 6595      7400
 6596              	.LASF93:
 6597 07be 506F7765 		.ascii	"PowerMonitor_1_SetUVFaultThreshold\000"
 6597      724D6F6E 
 6597      69746F72 
 6597      5F315F53 
 6597      65745556 
 6598              	.LASF166:
 6599 07e1 47656E65 		.ascii	"Generated_Source\\PSoC5\\PowerMonitor_1.c\000"
 6599      72617465 
 6599      645F536F 
 6599      75726365 
 6599      5C50536F 
 6600              	.LASF141:
 6601 0809 506F7765 		.ascii	"PowerMonitor_1_CurrentType\000"
 6601      724D6F6E 
 6601      69746F72 
 6601      5F315F43 
 6601      75727265 
 6602              	.LASF64:
 6603 0824 55564661 		.ascii	"UVFaultStatus\000"
 6603      756C7453 
 6603      74617475 
 6603      7300
 6604              	.LASF89:
 6605 0832 506F7765 		.ascii	"PowerMonitor_1_SetOVWarnThreshold\000"
 6605      724D6F6E 
 6605      69746F72 
 6605      5F315F53 
 6605      65744F56 
 6606              	.LASF77:
 6607 0854 506F7765 		.ascii	"PowerMonitor_1_GetOVWarnStatus\000"
 6607      724D6F6E 
 6607      69746F72 
 6607      5F315F47 
 6607      65744F56 
 6608              	.LASF129:
 6609 0873 506F7765 		.ascii	"PowerMonitor_1_OCWarnStatus\000"
 6609      724D6F6E 
 6609      69746F72 
 6609      5F315F4F 
 6609      43576172 
 6610              	.LASF12:
 6611 088f 75696E74 		.ascii	"uint32\000"
 6611      333200
 6612              	.LASF28:
 6613 0896 4F435761 		.ascii	"OCWarnThrshldAmps\000"
 6613      726E5468 
 6613      7273686C 
 6613      64416D70 
 6613      7300
 6614              	.LASF61:
 6615 08a8 4F564661 		.ascii	"OVFaultStatus\000"
 6615      756C7453 
 6615      74617475 
ARM GAS  C:\Users\user\AppData\Local\Temp\ccywx0XT.s 			page 158


 6615      7300
 6616              	.LASF72:
 6617 08b6 506F7765 		.ascii	"PowerMonitor_1_SetWarnMask\000"
 6617      724D6F6E 
 6617      69746F72 
 6617      5F315F53 
 6617      65745761 
 6618              	.LASF116:
 6619 08d1 506F7765 		.ascii	"PowerMonitor_1_initThreshold\000"
 6619      724D6F6E 
 6619      69746F72 
 6619      5F315F69 
 6619      6E697454 
 6620              	.LASF128:
 6621 08ee 506F7765 		.ascii	"PowerMonitor_1_faultSourceStatus\000"
 6621      724D6F6E 
 6621      69746F72 
 6621      5F315F66 
 6621      61756C74 
 6622              	.LASF88:
 6623 090f 506F7765 		.ascii	"PowerMonitor_1_GetUVWarnThreshold\000"
 6623      724D6F6E 
 6623      69746F72 
 6623      5F315F47 
 6623      65745556 
 6624              	.LASF147:
 6625 0931 506F7765 		.ascii	"PowerMonitor_1_OVWarnThreshold\000"
 6625      724D6F6E 
 6625      69746F72 
 6625      5F315F4F 
 6625      56576172 
 6626              	.LASF40:
 6627 0950 636F756E 		.ascii	"counts\000"
 6627      747300
 6628              	.LASF41:
 6629 0957 506F7765 		.ascii	"PowerMonitor_1_mVToCounts\000"
 6629      724D6F6E 
 6629      69746F72 
 6629      5F315F6D 
 6629      56546F43 
 6630              	.LASF109:
 6631 0971 506F7765 		.ascii	"PowerMonitor_1_Start\000"
 6631      724D6F6E 
 6631      69746F72 
 6631      5F315F53 
 6631      74617274 
 6632              	.LASF59:
 6633 0986 506F7765 		.ascii	"PowerMonitor_1_GetFaultMask\000"
 6633      724D6F6E 
 6633      69746F72 
 6633      5F315F47 
 6633      65744661 
 6634              	.LASF91:
 6635 09a2 6F765761 		.ascii	"ovWarnCounts\000"
 6635      726E436F 
 6635      756E7473 
 6635      00
ARM GAS  C:\Users\user\AppData\Local\Temp\ccywx0XT.s 			page 159


 6636              	.LASF18:
 6637 09af 6C6F6E67 		.ascii	"long double\000"
 6637      20646F75 
 6637      626C6500 
 6638              	.LASF127:
 6639 09bb 506F7765 		.ascii	"PowerMonitor_1_warnSourceStatus\000"
 6639      724D6F6E 
 6639      69746F72 
 6639      5F315F77 
 6639      61726E53 
 6640              	.LASF17:
 6641 09db 72656733 		.ascii	"reg32\000"
 6641      3200
 6642              	.LASF27:
 6643 09e1 55565761 		.ascii	"UVWarnThrshldVolts\000"
 6643      726E5468 
 6643      7273686C 
 6643      64566F6C 
 6643      747300
 6644              	.LASF76:
 6645 09f4 506F7765 		.ascii	"PowerMonitor_1_GetWarnSource\000"
 6645      724D6F6E 
 6645      69746F72 
 6645      5F315F47 
 6645      65745761 
 6646              	.LASF95:
 6647 0a11 75764661 		.ascii	"uvFaultCounts\000"
 6647      756C7443 
 6647      6F756E74 
 6647      7300
 6648              	.LASF122:
 6649 0a1f 506F7765 		.ascii	"PowerMonitor_1_warnMask\000"
 6649      724D6F6E 
 6649      69746F72 
 6649      5F315F77 
 6649      61726E4D 
 6650              	.LASF132:
 6651 0a37 506F7765 		.ascii	"PowerMonitor_1_OCFaultStatus\000"
 6651      724D6F6E 
 6651      69746F72 
 6651      5F315F4F 
 6651      43466175 
 6652              	.LASF3:
 6653 0a54 73686F72 		.ascii	"short int\000"
 6653      7420696E 
 6653      7400
 6654              	.LASF5:
 6655 0a5e 6C6F6E67 		.ascii	"long int\000"
 6655      20696E74 
 6655      00
 6656              	.LASF99:
 6657 0a67 6F764661 		.ascii	"ovFaultCounts\000"
 6657      756C7443 
 6657      6F756E74 
 6657      7300
 6658              	.LASF156:
 6659 0a75 506F7765 		.ascii	"PowerMonitor_1_Calibrate\000"
ARM GAS  C:\Users\user\AppData\Local\Temp\ccywx0XT.s 			page 160


 6659      724D6F6E 
 6659      69746F72 
 6659      5F315F43 
 6659      616C6962 
 6660              	.LASF33:
 6661 0a8e 4F564661 		.ascii	"OVFaultThrshldVolts\000"
 6661      756C7454 
 6661      68727368 
 6661      6C64566F 
 6661      6C747300 
 6662              	.LASF32:
 6663 0aa2 4F434661 		.ascii	"OCFaultThrshldCounts\000"
 6663      756C7454 
 6663      68727368 
 6663      6C64436F 
 6663      756E7473 
 6664              	.LASF45:
 6665 0ab7 6368616E 		.ascii	"chanType\000"
 6665      54797065 
 6665      00
 6666              	.LASF111:
 6667 0ac0 506F7765 		.ascii	"PowerMonitor_1_GetConverterVoltage\000"
 6667      724D6F6E 
 6667      69746F72 
 6667      5F315F47 
 6667      6574436F 
 6668              	.LASF162:
 6669 0ae3 506F7765 		.ascii	"PowerMonitor_1_PM_AMux_Current_Start\000"
 6669      724D6F6E 
 6669      69746F72 
 6669      5F315F50 
 6669      4D5F414D 
 6670              	.LASF79:
 6671 0b08 506F7765 		.ascii	"PowerMonitor_1_GetUVWarnStatus\000"
 6671      724D6F6E 
 6671      69746F72 
 6671      5F315F47 
 6671      65745556 
 6672              	.LASF112:
 6673 0b27 506F7765 		.ascii	"PowerMonitor_1_GetConverterCurrent\000"
 6673      724D6F6E 
 6673      69746F72 
 6673      5F315F47 
 6673      6574436F 
 6674              	.LASF106:
 6675 0b4a 6F634661 		.ascii	"ocFaultThreshold\000"
 6675      756C7454 
 6675      68726573 
 6675      686F6C64 
 6675      00
 6676              	.LASF110:
 6677 0b5b 506F7765 		.ascii	"PowerMonitor_1_GetOCFaultThreshold\000"
 6677      724D6F6E 
 6677      69746F72 
 6677      5F315F47 
 6677      65744F43 
 6678              	.LASF56:
ARM GAS  C:\Users\user\AppData\Local\Temp\ccywx0XT.s 			page 161


 6679 0b7e 506F7765 		.ascii	"PowerMonitor_1_SetFaultMask\000"
 6679      724D6F6E 
 6679      69746F72 
 6679      5F315F53 
 6679      65744661 
 6680              	.LASF78:
 6681 0b9a 4F565761 		.ascii	"OVWarnStatus\000"
 6681      726E5374 
 6681      61747573 
 6681      00
 6682              	.LASF158:
 6683 0ba7 506F7765 		.ascii	"PowerMonitor_1_PM_AMux_Current_Stop\000"
 6683      724D6F6E 
 6683      69746F72 
 6683      5F315F50 
 6683      4D5F414D 
 6684              	.LASF98:
 6685 0bcb 6F764661 		.ascii	"ovFaultThreshold\000"
 6685      756C7454 
 6685      68726573 
 6685      686F6C64 
 6685      00
 6686              	.LASF19:
 6687 0bdc 73697A65 		.ascii	"sizetype\000"
 6687      74797065 
 6687      00
 6688              	.LASF100:
 6689 0be5 506F7765 		.ascii	"PowerMonitor_1_GetOVFaultThreshold\000"
 6689      724D6F6E 
 6689      69746F72 
 6689      5F315F47 
 6689      65744F56 
 6690              	.LASF6:
 6691 0c08 6C6F6E67 		.ascii	"long unsigned int\000"
 6691      20756E73 
 6691      69676E65 
 6691      6420696E 
 6691      7400
 6692              	.LASF34:
 6693 0c1a 55564661 		.ascii	"UVFaultThrshldVolts\000"
 6693      756C7454 
 6693      68727368 
 6693      6C64566F 
 6693      6C747300 
 6694              	.LASF26:
 6695 0c2e 4F565761 		.ascii	"OVWarnThrshldVolts\000"
 6695      726E5468 
 6695      7273686C 
 6695      64566F6C 
 6695      747300
 6696              	.LASF65:
 6697 0c41 506F7765 		.ascii	"PowerMonitor_1_GetOCFaultStatus\000"
 6697      724D6F6E 
 6697      69746F72 
 6697      5F315F47 
 6697      65744F43 
 6698              	.LASF44:
ARM GAS  C:\Users\user\AppData\Local\Temp\ccywx0XT.s 			page 162


 6699 0c61 506F7765 		.ascii	"PowerMonitor_1_GetFiltRaw\000"
 6699      724D6F6E 
 6699      69746F72 
 6699      5F315F47 
 6699      65744669 
 6700              	.LASF102:
 6701 0c7b 6F635761 		.ascii	"ocWarnThreshold\000"
 6701      726E5468 
 6701      72657368 
 6701      6F6C6400 
 6702              	.LASF119:
 6703 0c8b 506F7765 		.ascii	"PowerMonitor_1_maxChannels\000"
 6703      724D6F6E 
 6703      69746F72 
 6703      5F315F6D 
 6703      61784368 
 6704              	.LASF20:
 6705 0ca6 66696C74 		.ascii	"filtVal\000"
 6705      56616C00 
 6706              	.LASF2:
 6707 0cae 756E7369 		.ascii	"unsigned char\000"
 6707      676E6564 
 6707      20636861 
 6707      7200
 6708              	.LASF121:
 6709 0cbc 506F7765 		.ascii	"PowerMonitor_1_faultMask\000"
 6709      724D6F6E 
 6709      69746F72 
 6709      5F315F66 
 6709      61756C74 
 6710              	.LASF101:
 6711 0cd5 506F7765 		.ascii	"PowerMonitor_1_SetOCWarnThreshold\000"
 6711      724D6F6E 
 6711      69746F72 
 6711      5F315F53 
 6711      65744F43 
 6712              	.LASF155:
 6713 0cf7 506F7765 		.ascii	"PowerMonitor_1_IsrStart\000"
 6713      724D6F6E 
 6713      69746F72 
 6713      5F315F49 
 6713      73725374 
 6714              	.LASF29:
 6715 0d0f 506F7765 		.ascii	"PowerMonitor_1_WARNWIN_STRUCT\000"
 6715      724D6F6E 
 6715      69746F72 
 6715      5F315F57 
 6715      41524E57 
 6716              	.LASF74:
 6717 0d2d 506F7765 		.ascii	"PowerMonitor_1_Init\000"
 6717      724D6F6E 
 6717      69746F72 
 6717      5F315F49 
 6717      6E697400 
 6718              	.LASF80:
 6719 0d41 55565761 		.ascii	"UVWarnStatus\000"
 6719      726E5374 
ARM GAS  C:\Users\user\AppData\Local\Temp\ccywx0XT.s 			page 163


 6719      61747573 
 6719      00
 6720              	.LASF55:
 6721 0d4e 6661756C 		.ascii	"faultMode\000"
 6721      744D6F64 
 6721      6500
 6722              	.LASF38:
 6723 0d58 636F6E76 		.ascii	"convSuccess\000"
 6723      53756363 
 6723      65737300 
 6724              	.LASF81:
 6725 0d64 506F7765 		.ascii	"PowerMonitor_1_GetOCWarnStatus\000"
 6725      724D6F6E 
 6725      69746F72 
 6725      5F315F47 
 6725      65744F43 
 6726              	.LASF36:
 6727 0d83 506F7765 		.ascii	"PowerMonitor_1_FAULTWIN_STRUCT\000"
 6727      724D6F6E 
 6727      69746F72 
 6727      5F315F46 
 6727      41554C54 
 6728              	.LASF126:
 6729 0da2 506F7765 		.ascii	"PowerMonitor_1_faultSources\000"
 6729      724D6F6E 
 6729      69746F72 
 6729      5F315F66 
 6729      61756C74 
 6730              	.LASF87:
 6731 0dbe 636F6E76 		.ascii	"convRes\000"
 6731      52657300 
 6732              	.LASF151:
 6733 0dc6 506F7765 		.ascii	"PowerMonitor_1_OCWarnThreshold\000"
 6733      724D6F6E 
 6733      69746F72 
 6733      5F315F4F 
 6733      43576172 
 6734              	.LASF118:
 6735 0de5 506F7765 		.ascii	"PowerMonitor_1_faultWin\000"
 6735      724D6F6E 
 6735      69746F72 
 6735      5F315F66 
 6735      61756C74 
 6736              	.LASF47:
 6737 0dfd 506F7765 		.ascii	"PowerMonitor_1_GetArrayIndex\000"
 6737      724D6F6E 
 6737      69746F72 
 6737      5F315F47 
 6737      65744172 
 6738              	.LASF86:
 6739 0e1a 75765761 		.ascii	"uvWarnCounts\000"
 6739      726E436F 
 6739      756E7473 
 6739      00
 6740              	.LASF66:
 6741 0e27 4F434661 		.ascii	"OCFaultStatus\000"
 6741      756C7453 
ARM GAS  C:\Users\user\AppData\Local\Temp\ccywx0XT.s 			page 164


 6741      74617475 
 6741      7300
 6742              	.LASF1:
 6743 0e35 7369676E 		.ascii	"signed char\000"
 6743      65642063 
 6743      68617200 
 6744              	.LASF4:
 6745 0e41 73686F72 		.ascii	"short unsigned int\000"
 6745      7420756E 
 6745      7369676E 
 6745      65642069 
 6745      6E7400
 6746              	.LASF153:
 6747 0e54 506F7765 		.ascii	"PowerMonitor_1_RShunt\000"
 6747      724D6F6E 
 6747      69746F72 
 6747      5F315F52 
 6747      5368756E 
 6748              	.LASF73:
 6749 0e6a 7761726E 		.ascii	"warnMask\000"
 6749      4D61736B 
 6749      00
 6750              	.LASF30:
 6751 0e73 4F564661 		.ascii	"OVFaultThrshldCounts\000"
 6751      756C7454 
 6751      68727368 
 6751      6C64436F 
 6751      756E7473 
 6752              	.LASF43:
 6753 0e88 63757272 		.ascii	"current\000"
 6753      656E7400 
 6754              	.LASF103:
 6755 0e90 6F635761 		.ascii	"ocWarnCounts\000"
 6755      726E436F 
 6755      756E7473 
 6755      00
 6756              	.LASF10:
 6757 0e9d 75696E74 		.ascii	"uint8\000"
 6757      3800
 6758              	.LASF15:
 6759 0ea3 646F7562 		.ascii	"double\000"
 6759      6C6500
 6760              	.LASF115:
 6761 0eaa 506F7765 		.ascii	"PowerMonitor_1_initVar\000"
 6761      724D6F6E 
 6761      69746F72 
 6761      5F315F69 
 6761      6E697456 
 6762              	.LASF97:
 6763 0ec1 506F7765 		.ascii	"PowerMonitor_1_SetOVFaultThreshold\000"
 6763      724D6F6E 
 6763      69746F72 
 6763      5F315F53 
 6763      65744F56 
 6764              	.LASF120:
 6765 0ee4 506F7765 		.ascii	"PowerMonitor_1_iirInit\000"
 6765      724D6F6E 
ARM GAS  C:\Users\user\AppData\Local\Temp\ccywx0XT.s 			page 165


 6765      69746F72 
 6765      5F315F69 
 6765      6972496E 
 6766              	.LASF92:
 6767 0efb 506F7765 		.ascii	"PowerMonitor_1_GetOVWarnThreshold\000"
 6767      724D6F6E 
 6767      69746F72 
 6767      5F315F47 
 6767      65744F56 
 6768              	.LASF51:
 6769 0f1d 506F7765 		.ascii	"PowerMonitor_1_EnableFault\000"
 6769      724D6F6E 
 6769      69746F72 
 6769      5F315F45 
 6769      6E61626C 
 6770              	.LASF25:
 6771 0f38 4F435761 		.ascii	"OCWarnThrshldCounts\000"
 6771      726E5468 
 6771      7273686C 
 6771      64436F75 
 6771      6E747300 
 6772              		.ident	"GCC: (GNU Tools for ARM Embedded Processors) 5.4.1 20160609 (release) [ARM/embedded-5-bran
