ARM GAS  C:\Users\user\AppData\Local\Temp\cc4CXToh.s 			page 1


   1              		.syntax unified
   2              		.cpu cortex-m3
   3              		.fpu softvfp
   4              		.eabi_attribute 20, 1
   5              		.eabi_attribute 21, 1
   6              		.eabi_attribute 23, 3
   7              		.eabi_attribute 24, 1
   8              		.eabi_attribute 25, 1
   9              		.eabi_attribute 26, 1
  10              		.eabi_attribute 30, 1
  11              		.eabi_attribute 34, 1
  12              		.eabi_attribute 18, 4
  13              		.thumb
  14              		.syntax unified
  15              		.file	"ShiftReg_6.c"
  16              		.text
  17              	.Ltext0:
  18              		.cfi_sections	.debug_frame
  19              		.section	.text.ShiftReg_6_EnableInt,"ax",%progbits
  20              		.align	2
  21              		.global	ShiftReg_6_EnableInt
  22              		.thumb
  23              		.thumb_func
  24              		.type	ShiftReg_6_EnableInt, %function
  25              	ShiftReg_6_EnableInt:
  26              	.LFB4:
  27              		.file 1 "Generated_Source\\PSoC5\\ShiftReg_6.c"
   1:Generated_Source\PSoC5/ShiftReg_6.c **** /*******************************************************************************
   2:Generated_Source\PSoC5/ShiftReg_6.c **** * File Name: ShiftReg_6.c
   3:Generated_Source\PSoC5/ShiftReg_6.c **** * Version 2.30
   4:Generated_Source\PSoC5/ShiftReg_6.c **** *
   5:Generated_Source\PSoC5/ShiftReg_6.c **** * Description:
   6:Generated_Source\PSoC5/ShiftReg_6.c **** *  This file provides the API source code for the Shift Register component.
   7:Generated_Source\PSoC5/ShiftReg_6.c **** *
   8:Generated_Source\PSoC5/ShiftReg_6.c **** * Note: none
   9:Generated_Source\PSoC5/ShiftReg_6.c **** *
  10:Generated_Source\PSoC5/ShiftReg_6.c **** ********************************************************************************
  11:Generated_Source\PSoC5/ShiftReg_6.c **** * Copyright 2008-2013, Cypress Semiconductor Corporation.  All rights reserved.
  12:Generated_Source\PSoC5/ShiftReg_6.c **** * You may use this file only in accordance with the license, terms, conditions,
  13:Generated_Source\PSoC5/ShiftReg_6.c **** * disclaimers, and limitations in the end user license agreement accompanying
  14:Generated_Source\PSoC5/ShiftReg_6.c **** * the software package with which this file was provided.
  15:Generated_Source\PSoC5/ShiftReg_6.c **** ********************************************************************************/
  16:Generated_Source\PSoC5/ShiftReg_6.c **** 
  17:Generated_Source\PSoC5/ShiftReg_6.c **** #include "ShiftReg_6.h"
  18:Generated_Source\PSoC5/ShiftReg_6.c **** 
  19:Generated_Source\PSoC5/ShiftReg_6.c **** uint8 ShiftReg_6_initVar = 0u;
  20:Generated_Source\PSoC5/ShiftReg_6.c **** 
  21:Generated_Source\PSoC5/ShiftReg_6.c **** 
  22:Generated_Source\PSoC5/ShiftReg_6.c **** /*******************************************************************************
  23:Generated_Source\PSoC5/ShiftReg_6.c **** * Function Name: ShiftReg_6_Start
  24:Generated_Source\PSoC5/ShiftReg_6.c **** ********************************************************************************
  25:Generated_Source\PSoC5/ShiftReg_6.c **** *
  26:Generated_Source\PSoC5/ShiftReg_6.c **** * Summary:
  27:Generated_Source\PSoC5/ShiftReg_6.c **** *  Starts the Shift Register.
  28:Generated_Source\PSoC5/ShiftReg_6.c **** *
  29:Generated_Source\PSoC5/ShiftReg_6.c **** * Parameters:
  30:Generated_Source\PSoC5/ShiftReg_6.c **** *  None.
ARM GAS  C:\Users\user\AppData\Local\Temp\cc4CXToh.s 			page 2


  31:Generated_Source\PSoC5/ShiftReg_6.c **** *
  32:Generated_Source\PSoC5/ShiftReg_6.c **** * Return:
  33:Generated_Source\PSoC5/ShiftReg_6.c **** *  None.
  34:Generated_Source\PSoC5/ShiftReg_6.c **** *
  35:Generated_Source\PSoC5/ShiftReg_6.c **** * Global Variables:
  36:Generated_Source\PSoC5/ShiftReg_6.c **** *  ShiftReg_6_initVar - used to check initial configuration, modified on
  37:Generated_Source\PSoC5/ShiftReg_6.c **** *  first function call.
  38:Generated_Source\PSoC5/ShiftReg_6.c **** *
  39:Generated_Source\PSoC5/ShiftReg_6.c **** * Reentrant:
  40:Generated_Source\PSoC5/ShiftReg_6.c **** *  No.
  41:Generated_Source\PSoC5/ShiftReg_6.c **** *
  42:Generated_Source\PSoC5/ShiftReg_6.c **** *******************************************************************************/
  43:Generated_Source\PSoC5/ShiftReg_6.c **** void ShiftReg_6_Start(void) 
  44:Generated_Source\PSoC5/ShiftReg_6.c **** {
  45:Generated_Source\PSoC5/ShiftReg_6.c ****     if(0u == ShiftReg_6_initVar)
  46:Generated_Source\PSoC5/ShiftReg_6.c ****     {
  47:Generated_Source\PSoC5/ShiftReg_6.c ****         ShiftReg_6_Init();
  48:Generated_Source\PSoC5/ShiftReg_6.c ****         ShiftReg_6_initVar = 1u; /* Component initialized */
  49:Generated_Source\PSoC5/ShiftReg_6.c ****     }
  50:Generated_Source\PSoC5/ShiftReg_6.c **** 
  51:Generated_Source\PSoC5/ShiftReg_6.c ****     ShiftReg_6_Enable();
  52:Generated_Source\PSoC5/ShiftReg_6.c **** }
  53:Generated_Source\PSoC5/ShiftReg_6.c **** 
  54:Generated_Source\PSoC5/ShiftReg_6.c **** 
  55:Generated_Source\PSoC5/ShiftReg_6.c **** /*******************************************************************************
  56:Generated_Source\PSoC5/ShiftReg_6.c **** * Function Name: ShiftReg_6_Enable
  57:Generated_Source\PSoC5/ShiftReg_6.c **** ********************************************************************************
  58:Generated_Source\PSoC5/ShiftReg_6.c **** *
  59:Generated_Source\PSoC5/ShiftReg_6.c **** * Summary:
  60:Generated_Source\PSoC5/ShiftReg_6.c **** *  Enables the Shift Register.
  61:Generated_Source\PSoC5/ShiftReg_6.c **** *
  62:Generated_Source\PSoC5/ShiftReg_6.c **** * Parameters:
  63:Generated_Source\PSoC5/ShiftReg_6.c **** *  void.
  64:Generated_Source\PSoC5/ShiftReg_6.c **** *
  65:Generated_Source\PSoC5/ShiftReg_6.c **** * Return:
  66:Generated_Source\PSoC5/ShiftReg_6.c **** *  void.
  67:Generated_Source\PSoC5/ShiftReg_6.c **** *
  68:Generated_Source\PSoC5/ShiftReg_6.c **** *******************************************************************************/
  69:Generated_Source\PSoC5/ShiftReg_6.c **** void ShiftReg_6_Enable(void) 
  70:Generated_Source\PSoC5/ShiftReg_6.c **** {
  71:Generated_Source\PSoC5/ShiftReg_6.c ****     /* Changing address in Datapath Control Store
  72:Generated_Source\PSoC5/ShiftReg_6.c ****        from NOP to component state machine commands space */
  73:Generated_Source\PSoC5/ShiftReg_6.c ****     ShiftReg_6_SR_CONTROL |= ShiftReg_6_CLK_EN;
  74:Generated_Source\PSoC5/ShiftReg_6.c **** 
  75:Generated_Source\PSoC5/ShiftReg_6.c ****     ShiftReg_6_EnableInt();
  76:Generated_Source\PSoC5/ShiftReg_6.c **** }
  77:Generated_Source\PSoC5/ShiftReg_6.c **** 
  78:Generated_Source\PSoC5/ShiftReg_6.c **** 
  79:Generated_Source\PSoC5/ShiftReg_6.c **** /*******************************************************************************
  80:Generated_Source\PSoC5/ShiftReg_6.c **** * Function Name: ShiftReg_6_Init
  81:Generated_Source\PSoC5/ShiftReg_6.c **** ********************************************************************************
  82:Generated_Source\PSoC5/ShiftReg_6.c **** *
  83:Generated_Source\PSoC5/ShiftReg_6.c **** * Summary:
  84:Generated_Source\PSoC5/ShiftReg_6.c **** *  Initializes Tx and/or Rx interrupt sources with initial values.
  85:Generated_Source\PSoC5/ShiftReg_6.c **** *
  86:Generated_Source\PSoC5/ShiftReg_6.c **** * Parameters:
  87:Generated_Source\PSoC5/ShiftReg_6.c **** *  void.
ARM GAS  C:\Users\user\AppData\Local\Temp\cc4CXToh.s 			page 3


  88:Generated_Source\PSoC5/ShiftReg_6.c **** *
  89:Generated_Source\PSoC5/ShiftReg_6.c **** * Return:
  90:Generated_Source\PSoC5/ShiftReg_6.c **** *  void.
  91:Generated_Source\PSoC5/ShiftReg_6.c **** *
  92:Generated_Source\PSoC5/ShiftReg_6.c **** *******************************************************************************/
  93:Generated_Source\PSoC5/ShiftReg_6.c **** void ShiftReg_6_Init(void) 
  94:Generated_Source\PSoC5/ShiftReg_6.c **** {
  95:Generated_Source\PSoC5/ShiftReg_6.c ****     ShiftReg_6_SetIntMode(ShiftReg_6_INT_SRC);
  96:Generated_Source\PSoC5/ShiftReg_6.c **** }
  97:Generated_Source\PSoC5/ShiftReg_6.c **** 
  98:Generated_Source\PSoC5/ShiftReg_6.c **** 
  99:Generated_Source\PSoC5/ShiftReg_6.c **** /*******************************************************************************
 100:Generated_Source\PSoC5/ShiftReg_6.c **** * Function Name: ShiftReg_6_Stop
 101:Generated_Source\PSoC5/ShiftReg_6.c **** ********************************************************************************
 102:Generated_Source\PSoC5/ShiftReg_6.c **** *
 103:Generated_Source\PSoC5/ShiftReg_6.c **** * Summary:
 104:Generated_Source\PSoC5/ShiftReg_6.c **** *  Disables the Shift Register
 105:Generated_Source\PSoC5/ShiftReg_6.c **** *
 106:Generated_Source\PSoC5/ShiftReg_6.c **** * Parameters:
 107:Generated_Source\PSoC5/ShiftReg_6.c **** *  None.
 108:Generated_Source\PSoC5/ShiftReg_6.c **** *
 109:Generated_Source\PSoC5/ShiftReg_6.c **** * Return:
 110:Generated_Source\PSoC5/ShiftReg_6.c **** *  None.
 111:Generated_Source\PSoC5/ShiftReg_6.c **** *
 112:Generated_Source\PSoC5/ShiftReg_6.c **** *******************************************************************************/
 113:Generated_Source\PSoC5/ShiftReg_6.c **** void ShiftReg_6_Stop(void) 
 114:Generated_Source\PSoC5/ShiftReg_6.c **** {
 115:Generated_Source\PSoC5/ShiftReg_6.c ****     /*changing Datapath Control Store address to NOP space*/
 116:Generated_Source\PSoC5/ShiftReg_6.c ****     ShiftReg_6_SR_CONTROL &= ((uint8) ~ShiftReg_6_CLK_EN);
 117:Generated_Source\PSoC5/ShiftReg_6.c ****     ShiftReg_6_DisableInt();
 118:Generated_Source\PSoC5/ShiftReg_6.c **** }
 119:Generated_Source\PSoC5/ShiftReg_6.c **** 
 120:Generated_Source\PSoC5/ShiftReg_6.c **** 
 121:Generated_Source\PSoC5/ShiftReg_6.c **** /*******************************************************************************
 122:Generated_Source\PSoC5/ShiftReg_6.c **** * Function Name: ShiftReg_6_EnableInt
 123:Generated_Source\PSoC5/ShiftReg_6.c **** ********************************************************************************
 124:Generated_Source\PSoC5/ShiftReg_6.c **** *
 125:Generated_Source\PSoC5/ShiftReg_6.c **** * Summary:
 126:Generated_Source\PSoC5/ShiftReg_6.c **** *  Enables the Shift Register interrupt.
 127:Generated_Source\PSoC5/ShiftReg_6.c **** *
 128:Generated_Source\PSoC5/ShiftReg_6.c **** * Parameters:
 129:Generated_Source\PSoC5/ShiftReg_6.c **** *  None.
 130:Generated_Source\PSoC5/ShiftReg_6.c **** *
 131:Generated_Source\PSoC5/ShiftReg_6.c **** * Return:
 132:Generated_Source\PSoC5/ShiftReg_6.c **** *  None.
 133:Generated_Source\PSoC5/ShiftReg_6.c **** *
 134:Generated_Source\PSoC5/ShiftReg_6.c **** *******************************************************************************/
 135:Generated_Source\PSoC5/ShiftReg_6.c **** void ShiftReg_6_EnableInt(void) 
 136:Generated_Source\PSoC5/ShiftReg_6.c **** {
  28              		.loc 1 136 0
  29              		.cfi_startproc
  30              		@ args = 0, pretend = 0, frame = 0
  31              		@ frame_needed = 0, uses_anonymous_args = 0
  32 0000 08B5     		push	{r3, lr}
  33              		.cfi_def_cfa_offset 8
  34              		.cfi_offset 3, -8
  35              		.cfi_offset 14, -4
ARM GAS  C:\Users\user\AppData\Local\Temp\cc4CXToh.s 			page 4


 137:Generated_Source\PSoC5/ShiftReg_6.c ****     uint8 interruptState;
 138:Generated_Source\PSoC5/ShiftReg_6.c **** 
 139:Generated_Source\PSoC5/ShiftReg_6.c ****     interruptState = CyEnterCriticalSection();
  36              		.loc 1 139 0
  37 0002 FFF7FEFF 		bl	CyEnterCriticalSection
  38              	.LVL0:
 140:Generated_Source\PSoC5/ShiftReg_6.c ****     ShiftReg_6_SR_AUX_CONTROL |= ShiftReg_6_INTERRUPTS_ENABLE;
  39              		.loc 1 140 0
  40 0006 044A     		ldr	r2, .L3
  41 0008 1378     		ldrb	r3, [r2]	@ zero_extendqisi2
  42 000a 43F01003 		orr	r3, r3, #16
  43 000e 1370     		strb	r3, [r2]
 141:Generated_Source\PSoC5/ShiftReg_6.c ****     CyExitCriticalSection(interruptState);
  44              		.loc 1 141 0
  45 0010 FFF7FEFF 		bl	CyExitCriticalSection
  46              	.LVL1:
  47 0014 08BD     		pop	{r3, pc}
  48              	.L4:
  49 0016 00BF     		.align	2
  50              	.L3:
  51 0018 96640040 		.word	1073767574
  52              		.cfi_endproc
  53              	.LFE4:
  54              		.size	ShiftReg_6_EnableInt, .-ShiftReg_6_EnableInt
  55              		.section	.text.ShiftReg_6_Enable,"ax",%progbits
  56              		.align	2
  57              		.global	ShiftReg_6_Enable
  58              		.thumb
  59              		.thumb_func
  60              		.type	ShiftReg_6_Enable, %function
  61              	ShiftReg_6_Enable:
  62              	.LFB1:
  70:Generated_Source\PSoC5/ShiftReg_6.c ****     /* Changing address in Datapath Control Store
  63              		.loc 1 70 0
  64              		.cfi_startproc
  65              		@ args = 0, pretend = 0, frame = 0
  66              		@ frame_needed = 0, uses_anonymous_args = 0
  67 0000 08B5     		push	{r3, lr}
  68              		.cfi_def_cfa_offset 8
  69              		.cfi_offset 3, -8
  70              		.cfi_offset 14, -4
  73:Generated_Source\PSoC5/ShiftReg_6.c **** 
  71              		.loc 1 73 0
  72 0002 044A     		ldr	r2, .L7
  73 0004 1378     		ldrb	r3, [r2]	@ zero_extendqisi2
  74 0006 43F00103 		orr	r3, r3, #1
  75 000a 1370     		strb	r3, [r2]
  75:Generated_Source\PSoC5/ShiftReg_6.c **** }
  76              		.loc 1 75 0
  77 000c FFF7FEFF 		bl	ShiftReg_6_EnableInt
  78              	.LVL2:
  79 0010 08BD     		pop	{r3, pc}
  80              	.L8:
  81 0012 00BF     		.align	2
  82              	.L7:
  83 0014 75640040 		.word	1073767541
  84              		.cfi_endproc
ARM GAS  C:\Users\user\AppData\Local\Temp\cc4CXToh.s 			page 5


  85              	.LFE1:
  86              		.size	ShiftReg_6_Enable, .-ShiftReg_6_Enable
  87              		.section	.text.ShiftReg_6_DisableInt,"ax",%progbits
  88              		.align	2
  89              		.global	ShiftReg_6_DisableInt
  90              		.thumb
  91              		.thumb_func
  92              		.type	ShiftReg_6_DisableInt, %function
  93              	ShiftReg_6_DisableInt:
  94              	.LFB5:
 142:Generated_Source\PSoC5/ShiftReg_6.c **** }
 143:Generated_Source\PSoC5/ShiftReg_6.c **** 
 144:Generated_Source\PSoC5/ShiftReg_6.c **** 
 145:Generated_Source\PSoC5/ShiftReg_6.c **** /*******************************************************************************
 146:Generated_Source\PSoC5/ShiftReg_6.c **** * Function Name: ShiftReg_6_DisableInt
 147:Generated_Source\PSoC5/ShiftReg_6.c **** ********************************************************************************
 148:Generated_Source\PSoC5/ShiftReg_6.c **** *
 149:Generated_Source\PSoC5/ShiftReg_6.c **** * Summary:
 150:Generated_Source\PSoC5/ShiftReg_6.c **** *  Disables the Shift Register interrupt.
 151:Generated_Source\PSoC5/ShiftReg_6.c **** *
 152:Generated_Source\PSoC5/ShiftReg_6.c **** * Parameters:
 153:Generated_Source\PSoC5/ShiftReg_6.c **** *  None.
 154:Generated_Source\PSoC5/ShiftReg_6.c **** *
 155:Generated_Source\PSoC5/ShiftReg_6.c **** * Return:
 156:Generated_Source\PSoC5/ShiftReg_6.c **** *  None.
 157:Generated_Source\PSoC5/ShiftReg_6.c **** *
 158:Generated_Source\PSoC5/ShiftReg_6.c **** *******************************************************************************/
 159:Generated_Source\PSoC5/ShiftReg_6.c **** void ShiftReg_6_DisableInt(void) 
 160:Generated_Source\PSoC5/ShiftReg_6.c **** {
  95              		.loc 1 160 0
  96              		.cfi_startproc
  97              		@ args = 0, pretend = 0, frame = 0
  98              		@ frame_needed = 0, uses_anonymous_args = 0
  99 0000 08B5     		push	{r3, lr}
 100              		.cfi_def_cfa_offset 8
 101              		.cfi_offset 3, -8
 102              		.cfi_offset 14, -4
 161:Generated_Source\PSoC5/ShiftReg_6.c ****     uint8 interruptState;
 162:Generated_Source\PSoC5/ShiftReg_6.c **** 
 163:Generated_Source\PSoC5/ShiftReg_6.c ****     interruptState = CyEnterCriticalSection();
 103              		.loc 1 163 0
 104 0002 FFF7FEFF 		bl	CyEnterCriticalSection
 105              	.LVL3:
 164:Generated_Source\PSoC5/ShiftReg_6.c ****     ShiftReg_6_SR_AUX_CONTROL &= ((uint8) ~ShiftReg_6_INTERRUPTS_ENABLE);
 106              		.loc 1 164 0
 107 0006 044A     		ldr	r2, .L11
 108 0008 1378     		ldrb	r3, [r2]	@ zero_extendqisi2
 109 000a 03F0EF03 		and	r3, r3, #239
 110 000e 1370     		strb	r3, [r2]
 165:Generated_Source\PSoC5/ShiftReg_6.c ****     CyExitCriticalSection(interruptState);
 111              		.loc 1 165 0
 112 0010 FFF7FEFF 		bl	CyExitCriticalSection
 113              	.LVL4:
 114 0014 08BD     		pop	{r3, pc}
 115              	.L12:
 116 0016 00BF     		.align	2
 117              	.L11:
ARM GAS  C:\Users\user\AppData\Local\Temp\cc4CXToh.s 			page 6


 118 0018 96640040 		.word	1073767574
 119              		.cfi_endproc
 120              	.LFE5:
 121              		.size	ShiftReg_6_DisableInt, .-ShiftReg_6_DisableInt
 122              		.section	.text.ShiftReg_6_Stop,"ax",%progbits
 123              		.align	2
 124              		.global	ShiftReg_6_Stop
 125              		.thumb
 126              		.thumb_func
 127              		.type	ShiftReg_6_Stop, %function
 128              	ShiftReg_6_Stop:
 129              	.LFB3:
 114:Generated_Source\PSoC5/ShiftReg_6.c ****     /*changing Datapath Control Store address to NOP space*/
 130              		.loc 1 114 0
 131              		.cfi_startproc
 132              		@ args = 0, pretend = 0, frame = 0
 133              		@ frame_needed = 0, uses_anonymous_args = 0
 134 0000 08B5     		push	{r3, lr}
 135              		.cfi_def_cfa_offset 8
 136              		.cfi_offset 3, -8
 137              		.cfi_offset 14, -4
 116:Generated_Source\PSoC5/ShiftReg_6.c ****     ShiftReg_6_DisableInt();
 138              		.loc 1 116 0
 139 0002 044A     		ldr	r2, .L15
 140 0004 1378     		ldrb	r3, [r2]	@ zero_extendqisi2
 141 0006 03F0FE03 		and	r3, r3, #254
 142 000a 1370     		strb	r3, [r2]
 117:Generated_Source\PSoC5/ShiftReg_6.c **** }
 143              		.loc 1 117 0
 144 000c FFF7FEFF 		bl	ShiftReg_6_DisableInt
 145              	.LVL5:
 146 0010 08BD     		pop	{r3, pc}
 147              	.L16:
 148 0012 00BF     		.align	2
 149              	.L15:
 150 0014 75640040 		.word	1073767541
 151              		.cfi_endproc
 152              	.LFE3:
 153              		.size	ShiftReg_6_Stop, .-ShiftReg_6_Stop
 154              		.section	.text.ShiftReg_6_GetFIFOStatus,"ax",%progbits
 155              		.align	2
 156              		.global	ShiftReg_6_GetFIFOStatus
 157              		.thumb
 158              		.thumb_func
 159              		.type	ShiftReg_6_GetFIFOStatus, %function
 160              	ShiftReg_6_GetFIFOStatus:
 161              	.LFB6:
 166:Generated_Source\PSoC5/ShiftReg_6.c **** }
 167:Generated_Source\PSoC5/ShiftReg_6.c **** 
 168:Generated_Source\PSoC5/ShiftReg_6.c **** 
 169:Generated_Source\PSoC5/ShiftReg_6.c **** /*******************************************************************************
 170:Generated_Source\PSoC5/ShiftReg_6.c **** * Function Name: ShiftReg_6_GetFIFOStatus
 171:Generated_Source\PSoC5/ShiftReg_6.c **** ********************************************************************************
 172:Generated_Source\PSoC5/ShiftReg_6.c **** *
 173:Generated_Source\PSoC5/ShiftReg_6.c **** * Summary:
 174:Generated_Source\PSoC5/ShiftReg_6.c **** *  Returns current status of input or output FIFO.
 175:Generated_Source\PSoC5/ShiftReg_6.c **** *
ARM GAS  C:\Users\user\AppData\Local\Temp\cc4CXToh.s 			page 7


 176:Generated_Source\PSoC5/ShiftReg_6.c **** * Parameters:
 177:Generated_Source\PSoC5/ShiftReg_6.c **** *  fifoId.
 178:Generated_Source\PSoC5/ShiftReg_6.c **** *
 179:Generated_Source\PSoC5/ShiftReg_6.c **** * Return:
 180:Generated_Source\PSoC5/ShiftReg_6.c **** *  FIFO status.
 181:Generated_Source\PSoC5/ShiftReg_6.c **** *
 182:Generated_Source\PSoC5/ShiftReg_6.c **** *******************************************************************************/
 183:Generated_Source\PSoC5/ShiftReg_6.c **** uint8 ShiftReg_6_GetFIFOStatus(uint8 fifoId) 
 184:Generated_Source\PSoC5/ShiftReg_6.c **** {
 162              		.loc 1 184 0
 163              		.cfi_startproc
 164              		@ args = 0, pretend = 0, frame = 0
 165              		@ frame_needed = 0, uses_anonymous_args = 0
 166              		@ link register save eliminated.
 167              	.LVL6:
 168 0000 0346     		mov	r3, r0
 169              	.LVL7:
 185:Generated_Source\PSoC5/ShiftReg_6.c ****     uint8 result;
 186:Generated_Source\PSoC5/ShiftReg_6.c **** 
 187:Generated_Source\PSoC5/ShiftReg_6.c ****     result = ShiftReg_6_RET_FIFO_NOT_DEFINED;
 188:Generated_Source\PSoC5/ShiftReg_6.c **** 
 189:Generated_Source\PSoC5/ShiftReg_6.c ****     #if(0u != ShiftReg_6_USE_INPUT_FIFO)
 190:Generated_Source\PSoC5/ShiftReg_6.c ****         if(ShiftReg_6_IN_FIFO == fifoId)
 170              		.loc 1 190 0
 171 0002 0128     		cmp	r0, #1
 172 0004 0BD1     		bne	.L24
 191:Generated_Source\PSoC5/ShiftReg_6.c ****         {
 192:Generated_Source\PSoC5/ShiftReg_6.c ****             switch(ShiftReg_6_GET_IN_FIFO_STS)
 173              		.loc 1 192 0
 174 0006 0F4A     		ldr	r2, .L28
 175 0008 1278     		ldrb	r2, [r2]	@ zero_extendqisi2
 176 000a C2F3C102 		ubfx	r2, r2, #3, #2
 177 000e 12B1     		cbz	r2, .L19
 178 0010 022A     		cmp	r2, #2
 179 0012 02D0     		beq	.L20
 180 0014 05E0     		b	.L27
 181              	.L19:
 193:Generated_Source\PSoC5/ShiftReg_6.c ****             {
 194:Generated_Source\PSoC5/ShiftReg_6.c ****                 case ShiftReg_6_IN_FIFO_FULL :
 195:Generated_Source\PSoC5/ShiftReg_6.c ****                     result = ShiftReg_6_RET_FIFO_FULL;
 182              		.loc 1 195 0
 183 0016 0020     		movs	r0, #0
 184              	.LVL8:
 185 0018 04E0     		b	.L18
 186              	.LVL9:
 187              	.L20:
 196:Generated_Source\PSoC5/ShiftReg_6.c ****                     break;
 197:Generated_Source\PSoC5/ShiftReg_6.c **** 
 198:Generated_Source\PSoC5/ShiftReg_6.c ****                 case ShiftReg_6_IN_FIFO_EMPTY :
 199:Generated_Source\PSoC5/ShiftReg_6.c ****                     result = ShiftReg_6_RET_FIFO_EMPTY;
 200:Generated_Source\PSoC5/ShiftReg_6.c ****                     break;
 201:Generated_Source\PSoC5/ShiftReg_6.c **** 
 202:Generated_Source\PSoC5/ShiftReg_6.c ****                 case ShiftReg_6_IN_FIFO_PARTIAL:
 203:Generated_Source\PSoC5/ShiftReg_6.c ****                     result = ShiftReg_6_RET_FIFO_PARTIAL;
 188              		.loc 1 203 0
 189 001a 0120     		movs	r0, #1
 190              	.LVL10:
ARM GAS  C:\Users\user\AppData\Local\Temp\cc4CXToh.s 			page 8


 204:Generated_Source\PSoC5/ShiftReg_6.c ****                     break;
 191              		.loc 1 204 0
 192 001c 02E0     		b	.L18
 193              	.LVL11:
 194              	.L24:
 187:Generated_Source\PSoC5/ShiftReg_6.c **** 
 195              		.loc 1 187 0
 196 001e FE20     		movs	r0, #254
 197              	.LVL12:
 198 0020 00E0     		b	.L18
 199              	.LVL13:
 200              	.L27:
 199:Generated_Source\PSoC5/ShiftReg_6.c ****                     break;
 201              		.loc 1 199 0
 202 0022 0220     		movs	r0, #2
 203              	.LVL14:
 204              	.L18:
 205:Generated_Source\PSoC5/ShiftReg_6.c ****                     
 206:Generated_Source\PSoC5/ShiftReg_6.c ****                 default:
 207:Generated_Source\PSoC5/ShiftReg_6.c ****                     /* Initial result value, while 
 208:Generated_Source\PSoC5/ShiftReg_6.c ****                        IN_FIFO_EMPTY case is false 
 209:Generated_Source\PSoC5/ShiftReg_6.c ****                      */
 210:Generated_Source\PSoC5/ShiftReg_6.c ****                     result = ShiftReg_6_RET_FIFO_EMPTY;
 211:Generated_Source\PSoC5/ShiftReg_6.c ****                     break;
 212:Generated_Source\PSoC5/ShiftReg_6.c ****             }   
 213:Generated_Source\PSoC5/ShiftReg_6.c ****         }
 214:Generated_Source\PSoC5/ShiftReg_6.c ****     #endif /* (0u != ShiftReg_6_USE_INPUT_FIFO) */
 215:Generated_Source\PSoC5/ShiftReg_6.c **** 
 216:Generated_Source\PSoC5/ShiftReg_6.c ****     if(ShiftReg_6_OUT_FIFO == fifoId)
 205              		.loc 1 216 0
 206 0024 022B     		cmp	r3, #2
 207 0026 0BD1     		bne	.L21
 217:Generated_Source\PSoC5/ShiftReg_6.c ****     {
 218:Generated_Source\PSoC5/ShiftReg_6.c ****         switch(ShiftReg_6_GET_OUT_FIFO_STS)
 208              		.loc 1 218 0
 209 0028 064B     		ldr	r3, .L28
 210 002a 1B78     		ldrb	r3, [r3]	@ zero_extendqisi2
 211 002c C3F34113 		ubfx	r3, r3, #5, #2
 212 0030 2BB1     		cbz	r3, .L26
 213 0032 022B     		cmp	r3, #2
 214 0034 01D0     		beq	.L23
 219:Generated_Source\PSoC5/ShiftReg_6.c ****         {
 220:Generated_Source\PSoC5/ShiftReg_6.c ****             case ShiftReg_6_OUT_FIFO_FULL :
 221:Generated_Source\PSoC5/ShiftReg_6.c ****                 result = ShiftReg_6_RET_FIFO_FULL;
 215              		.loc 1 221 0
 216 0036 0020     		movs	r0, #0
 217              	.LVL15:
 218 0038 7047     		bx	lr
 219              	.LVL16:
 220              	.L23:
 222:Generated_Source\PSoC5/ShiftReg_6.c ****                 break;
 223:Generated_Source\PSoC5/ShiftReg_6.c **** 
 224:Generated_Source\PSoC5/ShiftReg_6.c ****             case ShiftReg_6_OUT_FIFO_EMPTY :
 225:Generated_Source\PSoC5/ShiftReg_6.c ****                 result = ShiftReg_6_RET_FIFO_EMPTY;
 226:Generated_Source\PSoC5/ShiftReg_6.c ****                 break;
 227:Generated_Source\PSoC5/ShiftReg_6.c **** 
 228:Generated_Source\PSoC5/ShiftReg_6.c ****             case ShiftReg_6_OUT_FIFO_PARTIAL :
ARM GAS  C:\Users\user\AppData\Local\Temp\cc4CXToh.s 			page 9


 229:Generated_Source\PSoC5/ShiftReg_6.c ****                 result = ShiftReg_6_RET_FIFO_PARTIAL;
 221              		.loc 1 229 0
 222 003a 0120     		movs	r0, #1
 230:Generated_Source\PSoC5/ShiftReg_6.c ****                 break;
 223              		.loc 1 230 0
 224 003c 7047     		bx	lr
 225              	.LVL17:
 226              	.L26:
 225:Generated_Source\PSoC5/ShiftReg_6.c ****                 break;
 227              		.loc 1 225 0
 228 003e 0220     		movs	r0, #2
 229              	.LVL18:
 230              	.L21:
 231:Generated_Source\PSoC5/ShiftReg_6.c **** 
 232:Generated_Source\PSoC5/ShiftReg_6.c ****             default:
 233:Generated_Source\PSoC5/ShiftReg_6.c ****                 /* Initial result value, while 
 234:Generated_Source\PSoC5/ShiftReg_6.c ****                    OUT_FIFO_FULL case is false 
 235:Generated_Source\PSoC5/ShiftReg_6.c ****                  */
 236:Generated_Source\PSoC5/ShiftReg_6.c ****                 result = ShiftReg_6_RET_FIFO_FULL;
 237:Generated_Source\PSoC5/ShiftReg_6.c ****                 break;
 238:Generated_Source\PSoC5/ShiftReg_6.c ****         }
 239:Generated_Source\PSoC5/ShiftReg_6.c ****     }
 240:Generated_Source\PSoC5/ShiftReg_6.c **** 
 241:Generated_Source\PSoC5/ShiftReg_6.c ****     return(result);
 242:Generated_Source\PSoC5/ShiftReg_6.c **** }
 231              		.loc 1 242 0
 232 0040 7047     		bx	lr
 233              	.L29:
 234 0042 00BF     		.align	2
 235              	.L28:
 236 0044 66640040 		.word	1073767526
 237              		.cfi_endproc
 238              	.LFE6:
 239              		.size	ShiftReg_6_GetFIFOStatus, .-ShiftReg_6_GetFIFOStatus
 240              		.section	.text.ShiftReg_6_SetIntMode,"ax",%progbits
 241              		.align	2
 242              		.global	ShiftReg_6_SetIntMode
 243              		.thumb
 244              		.thumb_func
 245              		.type	ShiftReg_6_SetIntMode, %function
 246              	ShiftReg_6_SetIntMode:
 247              	.LFB7:
 243:Generated_Source\PSoC5/ShiftReg_6.c **** 
 244:Generated_Source\PSoC5/ShiftReg_6.c **** 
 245:Generated_Source\PSoC5/ShiftReg_6.c **** /*******************************************************************************
 246:Generated_Source\PSoC5/ShiftReg_6.c **** * Function Name: ShiftReg_6_SetIntMode
 247:Generated_Source\PSoC5/ShiftReg_6.c **** ********************************************************************************
 248:Generated_Source\PSoC5/ShiftReg_6.c **** *
 249:Generated_Source\PSoC5/ShiftReg_6.c **** * Summary:
 250:Generated_Source\PSoC5/ShiftReg_6.c **** *  Sets the Interrupt Source for the Shift Register interrupt. Multiple
 251:Generated_Source\PSoC5/ShiftReg_6.c **** *  sources may be ORed together
 252:Generated_Source\PSoC5/ShiftReg_6.c **** *
 253:Generated_Source\PSoC5/ShiftReg_6.c **** * Parameters:
 254:Generated_Source\PSoC5/ShiftReg_6.c **** *  interruptSource: Byte containing the constant for the selected interrupt
 255:Generated_Source\PSoC5/ShiftReg_6.c **** *  source/s.
 256:Generated_Source\PSoC5/ShiftReg_6.c **** *
 257:Generated_Source\PSoC5/ShiftReg_6.c **** * Return:
ARM GAS  C:\Users\user\AppData\Local\Temp\cc4CXToh.s 			page 10


 258:Generated_Source\PSoC5/ShiftReg_6.c **** *  None.
 259:Generated_Source\PSoC5/ShiftReg_6.c **** *
 260:Generated_Source\PSoC5/ShiftReg_6.c **** *******************************************************************************/
 261:Generated_Source\PSoC5/ShiftReg_6.c **** void ShiftReg_6_SetIntMode(uint8 interruptSource) 
 262:Generated_Source\PSoC5/ShiftReg_6.c **** {
 248              		.loc 1 262 0
 249              		.cfi_startproc
 250              		@ args = 0, pretend = 0, frame = 0
 251              		@ frame_needed = 0, uses_anonymous_args = 0
 252              		@ link register save eliminated.
 253              	.LVL19:
 263:Generated_Source\PSoC5/ShiftReg_6.c ****     ShiftReg_6_SR_STATUS_MASK &= ((uint8) ~ShiftReg_6_INTS_EN_MASK);          /* Clear existing int
 254              		.loc 1 263 0
 255 0000 054B     		ldr	r3, .L31
 256 0002 1A78     		ldrb	r2, [r3]	@ zero_extendqisi2
 257 0004 02F0F802 		and	r2, r2, #248
 258 0008 1A70     		strb	r2, [r3]
 264:Generated_Source\PSoC5/ShiftReg_6.c ****     ShiftReg_6_SR_STATUS_MASK |= (interruptSource & ShiftReg_6_INTS_EN_MASK); /* Set int */
 259              		.loc 1 264 0
 260 000a 1A78     		ldrb	r2, [r3]	@ zero_extendqisi2
 261 000c 00F00700 		and	r0, r0, #7
 262              	.LVL20:
 263 0010 1043     		orrs	r0, r0, r2
 264 0012 1870     		strb	r0, [r3]
 265 0014 7047     		bx	lr
 266              	.L32:
 267 0016 00BF     		.align	2
 268              	.L31:
 269 0018 86640040 		.word	1073767558
 270              		.cfi_endproc
 271              	.LFE7:
 272              		.size	ShiftReg_6_SetIntMode, .-ShiftReg_6_SetIntMode
 273              		.section	.text.ShiftReg_6_Init,"ax",%progbits
 274              		.align	2
 275              		.global	ShiftReg_6_Init
 276              		.thumb
 277              		.thumb_func
 278              		.type	ShiftReg_6_Init, %function
 279              	ShiftReg_6_Init:
 280              	.LFB2:
  94:Generated_Source\PSoC5/ShiftReg_6.c ****     ShiftReg_6_SetIntMode(ShiftReg_6_INT_SRC);
 281              		.loc 1 94 0
 282              		.cfi_startproc
 283              		@ args = 0, pretend = 0, frame = 0
 284              		@ frame_needed = 0, uses_anonymous_args = 0
 285 0000 08B5     		push	{r3, lr}
 286              		.cfi_def_cfa_offset 8
 287              		.cfi_offset 3, -8
 288              		.cfi_offset 14, -4
  95:Generated_Source\PSoC5/ShiftReg_6.c **** }
 289              		.loc 1 95 0
 290 0002 0120     		movs	r0, #1
 291 0004 FFF7FEFF 		bl	ShiftReg_6_SetIntMode
 292              	.LVL21:
 293 0008 08BD     		pop	{r3, pc}
 294              		.cfi_endproc
 295              	.LFE2:
ARM GAS  C:\Users\user\AppData\Local\Temp\cc4CXToh.s 			page 11


 296              		.size	ShiftReg_6_Init, .-ShiftReg_6_Init
 297 000a 00BF     		.section	.text.ShiftReg_6_Start,"ax",%progbits
 298              		.align	2
 299              		.global	ShiftReg_6_Start
 300              		.thumb
 301              		.thumb_func
 302              		.type	ShiftReg_6_Start, %function
 303              	ShiftReg_6_Start:
 304              	.LFB0:
  44:Generated_Source\PSoC5/ShiftReg_6.c ****     if(0u == ShiftReg_6_initVar)
 305              		.loc 1 44 0
 306              		.cfi_startproc
 307              		@ args = 0, pretend = 0, frame = 0
 308              		@ frame_needed = 0, uses_anonymous_args = 0
 309 0000 08B5     		push	{r3, lr}
 310              		.cfi_def_cfa_offset 8
 311              		.cfi_offset 3, -8
 312              		.cfi_offset 14, -4
  45:Generated_Source\PSoC5/ShiftReg_6.c ****     {
 313              		.loc 1 45 0
 314 0002 054B     		ldr	r3, .L38
 315 0004 1B78     		ldrb	r3, [r3]	@ zero_extendqisi2
 316 0006 23B9     		cbnz	r3, .L36
  47:Generated_Source\PSoC5/ShiftReg_6.c ****         ShiftReg_6_initVar = 1u; /* Component initialized */
 317              		.loc 1 47 0
 318 0008 FFF7FEFF 		bl	ShiftReg_6_Init
 319              	.LVL22:
  48:Generated_Source\PSoC5/ShiftReg_6.c ****     }
 320              		.loc 1 48 0
 321 000c 0122     		movs	r2, #1
 322 000e 024B     		ldr	r3, .L38
 323 0010 1A70     		strb	r2, [r3]
 324              	.L36:
  51:Generated_Source\PSoC5/ShiftReg_6.c **** }
 325              		.loc 1 51 0
 326 0012 FFF7FEFF 		bl	ShiftReg_6_Enable
 327              	.LVL23:
 328 0016 08BD     		pop	{r3, pc}
 329              	.L39:
 330              		.align	2
 331              	.L38:
 332 0018 00000000 		.word	.LANCHOR0
 333              		.cfi_endproc
 334              	.LFE0:
 335              		.size	ShiftReg_6_Start, .-ShiftReg_6_Start
 336              		.section	.text.ShiftReg_6_GetIntStatus,"ax",%progbits
 337              		.align	2
 338              		.global	ShiftReg_6_GetIntStatus
 339              		.thumb
 340              		.thumb_func
 341              		.type	ShiftReg_6_GetIntStatus, %function
 342              	ShiftReg_6_GetIntStatus:
 343              	.LFB8:
 265:Generated_Source\PSoC5/ShiftReg_6.c **** }
 266:Generated_Source\PSoC5/ShiftReg_6.c **** 
 267:Generated_Source\PSoC5/ShiftReg_6.c **** 
 268:Generated_Source\PSoC5/ShiftReg_6.c **** /*******************************************************************************
ARM GAS  C:\Users\user\AppData\Local\Temp\cc4CXToh.s 			page 12


 269:Generated_Source\PSoC5/ShiftReg_6.c **** * Function Name: ShiftReg_6_GetIntStatus
 270:Generated_Source\PSoC5/ShiftReg_6.c **** ********************************************************************************
 271:Generated_Source\PSoC5/ShiftReg_6.c **** *
 272:Generated_Source\PSoC5/ShiftReg_6.c **** * Summary:
 273:Generated_Source\PSoC5/ShiftReg_6.c **** *  Gets the Shift Register Interrupt status.
 274:Generated_Source\PSoC5/ShiftReg_6.c **** *
 275:Generated_Source\PSoC5/ShiftReg_6.c **** * Parameters:
 276:Generated_Source\PSoC5/ShiftReg_6.c **** *  None.
 277:Generated_Source\PSoC5/ShiftReg_6.c **** *
 278:Generated_Source\PSoC5/ShiftReg_6.c **** * Return:
 279:Generated_Source\PSoC5/ShiftReg_6.c **** *  Byte containing the constant for the selected interrupt source/s.
 280:Generated_Source\PSoC5/ShiftReg_6.c **** *
 281:Generated_Source\PSoC5/ShiftReg_6.c **** *******************************************************************************/
 282:Generated_Source\PSoC5/ShiftReg_6.c **** uint8 ShiftReg_6_GetIntStatus(void) 
 283:Generated_Source\PSoC5/ShiftReg_6.c **** {
 344              		.loc 1 283 0
 345              		.cfi_startproc
 346              		@ args = 0, pretend = 0, frame = 0
 347              		@ frame_needed = 0, uses_anonymous_args = 0
 348              		@ link register save eliminated.
 284:Generated_Source\PSoC5/ShiftReg_6.c ****     return(ShiftReg_6_SR_STATUS & ShiftReg_6_INTS_EN_MASK);
 349              		.loc 1 284 0
 350 0000 024B     		ldr	r3, .L41
 351 0002 1878     		ldrb	r0, [r3]	@ zero_extendqisi2
 285:Generated_Source\PSoC5/ShiftReg_6.c **** }
 352              		.loc 1 285 0
 353 0004 00F00700 		and	r0, r0, #7
 354 0008 7047     		bx	lr
 355              	.L42:
 356 000a 00BF     		.align	2
 357              	.L41:
 358 000c 66640040 		.word	1073767526
 359              		.cfi_endproc
 360              	.LFE8:
 361              		.size	ShiftReg_6_GetIntStatus, .-ShiftReg_6_GetIntStatus
 362              		.section	.text.ShiftReg_6_WriteRegValue,"ax",%progbits
 363              		.align	2
 364              		.global	ShiftReg_6_WriteRegValue
 365              		.thumb
 366              		.thumb_func
 367              		.type	ShiftReg_6_WriteRegValue, %function
 368              	ShiftReg_6_WriteRegValue:
 369              	.LFB9:
 286:Generated_Source\PSoC5/ShiftReg_6.c **** 
 287:Generated_Source\PSoC5/ShiftReg_6.c **** 
 288:Generated_Source\PSoC5/ShiftReg_6.c **** /*******************************************************************************
 289:Generated_Source\PSoC5/ShiftReg_6.c **** * Function Name: ShiftReg_6_WriteRegValue
 290:Generated_Source\PSoC5/ShiftReg_6.c **** ********************************************************************************
 291:Generated_Source\PSoC5/ShiftReg_6.c **** *
 292:Generated_Source\PSoC5/ShiftReg_6.c **** * Summary:
 293:Generated_Source\PSoC5/ShiftReg_6.c **** *  Send state directly to shift register
 294:Generated_Source\PSoC5/ShiftReg_6.c **** *
 295:Generated_Source\PSoC5/ShiftReg_6.c **** * Parameters:
 296:Generated_Source\PSoC5/ShiftReg_6.c **** *  shiftData: containing shift register state.
 297:Generated_Source\PSoC5/ShiftReg_6.c **** *
 298:Generated_Source\PSoC5/ShiftReg_6.c **** * Return:
 299:Generated_Source\PSoC5/ShiftReg_6.c **** *  None.
ARM GAS  C:\Users\user\AppData\Local\Temp\cc4CXToh.s 			page 13


 300:Generated_Source\PSoC5/ShiftReg_6.c **** *
 301:Generated_Source\PSoC5/ShiftReg_6.c **** *******************************************************************************/
 302:Generated_Source\PSoC5/ShiftReg_6.c **** void ShiftReg_6_WriteRegValue(uint32 shiftData)
 303:Generated_Source\PSoC5/ShiftReg_6.c ****                                                                      
 304:Generated_Source\PSoC5/ShiftReg_6.c **** {
 370              		.loc 1 304 0
 371              		.cfi_startproc
 372              		@ args = 0, pretend = 0, frame = 0
 373              		@ frame_needed = 0, uses_anonymous_args = 0
 374              	.LVL24:
 375 0000 08B5     		push	{r3, lr}
 376              		.cfi_def_cfa_offset 8
 377              		.cfi_offset 3, -8
 378              		.cfi_offset 14, -4
 305:Generated_Source\PSoC5/ShiftReg_6.c ****     CY_SET_REG24(ShiftReg_6_SHIFT_REG_LSB_PTR, shiftData);
 379              		.loc 1 305 0
 380 0002 0146     		mov	r1, r0
 381 0004 0148     		ldr	r0, .L45
 382              	.LVL25:
 383 0006 FFF7FEFF 		bl	CySetReg24
 384              	.LVL26:
 385 000a 08BD     		pop	{r3, pc}
 386              	.L46:
 387              		.align	2
 388              	.L45:
 389 000c 04640040 		.word	1073767428
 390              		.cfi_endproc
 391              	.LFE9:
 392              		.size	ShiftReg_6_WriteRegValue, .-ShiftReg_6_WriteRegValue
 393              		.section	.text.ShiftReg_6_WriteData,"ax",%progbits
 394              		.align	2
 395              		.global	ShiftReg_6_WriteData
 396              		.thumb
 397              		.thumb_func
 398              		.type	ShiftReg_6_WriteData, %function
 399              	ShiftReg_6_WriteData:
 400              	.LFB10:
 306:Generated_Source\PSoC5/ShiftReg_6.c **** }
 307:Generated_Source\PSoC5/ShiftReg_6.c **** 
 308:Generated_Source\PSoC5/ShiftReg_6.c **** 
 309:Generated_Source\PSoC5/ShiftReg_6.c **** #if(0u != ShiftReg_6_USE_INPUT_FIFO)
 310:Generated_Source\PSoC5/ShiftReg_6.c ****     /*******************************************************************************
 311:Generated_Source\PSoC5/ShiftReg_6.c ****     * Function Name: ShiftReg_6_WriteData
 312:Generated_Source\PSoC5/ShiftReg_6.c ****     ********************************************************************************
 313:Generated_Source\PSoC5/ShiftReg_6.c ****     *
 314:Generated_Source\PSoC5/ShiftReg_6.c ****     * Summary:
 315:Generated_Source\PSoC5/ShiftReg_6.c ****     *  Send state to FIFO for later transfer to shift register based on the Load
 316:Generated_Source\PSoC5/ShiftReg_6.c ****     *  input
 317:Generated_Source\PSoC5/ShiftReg_6.c ****     *
 318:Generated_Source\PSoC5/ShiftReg_6.c ****     * Parameters:
 319:Generated_Source\PSoC5/ShiftReg_6.c ****     *  shiftData: containing shift register state.
 320:Generated_Source\PSoC5/ShiftReg_6.c ****     *
 321:Generated_Source\PSoC5/ShiftReg_6.c ****     * Return:
 322:Generated_Source\PSoC5/ShiftReg_6.c ****     *  Indicates: successful execution of function
 323:Generated_Source\PSoC5/ShiftReg_6.c ****     *  when FIFO is empty; and error when FIFO is full.
 324:Generated_Source\PSoC5/ShiftReg_6.c ****     *
 325:Generated_Source\PSoC5/ShiftReg_6.c ****     * Reentrant:
ARM GAS  C:\Users\user\AppData\Local\Temp\cc4CXToh.s 			page 14


 326:Generated_Source\PSoC5/ShiftReg_6.c ****     *  No.
 327:Generated_Source\PSoC5/ShiftReg_6.c ****     *
 328:Generated_Source\PSoC5/ShiftReg_6.c ****     *******************************************************************************/
 329:Generated_Source\PSoC5/ShiftReg_6.c ****     cystatus ShiftReg_6_WriteData(uint32 shiftData)
 330:Generated_Source\PSoC5/ShiftReg_6.c ****                                                                          
 331:Generated_Source\PSoC5/ShiftReg_6.c ****     {
 401              		.loc 1 331 0
 402              		.cfi_startproc
 403              		@ args = 0, pretend = 0, frame = 0
 404              		@ frame_needed = 0, uses_anonymous_args = 0
 405              	.LVL27:
 406 0000 10B5     		push	{r4, lr}
 407              		.cfi_def_cfa_offset 8
 408              		.cfi_offset 4, -8
 409              		.cfi_offset 14, -4
 410 0002 0446     		mov	r4, r0
 411              	.LVL28:
 332:Generated_Source\PSoC5/ShiftReg_6.c ****         cystatus result;
 333:Generated_Source\PSoC5/ShiftReg_6.c **** 
 334:Generated_Source\PSoC5/ShiftReg_6.c ****         result = CYRET_INVALID_STATE;
 335:Generated_Source\PSoC5/ShiftReg_6.c **** 
 336:Generated_Source\PSoC5/ShiftReg_6.c ****         /* Writes data into the input FIFO if it is not FULL */
 337:Generated_Source\PSoC5/ShiftReg_6.c ****         if(ShiftReg_6_RET_FIFO_FULL != (ShiftReg_6_GetFIFOStatus(ShiftReg_6_IN_FIFO)))
 412              		.loc 1 337 0
 413 0004 0120     		movs	r0, #1
 414              	.LVL29:
 415 0006 FFF7FEFF 		bl	ShiftReg_6_GetFIFOStatus
 416              	.LVL30:
 417 000a 28B1     		cbz	r0, .L49
 338:Generated_Source\PSoC5/ShiftReg_6.c ****         {
 339:Generated_Source\PSoC5/ShiftReg_6.c ****             CY_SET_REG24(ShiftReg_6_IN_FIFO_VAL_LSB_PTR, shiftData);
 418              		.loc 1 339 0
 419 000c 2146     		mov	r1, r4
 420 000e 0348     		ldr	r0, .L51
 421 0010 FFF7FEFF 		bl	CySetReg24
 422              	.LVL31:
 340:Generated_Source\PSoC5/ShiftReg_6.c ****             result = CYRET_SUCCESS;
 423              		.loc 1 340 0
 424 0014 0020     		movs	r0, #0
 425 0016 10BD     		pop	{r4, pc}
 426              	.LVL32:
 427              	.L49:
 334:Generated_Source\PSoC5/ShiftReg_6.c **** 
 428              		.loc 1 334 0
 429 0018 1120     		movs	r0, #17
 430              	.LVL33:
 341:Generated_Source\PSoC5/ShiftReg_6.c ****         }
 342:Generated_Source\PSoC5/ShiftReg_6.c **** 
 343:Generated_Source\PSoC5/ShiftReg_6.c ****         return(result);
 344:Generated_Source\PSoC5/ShiftReg_6.c ****     }
 431              		.loc 1 344 0
 432 001a 10BD     		pop	{r4, pc}
 433              	.LVL34:
 434              	.L52:
 435              		.align	2
 436              	.L51:
 437 001c 44640040 		.word	1073767492
ARM GAS  C:\Users\user\AppData\Local\Temp\cc4CXToh.s 			page 15


 438              		.cfi_endproc
 439              	.LFE10:
 440              		.size	ShiftReg_6_WriteData, .-ShiftReg_6_WriteData
 441              		.section	.text.ShiftReg_6_ReadRegValue,"ax",%progbits
 442              		.align	2
 443              		.global	ShiftReg_6_ReadRegValue
 444              		.thumb
 445              		.thumb_func
 446              		.type	ShiftReg_6_ReadRegValue, %function
 447              	ShiftReg_6_ReadRegValue:
 448              	.LFB11:
 345:Generated_Source\PSoC5/ShiftReg_6.c **** #endif /* (0u != ShiftReg_6_USE_INPUT_FIFO) */
 346:Generated_Source\PSoC5/ShiftReg_6.c **** 
 347:Generated_Source\PSoC5/ShiftReg_6.c **** 
 348:Generated_Source\PSoC5/ShiftReg_6.c **** #if(0u != ShiftReg_6_USE_OUTPUT_FIFO)
 349:Generated_Source\PSoC5/ShiftReg_6.c ****     /*******************************************************************************
 350:Generated_Source\PSoC5/ShiftReg_6.c ****     * Function Name: ShiftReg_6_ReadData
 351:Generated_Source\PSoC5/ShiftReg_6.c ****     ********************************************************************************
 352:Generated_Source\PSoC5/ShiftReg_6.c ****     *
 353:Generated_Source\PSoC5/ShiftReg_6.c ****     * Summary:
 354:Generated_Source\PSoC5/ShiftReg_6.c ****     *  Returns state in FIFO due to Store input.
 355:Generated_Source\PSoC5/ShiftReg_6.c ****     *
 356:Generated_Source\PSoC5/ShiftReg_6.c ****     * Parameters:
 357:Generated_Source\PSoC5/ShiftReg_6.c ****     *  None.
 358:Generated_Source\PSoC5/ShiftReg_6.c ****     *
 359:Generated_Source\PSoC5/ShiftReg_6.c ****     * Return:
 360:Generated_Source\PSoC5/ShiftReg_6.c ****     *  Shift Register state
 361:Generated_Source\PSoC5/ShiftReg_6.c ****     *
 362:Generated_Source\PSoC5/ShiftReg_6.c ****     * Reentrant:
 363:Generated_Source\PSoC5/ShiftReg_6.c ****     *  No.
 364:Generated_Source\PSoC5/ShiftReg_6.c ****     *
 365:Generated_Source\PSoC5/ShiftReg_6.c ****     *******************************************************************************/
 366:Generated_Source\PSoC5/ShiftReg_6.c ****     uint32 ShiftReg_6_ReadData(void) 
 367:Generated_Source\PSoC5/ShiftReg_6.c ****     {
 368:Generated_Source\PSoC5/ShiftReg_6.c ****         return(CY_GET_REG24(ShiftReg_6_OUT_FIFO_VAL_LSB_PTR));
 369:Generated_Source\PSoC5/ShiftReg_6.c ****     }
 370:Generated_Source\PSoC5/ShiftReg_6.c **** #endif /* (0u != ShiftReg_6_USE_OUTPUT_FIFO) */
 371:Generated_Source\PSoC5/ShiftReg_6.c **** 
 372:Generated_Source\PSoC5/ShiftReg_6.c **** 
 373:Generated_Source\PSoC5/ShiftReg_6.c **** /*******************************************************************************
 374:Generated_Source\PSoC5/ShiftReg_6.c **** * Function Name: ShiftReg_6_ReadRegValue
 375:Generated_Source\PSoC5/ShiftReg_6.c **** ********************************************************************************
 376:Generated_Source\PSoC5/ShiftReg_6.c **** *
 377:Generated_Source\PSoC5/ShiftReg_6.c **** * Summary:
 378:Generated_Source\PSoC5/ShiftReg_6.c **** *  Directly returns current state in shift register, not data in FIFO due
 379:Generated_Source\PSoC5/ShiftReg_6.c **** *  to Store input.
 380:Generated_Source\PSoC5/ShiftReg_6.c **** *
 381:Generated_Source\PSoC5/ShiftReg_6.c **** * Parameters:
 382:Generated_Source\PSoC5/ShiftReg_6.c **** *  None.
 383:Generated_Source\PSoC5/ShiftReg_6.c **** *
 384:Generated_Source\PSoC5/ShiftReg_6.c **** * Return:
 385:Generated_Source\PSoC5/ShiftReg_6.c **** *  Shift Register state. Clears output FIFO.
 386:Generated_Source\PSoC5/ShiftReg_6.c **** *
 387:Generated_Source\PSoC5/ShiftReg_6.c **** * Reentrant:
 388:Generated_Source\PSoC5/ShiftReg_6.c **** *  No.
 389:Generated_Source\PSoC5/ShiftReg_6.c **** *
 390:Generated_Source\PSoC5/ShiftReg_6.c **** *******************************************************************************/
ARM GAS  C:\Users\user\AppData\Local\Temp\cc4CXToh.s 			page 16


 391:Generated_Source\PSoC5/ShiftReg_6.c **** uint32 ShiftReg_6_ReadRegValue(void) 
 392:Generated_Source\PSoC5/ShiftReg_6.c **** {
 449              		.loc 1 392 0
 450              		.cfi_startproc
 451              		@ args = 0, pretend = 0, frame = 0
 452              		@ frame_needed = 0, uses_anonymous_args = 0
 453 0000 08B5     		push	{r3, lr}
 454              		.cfi_def_cfa_offset 8
 455              		.cfi_offset 3, -8
 456              		.cfi_offset 14, -4
 393:Generated_Source\PSoC5/ShiftReg_6.c ****     uint32 result;
 394:Generated_Source\PSoC5/ShiftReg_6.c **** 
 395:Generated_Source\PSoC5/ShiftReg_6.c ****     /* Clear FIFO before software capture */
 396:Generated_Source\PSoC5/ShiftReg_6.c ****     while(ShiftReg_6_RET_FIFO_EMPTY != ShiftReg_6_GetFIFOStatus(ShiftReg_6_OUT_FIFO))
 457              		.loc 1 396 0
 458 0002 01E0     		b	.L54
 459              	.L55:
 397:Generated_Source\PSoC5/ShiftReg_6.c ****     {
 398:Generated_Source\PSoC5/ShiftReg_6.c ****         (void) CY_GET_REG24(ShiftReg_6_OUT_FIFO_VAL_LSB_PTR);
 460              		.loc 1 398 0
 461 0004 064B     		ldr	r3, .L57
 462 0006 1B68     		ldr	r3, [r3]
 463              	.L54:
 396:Generated_Source\PSoC5/ShiftReg_6.c ****     {
 464              		.loc 1 396 0
 465 0008 0220     		movs	r0, #2
 466 000a FFF7FEFF 		bl	ShiftReg_6_GetFIFOStatus
 467              	.LVL35:
 468 000e 0228     		cmp	r0, #2
 469 0010 F8D1     		bne	.L55
 399:Generated_Source\PSoC5/ShiftReg_6.c ****     }
 400:Generated_Source\PSoC5/ShiftReg_6.c **** 
 401:Generated_Source\PSoC5/ShiftReg_6.c ****     /* Read of 8 bits from A1 causes capture to output FIFO */
 402:Generated_Source\PSoC5/ShiftReg_6.c ****     (void) CY_GET_REG8(ShiftReg_6_SHIFT_REG_CAPTURE_PTR);
 470              		.loc 1 402 0
 471 0012 044B     		ldr	r3, .L57+4
 472 0014 1B78     		ldrb	r3, [r3]	@ zero_extendqisi2
 403:Generated_Source\PSoC5/ShiftReg_6.c **** 
 404:Generated_Source\PSoC5/ShiftReg_6.c ****     /* Read output FIFO */
 405:Generated_Source\PSoC5/ShiftReg_6.c ****     result  = CY_GET_REG24(ShiftReg_6_OUT_FIFO_VAL_LSB_PTR);
 473              		.loc 1 405 0
 474 0016 024B     		ldr	r3, .L57
 475 0018 1868     		ldr	r0, [r3]
 476              	.LVL36:
 406:Generated_Source\PSoC5/ShiftReg_6.c ****     
 407:Generated_Source\PSoC5/ShiftReg_6.c ****     #if(0u != (ShiftReg_6_SR_SIZE % 8u))
 408:Generated_Source\PSoC5/ShiftReg_6.c ****         result &= ((uint32) ShiftReg_6_SR_MASK);
 409:Generated_Source\PSoC5/ShiftReg_6.c ****     #endif /* (0u != (ShiftReg_6_SR_SIZE % 8u)) */
 410:Generated_Source\PSoC5/ShiftReg_6.c ****     
 411:Generated_Source\PSoC5/ShiftReg_6.c ****     return(result);
 412:Generated_Source\PSoC5/ShiftReg_6.c **** }
 477              		.loc 1 412 0
 478 001a 20F07F40 		bic	r0, r0, #-16777216
 479              	.LVL37:
 480 001e 08BD     		pop	{r3, pc}
 481              	.L58:
 482              		.align	2
ARM GAS  C:\Users\user\AppData\Local\Temp\cc4CXToh.s 			page 17


 483              	.L57:
 484 0020 54640040 		.word	1073767508
 485 0024 14640040 		.word	1073767444
 486              		.cfi_endproc
 487              	.LFE11:
 488              		.size	ShiftReg_6_ReadRegValue, .-ShiftReg_6_ReadRegValue
 489              		.global	ShiftReg_6_initVar
 490              		.bss
 491              		.set	.LANCHOR0,. + 0
 492              		.type	ShiftReg_6_initVar, %object
 493              		.size	ShiftReg_6_initVar, 1
 494              	ShiftReg_6_initVar:
 495 0000 00       		.space	1
 496              		.text
 497              	.Letext0:
 498              		.file 2 "Generated_Source\\PSoC5\\cytypes.h"
 499              		.file 3 "Generated_Source\\PSoC5\\CyLib.h"