ARM GAS  C:\Users\user\AppData\Local\Temp\ccrAKOU9.s 			page 1


   1              		.syntax unified
   2              		.cpu cortex-m3
   3              		.fpu softvfp
   4              		.eabi_attribute 20, 1
   5              		.eabi_attribute 21, 1
   6              		.eabi_attribute 23, 3
   7              		.eabi_attribute 24, 1
   8              		.eabi_attribute 25, 1
   9              		.eabi_attribute 26, 1
  10              		.eabi_attribute 30, 1
  11              		.eabi_attribute 34, 1
  12              		.eabi_attribute 18, 4
  13              		.thumb
  14              		.syntax unified
  15              		.file	"ShiftReg_7_PM.c"
  16              		.text
  17              	.Ltext0:
  18              		.cfi_sections	.debug_frame
  19              		.section	.text.ShiftReg_7_SaveConfig,"ax",%progbits
  20              		.align	2
  21              		.global	ShiftReg_7_SaveConfig
  22              		.thumb
  23              		.thumb_func
  24              		.type	ShiftReg_7_SaveConfig, %function
  25              	ShiftReg_7_SaveConfig:
  26              	.LFB0:
  27              		.file 1 "Generated_Source\\PSoC5\\ShiftReg_7_PM.c"
   1:Generated_Source\PSoC5/ShiftReg_7_PM.c **** /*******************************************************************************
   2:Generated_Source\PSoC5/ShiftReg_7_PM.c **** * File Name: ShiftReg_7_PM.c
   3:Generated_Source\PSoC5/ShiftReg_7_PM.c **** * Version 2.30
   4:Generated_Source\PSoC5/ShiftReg_7_PM.c **** *
   5:Generated_Source\PSoC5/ShiftReg_7_PM.c **** * Description:
   6:Generated_Source\PSoC5/ShiftReg_7_PM.c **** *  This file provides the API source code for sleep mode support for Shift
   7:Generated_Source\PSoC5/ShiftReg_7_PM.c **** *  Register component.
   8:Generated_Source\PSoC5/ShiftReg_7_PM.c **** *
   9:Generated_Source\PSoC5/ShiftReg_7_PM.c **** * Note:
  10:Generated_Source\PSoC5/ShiftReg_7_PM.c **** *
  11:Generated_Source\PSoC5/ShiftReg_7_PM.c **** ********************************************************************************
  12:Generated_Source\PSoC5/ShiftReg_7_PM.c **** * Copyright 2008-2013, Cypress Semiconductor Corporation.  All rights reserved.
  13:Generated_Source\PSoC5/ShiftReg_7_PM.c **** * You may use this file only in accordance with the license, terms, conditions,
  14:Generated_Source\PSoC5/ShiftReg_7_PM.c **** * disclaimers, and limitations in the end user license agreement accompanying
  15:Generated_Source\PSoC5/ShiftReg_7_PM.c **** * the software package with which this file was provided.
  16:Generated_Source\PSoC5/ShiftReg_7_PM.c **** *******************************************************************************/
  17:Generated_Source\PSoC5/ShiftReg_7_PM.c **** 
  18:Generated_Source\PSoC5/ShiftReg_7_PM.c **** #include "ShiftReg_7.h"
  19:Generated_Source\PSoC5/ShiftReg_7_PM.c **** 
  20:Generated_Source\PSoC5/ShiftReg_7_PM.c **** static ShiftReg_7_BACKUP_STRUCT ShiftReg_7_backup =
  21:Generated_Source\PSoC5/ShiftReg_7_PM.c **** {
  22:Generated_Source\PSoC5/ShiftReg_7_PM.c ****     ShiftReg_7_DISABLED,
  23:Generated_Source\PSoC5/ShiftReg_7_PM.c **** 
  24:Generated_Source\PSoC5/ShiftReg_7_PM.c ****     ((uint32) ShiftReg_7_DEFAULT_A0),
  25:Generated_Source\PSoC5/ShiftReg_7_PM.c ****     ((uint32) ShiftReg_7_DEFAULT_A1),
  26:Generated_Source\PSoC5/ShiftReg_7_PM.c **** 
  27:Generated_Source\PSoC5/ShiftReg_7_PM.c ****     #if(CY_UDB_V0)
  28:Generated_Source\PSoC5/ShiftReg_7_PM.c ****         ((uint32) ShiftReg_7_INT_SRC),
  29:Generated_Source\PSoC5/ShiftReg_7_PM.c ****     #endif /* (CY_UDB_V0) */
  30:Generated_Source\PSoC5/ShiftReg_7_PM.c **** };
ARM GAS  C:\Users\user\AppData\Local\Temp\ccrAKOU9.s 			page 2


  31:Generated_Source\PSoC5/ShiftReg_7_PM.c **** 
  32:Generated_Source\PSoC5/ShiftReg_7_PM.c **** 
  33:Generated_Source\PSoC5/ShiftReg_7_PM.c **** /*******************************************************************************
  34:Generated_Source\PSoC5/ShiftReg_7_PM.c **** * Function Name: ShiftReg_7_SaveConfig
  35:Generated_Source\PSoC5/ShiftReg_7_PM.c **** ********************************************************************************
  36:Generated_Source\PSoC5/ShiftReg_7_PM.c **** *
  37:Generated_Source\PSoC5/ShiftReg_7_PM.c **** * Summary:
  38:Generated_Source\PSoC5/ShiftReg_7_PM.c **** *  Saves Shift Register configuration.
  39:Generated_Source\PSoC5/ShiftReg_7_PM.c **** *
  40:Generated_Source\PSoC5/ShiftReg_7_PM.c **** * Parameters:
  41:Generated_Source\PSoC5/ShiftReg_7_PM.c **** *  None.
  42:Generated_Source\PSoC5/ShiftReg_7_PM.c **** *
  43:Generated_Source\PSoC5/ShiftReg_7_PM.c **** * Return:
  44:Generated_Source\PSoC5/ShiftReg_7_PM.c **** *  None.
  45:Generated_Source\PSoC5/ShiftReg_7_PM.c **** *
  46:Generated_Source\PSoC5/ShiftReg_7_PM.c **** * Reentrant:
  47:Generated_Source\PSoC5/ShiftReg_7_PM.c **** *  No.
  48:Generated_Source\PSoC5/ShiftReg_7_PM.c **** *
  49:Generated_Source\PSoC5/ShiftReg_7_PM.c **** *******************************************************************************/
  50:Generated_Source\PSoC5/ShiftReg_7_PM.c **** void ShiftReg_7_SaveConfig(void) 
  51:Generated_Source\PSoC5/ShiftReg_7_PM.c **** {
  28              		.loc 1 51 0
  29              		.cfi_startproc
  30              		@ args = 0, pretend = 0, frame = 0
  31              		@ frame_needed = 0, uses_anonymous_args = 0
  32              		@ link register save eliminated.
  52:Generated_Source\PSoC5/ShiftReg_7_PM.c ****     /* Store working registers A0 and A1 */
  53:Generated_Source\PSoC5/ShiftReg_7_PM.c ****     ShiftReg_7_backup.saveSrA0Reg   = CY_GET_REG24(ShiftReg_7_SHIFT_REG_LSB_PTR);
  33              		.loc 1 53 0
  34 0000 054B     		ldr	r3, .L2
  35 0002 1B68     		ldr	r3, [r3]
  36 0004 23F07F43 		bic	r3, r3, #-16777216
  37 0008 044A     		ldr	r2, .L2+4
  38 000a 5360     		str	r3, [r2, #4]
  54:Generated_Source\PSoC5/ShiftReg_7_PM.c ****     ShiftReg_7_backup.saveSrA1Reg   = CY_GET_REG24(ShiftReg_7_SHIFT_REG_VALUE_LSB_PTR);
  39              		.loc 1 54 0
  40 000c 044B     		ldr	r3, .L2+8
  41 000e 1B68     		ldr	r3, [r3]
  42 0010 23F07F43 		bic	r3, r3, #-16777216
  43 0014 9360     		str	r3, [r2, #8]
  44 0016 7047     		bx	lr
  45              	.L3:
  46              		.align	2
  47              	.L2:
  48 0018 04650040 		.word	1073767684
  49 001c 00000000 		.word	.LANCHOR0
  50 0020 14650040 		.word	1073767700
  51              		.cfi_endproc
  52              	.LFE0:
  53              		.size	ShiftReg_7_SaveConfig, .-ShiftReg_7_SaveConfig
  54              		.section	.text.ShiftReg_7_RestoreConfig,"ax",%progbits
  55              		.align	2
  56              		.global	ShiftReg_7_RestoreConfig
  57              		.thumb
  58              		.thumb_func
  59              		.type	ShiftReg_7_RestoreConfig, %function
  60              	ShiftReg_7_RestoreConfig:
ARM GAS  C:\Users\user\AppData\Local\Temp\ccrAKOU9.s 			page 3


  61              	.LFB1:
  55:Generated_Source\PSoC5/ShiftReg_7_PM.c **** 
  56:Generated_Source\PSoC5/ShiftReg_7_PM.c ****     #if(CY_UDB_V0)
  57:Generated_Source\PSoC5/ShiftReg_7_PM.c ****         ShiftReg_7_backup.saveSrIntMask = ShiftReg_7_SR_STATUS_MASK;
  58:Generated_Source\PSoC5/ShiftReg_7_PM.c ****     #endif /* (CY_UDB_V0) */
  59:Generated_Source\PSoC5/ShiftReg_7_PM.c **** }
  60:Generated_Source\PSoC5/ShiftReg_7_PM.c **** 
  61:Generated_Source\PSoC5/ShiftReg_7_PM.c **** 
  62:Generated_Source\PSoC5/ShiftReg_7_PM.c **** /*******************************************************************************
  63:Generated_Source\PSoC5/ShiftReg_7_PM.c **** * Function Name: ShiftReg_7_RestoreConfig
  64:Generated_Source\PSoC5/ShiftReg_7_PM.c **** ********************************************************************************
  65:Generated_Source\PSoC5/ShiftReg_7_PM.c **** *
  66:Generated_Source\PSoC5/ShiftReg_7_PM.c **** * Summary:
  67:Generated_Source\PSoC5/ShiftReg_7_PM.c **** *  Restores Shift Register configuration.
  68:Generated_Source\PSoC5/ShiftReg_7_PM.c **** *
  69:Generated_Source\PSoC5/ShiftReg_7_PM.c **** * Parameters:
  70:Generated_Source\PSoC5/ShiftReg_7_PM.c **** *  None.
  71:Generated_Source\PSoC5/ShiftReg_7_PM.c **** *
  72:Generated_Source\PSoC5/ShiftReg_7_PM.c **** * Return:
  73:Generated_Source\PSoC5/ShiftReg_7_PM.c **** *  None.
  74:Generated_Source\PSoC5/ShiftReg_7_PM.c **** *
  75:Generated_Source\PSoC5/ShiftReg_7_PM.c **** *******************************************************************************/
  76:Generated_Source\PSoC5/ShiftReg_7_PM.c **** void ShiftReg_7_RestoreConfig(void) 
  77:Generated_Source\PSoC5/ShiftReg_7_PM.c **** {
  62              		.loc 1 77 0
  63              		.cfi_startproc
  64              		@ args = 0, pretend = 0, frame = 0
  65              		@ frame_needed = 0, uses_anonymous_args = 0
  66 0000 10B5     		push	{r4, lr}
  67              		.cfi_def_cfa_offset 8
  68              		.cfi_offset 4, -8
  69              		.cfi_offset 14, -4
  78:Generated_Source\PSoC5/ShiftReg_7_PM.c ****     /* Restore working registers A0 and A1 */
  79:Generated_Source\PSoC5/ShiftReg_7_PM.c ****     CY_SET_REG24(ShiftReg_7_SHIFT_REG_LSB_PTR, ShiftReg_7_backup.saveSrA0Reg);
  70              		.loc 1 79 0
  71 0002 054C     		ldr	r4, .L6
  72 0004 6168     		ldr	r1, [r4, #4]
  73 0006 0548     		ldr	r0, .L6+4
  74 0008 FFF7FEFF 		bl	CySetReg24
  75              	.LVL0:
  80:Generated_Source\PSoC5/ShiftReg_7_PM.c ****     CY_SET_REG24(ShiftReg_7_SHIFT_REG_VALUE_LSB_PTR, ShiftReg_7_backup.saveSrA1Reg);
  76              		.loc 1 80 0
  77 000c A168     		ldr	r1, [r4, #8]
  78 000e 0448     		ldr	r0, .L6+8
  79 0010 FFF7FEFF 		bl	CySetReg24
  80              	.LVL1:
  81 0014 10BD     		pop	{r4, pc}
  82              	.L7:
  83 0016 00BF     		.align	2
  84              	.L6:
  85 0018 00000000 		.word	.LANCHOR0
  86 001c 04650040 		.word	1073767684
  87 0020 14650040 		.word	1073767700
  88              		.cfi_endproc
  89              	.LFE1:
  90              		.size	ShiftReg_7_RestoreConfig, .-ShiftReg_7_RestoreConfig
  91              		.section	.text.ShiftReg_7_Sleep,"ax",%progbits
ARM GAS  C:\Users\user\AppData\Local\Temp\ccrAKOU9.s 			page 4


  92              		.align	2
  93              		.global	ShiftReg_7_Sleep
  94              		.thumb
  95              		.thumb_func
  96              		.type	ShiftReg_7_Sleep, %function
  97              	ShiftReg_7_Sleep:
  98              	.LFB2:
  81:Generated_Source\PSoC5/ShiftReg_7_PM.c **** 
  82:Generated_Source\PSoC5/ShiftReg_7_PM.c ****     #if(CY_UDB_V0)
  83:Generated_Source\PSoC5/ShiftReg_7_PM.c ****         ShiftReg_7_SR_STATUS_MASK = ((uint8) ShiftReg_7_backup.saveSrIntMask);
  84:Generated_Source\PSoC5/ShiftReg_7_PM.c ****     #endif /* (CY_UDB_V0) */
  85:Generated_Source\PSoC5/ShiftReg_7_PM.c **** }
  86:Generated_Source\PSoC5/ShiftReg_7_PM.c **** 
  87:Generated_Source\PSoC5/ShiftReg_7_PM.c **** 
  88:Generated_Source\PSoC5/ShiftReg_7_PM.c **** /*******************************************************************************
  89:Generated_Source\PSoC5/ShiftReg_7_PM.c **** * Function Name: ShiftReg_7_Sleep
  90:Generated_Source\PSoC5/ShiftReg_7_PM.c **** ********************************************************************************
  91:Generated_Source\PSoC5/ShiftReg_7_PM.c **** *
  92:Generated_Source\PSoC5/ShiftReg_7_PM.c **** * Summary:
  93:Generated_Source\PSoC5/ShiftReg_7_PM.c **** *  Prepare the component to enter a Sleep mode.
  94:Generated_Source\PSoC5/ShiftReg_7_PM.c **** *
  95:Generated_Source\PSoC5/ShiftReg_7_PM.c **** * Parameters:
  96:Generated_Source\PSoC5/ShiftReg_7_PM.c **** *  None.
  97:Generated_Source\PSoC5/ShiftReg_7_PM.c **** *
  98:Generated_Source\PSoC5/ShiftReg_7_PM.c **** * Return:
  99:Generated_Source\PSoC5/ShiftReg_7_PM.c **** *  None.
 100:Generated_Source\PSoC5/ShiftReg_7_PM.c **** *
 101:Generated_Source\PSoC5/ShiftReg_7_PM.c **** * Reentrant:
 102:Generated_Source\PSoC5/ShiftReg_7_PM.c **** *  No.
 103:Generated_Source\PSoC5/ShiftReg_7_PM.c **** *
 104:Generated_Source\PSoC5/ShiftReg_7_PM.c **** *******************************************************************************/
 105:Generated_Source\PSoC5/ShiftReg_7_PM.c **** void ShiftReg_7_Sleep(void) 
 106:Generated_Source\PSoC5/ShiftReg_7_PM.c **** {
  99              		.loc 1 106 0
 100              		.cfi_startproc
 101              		@ args = 0, pretend = 0, frame = 0
 102              		@ frame_needed = 0, uses_anonymous_args = 0
 103 0000 08B5     		push	{r3, lr}
 104              		.cfi_def_cfa_offset 8
 105              		.cfi_offset 3, -8
 106              		.cfi_offset 14, -4
 107:Generated_Source\PSoC5/ShiftReg_7_PM.c ****     ShiftReg_7_backup.enableState = ((uint8) ShiftReg_7_IS_ENABLED);
 107              		.loc 1 107 0
 108 0002 054B     		ldr	r3, .L10
 109 0004 1B78     		ldrb	r3, [r3]	@ zero_extendqisi2
 110 0006 03F00103 		and	r3, r3, #1
 111 000a 044A     		ldr	r2, .L10+4
 112 000c 1370     		strb	r3, [r2]
 108:Generated_Source\PSoC5/ShiftReg_7_PM.c **** 
 109:Generated_Source\PSoC5/ShiftReg_7_PM.c ****     ShiftReg_7_Stop();
 113              		.loc 1 109 0
 114 000e FFF7FEFF 		bl	ShiftReg_7_Stop
 115              	.LVL2:
 110:Generated_Source\PSoC5/ShiftReg_7_PM.c ****     ShiftReg_7_SaveConfig();
 116              		.loc 1 110 0
 117 0012 FFF7FEFF 		bl	ShiftReg_7_SaveConfig
 118              	.LVL3:
ARM GAS  C:\Users\user\AppData\Local\Temp\ccrAKOU9.s 			page 5


 119 0016 08BD     		pop	{r3, pc}
 120              	.L11:
 121              		.align	2
 122              	.L10:
 123 0018 74650040 		.word	1073767796
 124 001c 00000000 		.word	.LANCHOR0
 125              		.cfi_endproc
 126              	.LFE2:
 127              		.size	ShiftReg_7_Sleep, .-ShiftReg_7_Sleep
 128              		.section	.text.ShiftReg_7_Wakeup,"ax",%progbits
 129              		.align	2
 130              		.global	ShiftReg_7_Wakeup
 131              		.thumb
 132              		.thumb_func
 133              		.type	ShiftReg_7_Wakeup, %function
 134              	ShiftReg_7_Wakeup:
 135              	.LFB3:
 111:Generated_Source\PSoC5/ShiftReg_7_PM.c **** }
 112:Generated_Source\PSoC5/ShiftReg_7_PM.c **** 
 113:Generated_Source\PSoC5/ShiftReg_7_PM.c **** 
 114:Generated_Source\PSoC5/ShiftReg_7_PM.c **** /*******************************************************************************
 115:Generated_Source\PSoC5/ShiftReg_7_PM.c **** * Function Name: ShiftReg_7_Wakeup
 116:Generated_Source\PSoC5/ShiftReg_7_PM.c **** ********************************************************************************
 117:Generated_Source\PSoC5/ShiftReg_7_PM.c **** *
 118:Generated_Source\PSoC5/ShiftReg_7_PM.c **** * Summary:
 119:Generated_Source\PSoC5/ShiftReg_7_PM.c **** *  Restores and enables the user configuration.
 120:Generated_Source\PSoC5/ShiftReg_7_PM.c **** *
 121:Generated_Source\PSoC5/ShiftReg_7_PM.c **** * Parameters:
 122:Generated_Source\PSoC5/ShiftReg_7_PM.c **** *  None.
 123:Generated_Source\PSoC5/ShiftReg_7_PM.c **** *
 124:Generated_Source\PSoC5/ShiftReg_7_PM.c **** * Return:
 125:Generated_Source\PSoC5/ShiftReg_7_PM.c **** *  None.
 126:Generated_Source\PSoC5/ShiftReg_7_PM.c **** *
 127:Generated_Source\PSoC5/ShiftReg_7_PM.c **** *******************************************************************************/
 128:Generated_Source\PSoC5/ShiftReg_7_PM.c **** void ShiftReg_7_Wakeup(void) 
 129:Generated_Source\PSoC5/ShiftReg_7_PM.c **** {
 136              		.loc 1 129 0
 137              		.cfi_startproc
 138              		@ args = 0, pretend = 0, frame = 0
 139              		@ frame_needed = 0, uses_anonymous_args = 0
 140 0000 08B5     		push	{r3, lr}
 141              		.cfi_def_cfa_offset 8
 142              		.cfi_offset 3, -8
 143              		.cfi_offset 14, -4
 130:Generated_Source\PSoC5/ShiftReg_7_PM.c ****     ShiftReg_7_RestoreConfig();
 144              		.loc 1 130 0
 145 0002 FFF7FEFF 		bl	ShiftReg_7_RestoreConfig
 146              	.LVL4:
 131:Generated_Source\PSoC5/ShiftReg_7_PM.c **** 
 132:Generated_Source\PSoC5/ShiftReg_7_PM.c ****     if(0u != ShiftReg_7_backup.enableState)
 147              		.loc 1 132 0
 148 0006 034B     		ldr	r3, .L15
 149 0008 1B78     		ldrb	r3, [r3]	@ zero_extendqisi2
 150 000a 0BB1     		cbz	r3, .L12
 133:Generated_Source\PSoC5/ShiftReg_7_PM.c ****     {
 134:Generated_Source\PSoC5/ShiftReg_7_PM.c ****         ShiftReg_7_Enable();
 151              		.loc 1 134 0
ARM GAS  C:\Users\user\AppData\Local\Temp\ccrAKOU9.s 			page 6


 152 000c FFF7FEFF 		bl	ShiftReg_7_Enable
 153              	.LVL5:
 154              	.L12:
 155 0010 08BD     		pop	{r3, pc}
 156              	.L16:
 157 0012 00BF     		.align	2
 158              	.L15:
 159 0014 00000000 		.word	.LANCHOR0
 160              		.cfi_endproc
 161              	.LFE3:
 162              		.size	ShiftReg_7_Wakeup, .-ShiftReg_7_Wakeup
 163              		.bss
 164              		.align	2
 165              		.set	.LANCHOR0,. + 0
 166              		.type	ShiftReg_7_backup, %object
 167              		.size	ShiftReg_7_backup, 12
 168              	ShiftReg_7_backup:
 169 0000 00000000 		.space	12
 169      00000000 
 169      00000000 
 170              		.text
 171              	.Letext0:
 172              		.file 2 "Generated_Source\\PSoC5\\cytypes.h"
 173              		.file 3 "Generated_Source\\PSoC5\\ShiftReg_7.h"