ARM GAS  C:\Users\user\AppData\Local\Temp\ccaOaSVv.s 			page 1


   1              		.syntax unified
   2              		.cpu cortex-m3
   3              		.fpu softvfp
   4              		.eabi_attribute 20, 1
   5              		.eabi_attribute 21, 1
   6              		.eabi_attribute 23, 3
   7              		.eabi_attribute 24, 1
   8              		.eabi_attribute 25, 1
   9              		.eabi_attribute 26, 1
  10              		.eabi_attribute 30, 1
  11              		.eabi_attribute 34, 1
  12              		.eabi_attribute 18, 4
  13              		.thumb
  14              		.syntax unified
  15              		.file	"USBUART_1_hid.c"
  16              		.text
  17              	.Ltext0:
  18              		.cfi_sections	.debug_frame
  19              		.section	.text.USBUART_1_UpdateHIDTimer,"ax",%progbits
  20              		.align	2
  21              		.global	USBUART_1_UpdateHIDTimer
  22              		.thumb
  23              		.thumb_func
  24              		.type	USBUART_1_UpdateHIDTimer, %function
  25              	USBUART_1_UpdateHIDTimer:
  26              	.LFB0:
  27              		.file 1 "Generated_Source\\PSoC5\\USBUART_1_hid.c"
   1:Generated_Source\PSoC5/USBUART_1_hid.c **** /***************************************************************************//**
   2:Generated_Source\PSoC5/USBUART_1_hid.c **** * \file USBUART_1_hid.c
   3:Generated_Source\PSoC5/USBUART_1_hid.c **** * \version 3.20
   4:Generated_Source\PSoC5/USBUART_1_hid.c **** *
   5:Generated_Source\PSoC5/USBUART_1_hid.c **** * \brief
   6:Generated_Source\PSoC5/USBUART_1_hid.c **** *  This file contains the USB HID Class request handler. 
   7:Generated_Source\PSoC5/USBUART_1_hid.c **** *
   8:Generated_Source\PSoC5/USBUART_1_hid.c **** * Related Document:
   9:Generated_Source\PSoC5/USBUART_1_hid.c **** *  Device Class Definition for Human Interface Devices (HID) Version 1.11
  10:Generated_Source\PSoC5/USBUART_1_hid.c **** *
  11:Generated_Source\PSoC5/USBUART_1_hid.c **** ********************************************************************************
  12:Generated_Source\PSoC5/USBUART_1_hid.c **** * \copyright
  13:Generated_Source\PSoC5/USBUART_1_hid.c **** * Copyright 2008-2016, Cypress Semiconductor Corporation.  All rights reserved.
  14:Generated_Source\PSoC5/USBUART_1_hid.c **** * You may use this file only in accordance with the license, terms, conditions,
  15:Generated_Source\PSoC5/USBUART_1_hid.c **** * disclaimers, and limitations in the end user license agreement accompanying
  16:Generated_Source\PSoC5/USBUART_1_hid.c **** * the software package with which this file was provided.
  17:Generated_Source\PSoC5/USBUART_1_hid.c **** *******************************************************************************/
  18:Generated_Source\PSoC5/USBUART_1_hid.c **** 
  19:Generated_Source\PSoC5/USBUART_1_hid.c **** #include "USBUART_1_hid.h"
  20:Generated_Source\PSoC5/USBUART_1_hid.c **** #include "USBUART_1_pvt.h"
  21:Generated_Source\PSoC5/USBUART_1_hid.c **** #include "cyapicallbacks.h"
  22:Generated_Source\PSoC5/USBUART_1_hid.c **** 
  23:Generated_Source\PSoC5/USBUART_1_hid.c **** 
  24:Generated_Source\PSoC5/USBUART_1_hid.c **** #if defined(USBUART_1_ENABLE_HID_CLASS)
  25:Generated_Source\PSoC5/USBUART_1_hid.c **** 
  26:Generated_Source\PSoC5/USBUART_1_hid.c **** /***************************************
  27:Generated_Source\PSoC5/USBUART_1_hid.c **** *    HID Variables
  28:Generated_Source\PSoC5/USBUART_1_hid.c **** ***************************************/
  29:Generated_Source\PSoC5/USBUART_1_hid.c **** /** This variable is initialized in the USBFS_InitComponent() API to the 
  30:Generated_Source\PSoC5/USBUART_1_hid.c ****  * PROTOCOL_REPORT value. It is controlled by the host using the 
ARM GAS  C:\Users\user\AppData\Local\Temp\ccaOaSVv.s 			page 2


  31:Generated_Source\PSoC5/USBUART_1_hid.c ****  * HID_SET_PROTOCOL request. The value is returned to the user code by the 
  32:Generated_Source\PSoC5/USBUART_1_hid.c ****  * USBFS_GetProtocol() API.*/
  33:Generated_Source\PSoC5/USBUART_1_hid.c **** volatile uint8 USBUART_1_hidProtocol[USBUART_1_MAX_INTERFACES_NUMBER];
  34:Generated_Source\PSoC5/USBUART_1_hid.c **** 
  35:Generated_Source\PSoC5/USBUART_1_hid.c **** /** This variable controls the HID report rate. It is controlled by the host 
  36:Generated_Source\PSoC5/USBUART_1_hid.c ****  * using the HID_SET_IDLE request and used by the USBFS_UpdateHIDTimer() API to 
  37:Generated_Source\PSoC5/USBUART_1_hid.c ****  * reload timer.*/
  38:Generated_Source\PSoC5/USBUART_1_hid.c **** volatile uint8 USBUART_1_hidIdleRate[USBUART_1_MAX_INTERFACES_NUMBER];
  39:Generated_Source\PSoC5/USBUART_1_hid.c **** 
  40:Generated_Source\PSoC5/USBUART_1_hid.c **** /** This variable contains the timer counter, which is decremented and reloaded 
  41:Generated_Source\PSoC5/USBUART_1_hid.c ****  * by the USBFS_UpdateHIDTimer() API.*/
  42:Generated_Source\PSoC5/USBUART_1_hid.c **** volatile uint8 USBUART_1_hidIdleTimer[USBUART_1_MAX_INTERFACES_NUMBER]; /* HID device idle rate val
  43:Generated_Source\PSoC5/USBUART_1_hid.c **** 
  44:Generated_Source\PSoC5/USBUART_1_hid.c **** 
  45:Generated_Source\PSoC5/USBUART_1_hid.c **** /***************************************
  46:Generated_Source\PSoC5/USBUART_1_hid.c **** * Custom Declarations
  47:Generated_Source\PSoC5/USBUART_1_hid.c **** ***************************************/
  48:Generated_Source\PSoC5/USBUART_1_hid.c **** 
  49:Generated_Source\PSoC5/USBUART_1_hid.c **** /* `#START HID_CUSTOM_DECLARATIONS` Place your declaration here */
  50:Generated_Source\PSoC5/USBUART_1_hid.c **** 
  51:Generated_Source\PSoC5/USBUART_1_hid.c **** /* `#END` */
  52:Generated_Source\PSoC5/USBUART_1_hid.c **** 
  53:Generated_Source\PSoC5/USBUART_1_hid.c **** 
  54:Generated_Source\PSoC5/USBUART_1_hid.c **** /*******************************************************************************
  55:Generated_Source\PSoC5/USBUART_1_hid.c **** * Function Name: USBUART_1_UpdateHIDTimer
  56:Generated_Source\PSoC5/USBUART_1_hid.c **** ****************************************************************************//**
  57:Generated_Source\PSoC5/USBUART_1_hid.c **** *
  58:Generated_Source\PSoC5/USBUART_1_hid.c **** *  This function updates the HID Report idle timer and returns the status and 
  59:Generated_Source\PSoC5/USBUART_1_hid.c **** *  reloads the timer if it expires.
  60:Generated_Source\PSoC5/USBUART_1_hid.c **** *
  61:Generated_Source\PSoC5/USBUART_1_hid.c **** *  \param interface Contains the interface number.
  62:Generated_Source\PSoC5/USBUART_1_hid.c **** *
  63:Generated_Source\PSoC5/USBUART_1_hid.c **** * \return
  64:Generated_Source\PSoC5/USBUART_1_hid.c **** *  Returns the state of the HID timer. Symbolic names and their associated values are given here:
  65:Generated_Source\PSoC5/USBUART_1_hid.c **** *  Return Value               |Notes
  66:Generated_Source\PSoC5/USBUART_1_hid.c **** *  ---------------------------|------------------------------------------------
  67:Generated_Source\PSoC5/USBUART_1_hid.c **** *  USBFS_IDLE_TIMER_EXPIRED   | The timer expired.
  68:Generated_Source\PSoC5/USBUART_1_hid.c **** *  USBFS_IDLE_TIMER_RUNNING   | The timer is running.
  69:Generated_Source\PSoC5/USBUART_1_hid.c **** *  USBFS_IDLE_TIMER_IDEFINITE | The report is sent when data or state changes.
  70:Generated_Source\PSoC5/USBUART_1_hid.c **** *
  71:Generated_Source\PSoC5/USBUART_1_hid.c **** *
  72:Generated_Source\PSoC5/USBUART_1_hid.c **** * \reentrant
  73:Generated_Source\PSoC5/USBUART_1_hid.c **** *  No.
  74:Generated_Source\PSoC5/USBUART_1_hid.c **** *
  75:Generated_Source\PSoC5/USBUART_1_hid.c **** *******************************************************************************/
  76:Generated_Source\PSoC5/USBUART_1_hid.c **** uint8 USBUART_1_UpdateHIDTimer(uint8 interface) 
  77:Generated_Source\PSoC5/USBUART_1_hid.c **** {
  28              		.loc 1 77 0
  29              		.cfi_startproc
  30              		@ args = 0, pretend = 0, frame = 0
  31              		@ frame_needed = 0, uses_anonymous_args = 0
  32              		@ link register save eliminated.
  33              	.LVL0:
  78:Generated_Source\PSoC5/USBUART_1_hid.c ****     uint8 stat = USBUART_1_IDLE_TIMER_INDEFINITE;
  79:Generated_Source\PSoC5/USBUART_1_hid.c **** 
  80:Generated_Source\PSoC5/USBUART_1_hid.c ****     if(USBUART_1_hidIdleRate[interface] != 0u)
  34              		.loc 1 80 0
ARM GAS  C:\Users\user\AppData\Local\Temp\ccaOaSVv.s 			page 3


  35 0000 0C4B     		ldr	r3, .L5
  36 0002 1B5C     		ldrb	r3, [r3, r0]	@ zero_extendqisi2
  37 0004 13F0FF0F 		tst	r3, #255
  38 0008 12D0     		beq	.L4
  81:Generated_Source\PSoC5/USBUART_1_hid.c ****     {
  82:Generated_Source\PSoC5/USBUART_1_hid.c ****         if(USBUART_1_hidIdleTimer[interface] > 0u)
  39              		.loc 1 82 0
  40 000a 0B4B     		ldr	r3, .L5+4
  41 000c 1B5C     		ldrb	r3, [r3, r0]	@ zero_extendqisi2
  42 000e 13F0FF0F 		tst	r3, #255
  43 0012 06D0     		beq	.L3
  83:Generated_Source\PSoC5/USBUART_1_hid.c ****         {
  84:Generated_Source\PSoC5/USBUART_1_hid.c ****             USBUART_1_hidIdleTimer[interface]--;
  44              		.loc 1 84 0
  45 0014 084A     		ldr	r2, .L5+4
  46 0016 135C     		ldrb	r3, [r2, r0]	@ zero_extendqisi2
  47 0018 013B     		subs	r3, r3, #1
  48 001a DBB2     		uxtb	r3, r3
  49 001c 1354     		strb	r3, [r2, r0]
  50              	.LVL1:
  85:Generated_Source\PSoC5/USBUART_1_hid.c ****             stat = USBUART_1_IDLE_TIMER_RUNNING;
  51              		.loc 1 85 0
  52 001e 0220     		movs	r0, #2
  53              	.LVL2:
  54 0020 7047     		bx	lr
  55              	.LVL3:
  56              	.L3:
  86:Generated_Source\PSoC5/USBUART_1_hid.c ****         }
  87:Generated_Source\PSoC5/USBUART_1_hid.c ****         else
  88:Generated_Source\PSoC5/USBUART_1_hid.c ****         {
  89:Generated_Source\PSoC5/USBUART_1_hid.c ****             USBUART_1_hidIdleTimer[interface] = USBUART_1_hidIdleRate[interface];
  57              		.loc 1 89 0
  58 0022 044B     		ldr	r3, .L5
  59 0024 1B5C     		ldrb	r3, [r3, r0]	@ zero_extendqisi2
  60 0026 DBB2     		uxtb	r3, r3
  61 0028 034A     		ldr	r2, .L5+4
  62 002a 1354     		strb	r3, [r2, r0]
  63              	.LVL4:
  90:Generated_Source\PSoC5/USBUART_1_hid.c ****             stat = USBUART_1_IDLE_TIMER_EXPIRED;
  64              		.loc 1 90 0
  65 002c 0120     		movs	r0, #1
  66              	.LVL5:
  67 002e 7047     		bx	lr
  68              	.LVL6:
  69              	.L4:
  78:Generated_Source\PSoC5/USBUART_1_hid.c **** 
  70              		.loc 1 78 0
  71 0030 0020     		movs	r0, #0
  72              	.LVL7:
  91:Generated_Source\PSoC5/USBUART_1_hid.c ****         }
  92:Generated_Source\PSoC5/USBUART_1_hid.c ****     }
  93:Generated_Source\PSoC5/USBUART_1_hid.c **** 
  94:Generated_Source\PSoC5/USBUART_1_hid.c ****     return((uint8)stat);
  95:Generated_Source\PSoC5/USBUART_1_hid.c **** }
  73              		.loc 1 95 0
  74 0032 7047     		bx	lr
  75              	.L6:
ARM GAS  C:\Users\user\AppData\Local\Temp\ccaOaSVv.s 			page 4


  76              		.align	2
  77              	.L5:
  78 0034 00000000 		.word	USBUART_1_hidIdleRate
  79 0038 00000000 		.word	USBUART_1_hidIdleTimer
  80              		.cfi_endproc
  81              	.LFE0:
  82              		.size	USBUART_1_UpdateHIDTimer, .-USBUART_1_UpdateHIDTimer
  83              		.section	.text.USBUART_1_GetProtocol,"ax",%progbits
  84              		.align	2
  85              		.global	USBUART_1_GetProtocol
  86              		.thumb
  87              		.thumb_func
  88              		.type	USBUART_1_GetProtocol, %function
  89              	USBUART_1_GetProtocol:
  90              	.LFB1:
  96:Generated_Source\PSoC5/USBUART_1_hid.c **** 
  97:Generated_Source\PSoC5/USBUART_1_hid.c **** 
  98:Generated_Source\PSoC5/USBUART_1_hid.c **** /*******************************************************************************
  99:Generated_Source\PSoC5/USBUART_1_hid.c **** * Function Name: USBUART_1_GetProtocol
 100:Generated_Source\PSoC5/USBUART_1_hid.c **** ****************************************************************************//**
 101:Generated_Source\PSoC5/USBUART_1_hid.c **** *
 102:Generated_Source\PSoC5/USBUART_1_hid.c **** *  This function returns the HID protocol value for the selected interface.
 103:Generated_Source\PSoC5/USBUART_1_hid.c **** *
 104:Generated_Source\PSoC5/USBUART_1_hid.c **** *  \param interface:  Contains the interface number.
 105:Generated_Source\PSoC5/USBUART_1_hid.c **** *
 106:Generated_Source\PSoC5/USBUART_1_hid.c **** *  \return
 107:Generated_Source\PSoC5/USBUART_1_hid.c **** *  Returns the protocol value. 
 108:Generated_Source\PSoC5/USBUART_1_hid.c **** *
 109:Generated_Source\PSoC5/USBUART_1_hid.c **** *******************************************************************************/
 110:Generated_Source\PSoC5/USBUART_1_hid.c **** uint8 USBUART_1_GetProtocol(uint8 interface) 
 111:Generated_Source\PSoC5/USBUART_1_hid.c **** {
  91              		.loc 1 111 0
  92              		.cfi_startproc
  93              		@ args = 0, pretend = 0, frame = 0
  94              		@ frame_needed = 0, uses_anonymous_args = 0
  95              		@ link register save eliminated.
  96              	.LVL8:
 112:Generated_Source\PSoC5/USBUART_1_hid.c ****     return(USBUART_1_hidProtocol[interface]);
  97              		.loc 1 112 0
  98 0000 014B     		ldr	r3, .L8
  99 0002 185C     		ldrb	r0, [r3, r0]	@ zero_extendqisi2
 100              	.LVL9:
 113:Generated_Source\PSoC5/USBUART_1_hid.c **** }
 101              		.loc 1 113 0
 102 0004 7047     		bx	lr
 103              	.L9:
 104 0006 00BF     		.align	2
 105              	.L8:
 106 0008 00000000 		.word	USBUART_1_hidProtocol
 107              		.cfi_endproc
 108              	.LFE1:
 109              		.size	USBUART_1_GetProtocol, .-USBUART_1_GetProtocol
 110              		.section	.text.USBUART_1_FindHidClassDecriptor,"ax",%progbits
 111              		.align	2
 112              		.global	USBUART_1_FindHidClassDecriptor
 113              		.thumb
 114              		.thumb_func
ARM GAS  C:\Users\user\AppData\Local\Temp\ccaOaSVv.s 			page 5


 115              		.type	USBUART_1_FindHidClassDecriptor, %function
 116              	USBUART_1_FindHidClassDecriptor:
 117              	.LFB3:
 114:Generated_Source\PSoC5/USBUART_1_hid.c **** 
 115:Generated_Source\PSoC5/USBUART_1_hid.c **** 
 116:Generated_Source\PSoC5/USBUART_1_hid.c **** /*******************************************************************************
 117:Generated_Source\PSoC5/USBUART_1_hid.c **** * Function Name: USBUART_1_DispatchHIDClassRqst
 118:Generated_Source\PSoC5/USBUART_1_hid.c **** ****************************************************************************//**
 119:Generated_Source\PSoC5/USBUART_1_hid.c **** *
 120:Generated_Source\PSoC5/USBUART_1_hid.c **** *  This routine dispatches class requests
 121:Generated_Source\PSoC5/USBUART_1_hid.c **** *
 122:Generated_Source\PSoC5/USBUART_1_hid.c **** * \return
 123:Generated_Source\PSoC5/USBUART_1_hid.c **** *  Results of HID Class request handling: 
 124:Generated_Source\PSoC5/USBUART_1_hid.c **** *  - USBUART_1_TRUE  - request was handled without errors
 125:Generated_Source\PSoC5/USBUART_1_hid.c **** *  - USBUART_1_FALSE - error occurs during handling of request  
 126:Generated_Source\PSoC5/USBUART_1_hid.c **** *
 127:Generated_Source\PSoC5/USBUART_1_hid.c **** * \reentrant
 128:Generated_Source\PSoC5/USBUART_1_hid.c **** *  No.
 129:Generated_Source\PSoC5/USBUART_1_hid.c **** *
 130:Generated_Source\PSoC5/USBUART_1_hid.c **** *******************************************************************************/
 131:Generated_Source\PSoC5/USBUART_1_hid.c **** uint8 USBUART_1_DispatchHIDClassRqst(void) 
 132:Generated_Source\PSoC5/USBUART_1_hid.c **** {
 133:Generated_Source\PSoC5/USBUART_1_hid.c ****     uint8 requestHandled = USBUART_1_FALSE;
 134:Generated_Source\PSoC5/USBUART_1_hid.c **** 
 135:Generated_Source\PSoC5/USBUART_1_hid.c ****     uint8 interfaceNumber = (uint8) USBUART_1_wIndexLoReg;
 136:Generated_Source\PSoC5/USBUART_1_hid.c ****     
 137:Generated_Source\PSoC5/USBUART_1_hid.c ****     /* Check request direction: D2H or H2D. */
 138:Generated_Source\PSoC5/USBUART_1_hid.c ****     if (0u != (USBUART_1_bmRequestTypeReg & USBUART_1_RQST_DIR_D2H))
 139:Generated_Source\PSoC5/USBUART_1_hid.c ****     {
 140:Generated_Source\PSoC5/USBUART_1_hid.c ****         /* Handle direction from device to host. */
 141:Generated_Source\PSoC5/USBUART_1_hid.c ****         
 142:Generated_Source\PSoC5/USBUART_1_hid.c ****         switch (USBUART_1_bRequestReg)
 143:Generated_Source\PSoC5/USBUART_1_hid.c ****         {
 144:Generated_Source\PSoC5/USBUART_1_hid.c ****             case USBUART_1_GET_DESCRIPTOR:
 145:Generated_Source\PSoC5/USBUART_1_hid.c ****                 if (USBUART_1_wValueHiReg == USBUART_1_DESCR_HID_CLASS)
 146:Generated_Source\PSoC5/USBUART_1_hid.c ****                 {
 147:Generated_Source\PSoC5/USBUART_1_hid.c ****                     USBUART_1_FindHidClassDecriptor();
 148:Generated_Source\PSoC5/USBUART_1_hid.c ****                     if (USBUART_1_currentTD.count != 0u)
 149:Generated_Source\PSoC5/USBUART_1_hid.c ****                     {
 150:Generated_Source\PSoC5/USBUART_1_hid.c ****                         requestHandled = USBUART_1_InitControlRead();
 151:Generated_Source\PSoC5/USBUART_1_hid.c ****                     }
 152:Generated_Source\PSoC5/USBUART_1_hid.c ****                 }
 153:Generated_Source\PSoC5/USBUART_1_hid.c ****                 else if (USBUART_1_wValueHiReg == USBUART_1_DESCR_HID_REPORT)
 154:Generated_Source\PSoC5/USBUART_1_hid.c ****                 {
 155:Generated_Source\PSoC5/USBUART_1_hid.c ****                     USBUART_1_FindReportDescriptor();
 156:Generated_Source\PSoC5/USBUART_1_hid.c ****                     if (USBUART_1_currentTD.count != 0u)
 157:Generated_Source\PSoC5/USBUART_1_hid.c ****                     {
 158:Generated_Source\PSoC5/USBUART_1_hid.c ****                         requestHandled = USBUART_1_InitControlRead();
 159:Generated_Source\PSoC5/USBUART_1_hid.c ****                     }
 160:Generated_Source\PSoC5/USBUART_1_hid.c ****                 }
 161:Generated_Source\PSoC5/USBUART_1_hid.c ****                 else
 162:Generated_Source\PSoC5/USBUART_1_hid.c ****                 {   
 163:Generated_Source\PSoC5/USBUART_1_hid.c ****                     /* Do not handle this request. */
 164:Generated_Source\PSoC5/USBUART_1_hid.c ****                 }
 165:Generated_Source\PSoC5/USBUART_1_hid.c ****                 break;
 166:Generated_Source\PSoC5/USBUART_1_hid.c ****                 
 167:Generated_Source\PSoC5/USBUART_1_hid.c ****             case USBUART_1_HID_GET_REPORT:
ARM GAS  C:\Users\user\AppData\Local\Temp\ccaOaSVv.s 			page 6


 168:Generated_Source\PSoC5/USBUART_1_hid.c ****                 USBUART_1_FindReport();
 169:Generated_Source\PSoC5/USBUART_1_hid.c ****                 if (USBUART_1_currentTD.count != 0u)
 170:Generated_Source\PSoC5/USBUART_1_hid.c ****                 {
 171:Generated_Source\PSoC5/USBUART_1_hid.c ****                     requestHandled = USBUART_1_InitControlRead();
 172:Generated_Source\PSoC5/USBUART_1_hid.c ****                 }
 173:Generated_Source\PSoC5/USBUART_1_hid.c ****                 break;
 174:Generated_Source\PSoC5/USBUART_1_hid.c **** 
 175:Generated_Source\PSoC5/USBUART_1_hid.c ****             case USBUART_1_HID_GET_IDLE:
 176:Generated_Source\PSoC5/USBUART_1_hid.c ****                 /* This function does not support multiple reports per interface*/
 177:Generated_Source\PSoC5/USBUART_1_hid.c ****                 /* Validate interfaceNumber and Report ID (should be 0): Do not support Idle per Re
 178:Generated_Source\PSoC5/USBUART_1_hid.c ****                 if ((interfaceNumber < USBUART_1_MAX_INTERFACES_NUMBER) && (USBUART_1_wValueLoReg =
 179:Generated_Source\PSoC5/USBUART_1_hid.c ****                 {
 180:Generated_Source\PSoC5/USBUART_1_hid.c ****                     USBUART_1_currentTD.count = 1u;
 181:Generated_Source\PSoC5/USBUART_1_hid.c ****                     USBUART_1_currentTD.pData = &USBUART_1_hidIdleRate[interfaceNumber];
 182:Generated_Source\PSoC5/USBUART_1_hid.c ****                     requestHandled  = USBUART_1_InitControlRead();
 183:Generated_Source\PSoC5/USBUART_1_hid.c ****                 }
 184:Generated_Source\PSoC5/USBUART_1_hid.c ****                 break;
 185:Generated_Source\PSoC5/USBUART_1_hid.c ****                 
 186:Generated_Source\PSoC5/USBUART_1_hid.c ****             case USBUART_1_HID_GET_PROTOCOL:
 187:Generated_Source\PSoC5/USBUART_1_hid.c ****                 /* Validate interfaceNumber */
 188:Generated_Source\PSoC5/USBUART_1_hid.c ****                 if( interfaceNumber < USBUART_1_MAX_INTERFACES_NUMBER)
 189:Generated_Source\PSoC5/USBUART_1_hid.c ****                 {
 190:Generated_Source\PSoC5/USBUART_1_hid.c ****                     USBUART_1_currentTD.count = 1u;
 191:Generated_Source\PSoC5/USBUART_1_hid.c ****                     USBUART_1_currentTD.pData = &USBUART_1_hidProtocol[interfaceNumber];
 192:Generated_Source\PSoC5/USBUART_1_hid.c ****                     requestHandled  = USBUART_1_InitControlRead();
 193:Generated_Source\PSoC5/USBUART_1_hid.c ****                 }
 194:Generated_Source\PSoC5/USBUART_1_hid.c ****                 break;
 195:Generated_Source\PSoC5/USBUART_1_hid.c ****                 
 196:Generated_Source\PSoC5/USBUART_1_hid.c ****             default:    /* requestHandled is initialized as FALSE by default */
 197:Generated_Source\PSoC5/USBUART_1_hid.c ****                 break;
 198:Generated_Source\PSoC5/USBUART_1_hid.c ****         }
 199:Generated_Source\PSoC5/USBUART_1_hid.c ****     }
 200:Generated_Source\PSoC5/USBUART_1_hid.c ****     else
 201:Generated_Source\PSoC5/USBUART_1_hid.c ****     {   
 202:Generated_Source\PSoC5/USBUART_1_hid.c ****         /* Handle direction from host to device. */
 203:Generated_Source\PSoC5/USBUART_1_hid.c ****         
 204:Generated_Source\PSoC5/USBUART_1_hid.c ****         switch (USBUART_1_bRequestReg)
 205:Generated_Source\PSoC5/USBUART_1_hid.c ****         {
 206:Generated_Source\PSoC5/USBUART_1_hid.c ****             case USBUART_1_HID_SET_REPORT:
 207:Generated_Source\PSoC5/USBUART_1_hid.c ****                 USBUART_1_FindReport();
 208:Generated_Source\PSoC5/USBUART_1_hid.c ****                 if (USBUART_1_currentTD.count != 0u)
 209:Generated_Source\PSoC5/USBUART_1_hid.c ****                 {
 210:Generated_Source\PSoC5/USBUART_1_hid.c ****                     requestHandled = USBUART_1_InitControlWrite();
 211:Generated_Source\PSoC5/USBUART_1_hid.c ****                 }
 212:Generated_Source\PSoC5/USBUART_1_hid.c ****                 break;
 213:Generated_Source\PSoC5/USBUART_1_hid.c ****                 
 214:Generated_Source\PSoC5/USBUART_1_hid.c ****             case USBUART_1_HID_SET_IDLE:
 215:Generated_Source\PSoC5/USBUART_1_hid.c ****                 /* This function does not support multiple reports per interface */
 216:Generated_Source\PSoC5/USBUART_1_hid.c ****                 /* Validate interfaceNumber and Report ID (should be 0): Do not support Idle per Re
 217:Generated_Source\PSoC5/USBUART_1_hid.c ****                 if ((interfaceNumber < USBUART_1_MAX_INTERFACES_NUMBER) && (USBUART_1_wValueLoReg =
 218:Generated_Source\PSoC5/USBUART_1_hid.c ****                 {
 219:Generated_Source\PSoC5/USBUART_1_hid.c ****                     USBUART_1_hidIdleRate[interfaceNumber] = (uint8)USBUART_1_wValueHiReg;
 220:Generated_Source\PSoC5/USBUART_1_hid.c ****                     /* With regards to HID spec: "7.2.4 Set_Idle Request"
 221:Generated_Source\PSoC5/USBUART_1_hid.c ****                     *  Latency. If the current period has gone past the
 222:Generated_Source\PSoC5/USBUART_1_hid.c ****                     *  newly proscribed time duration, then a report
 223:Generated_Source\PSoC5/USBUART_1_hid.c ****                     *  will be generated immediately.
 224:Generated_Source\PSoC5/USBUART_1_hid.c ****                     */
ARM GAS  C:\Users\user\AppData\Local\Temp\ccaOaSVv.s 			page 7


 225:Generated_Source\PSoC5/USBUART_1_hid.c ****                     if(USBUART_1_hidIdleRate[interfaceNumber] <
 226:Generated_Source\PSoC5/USBUART_1_hid.c ****                        USBUART_1_hidIdleTimer[interfaceNumber])
 227:Generated_Source\PSoC5/USBUART_1_hid.c ****                     {
 228:Generated_Source\PSoC5/USBUART_1_hid.c ****                         /* Set the timer to zero and let the UpdateHIDTimer() API return IDLE_TIMER
 229:Generated_Source\PSoC5/USBUART_1_hid.c ****                         USBUART_1_hidIdleTimer[interfaceNumber] = 0u;
 230:Generated_Source\PSoC5/USBUART_1_hid.c ****                     }
 231:Generated_Source\PSoC5/USBUART_1_hid.c ****                     /* If the new request is received within 4 milliseconds
 232:Generated_Source\PSoC5/USBUART_1_hid.c ****                     *  (1 count) of the end of the current period, then the
 233:Generated_Source\PSoC5/USBUART_1_hid.c ****                     *  new request will have no effect until after the report.
 234:Generated_Source\PSoC5/USBUART_1_hid.c ****                     */
 235:Generated_Source\PSoC5/USBUART_1_hid.c ****                     else if(USBUART_1_hidIdleTimer[interfaceNumber] <= 1u)
 236:Generated_Source\PSoC5/USBUART_1_hid.c ****                     {
 237:Generated_Source\PSoC5/USBUART_1_hid.c ****                         /* Do nothing.
 238:Generated_Source\PSoC5/USBUART_1_hid.c ****                         *  Let the UpdateHIDTimer() API continue to work and
 239:Generated_Source\PSoC5/USBUART_1_hid.c ****                         *  return IDLE_TIMER_EXPIRED status
 240:Generated_Source\PSoC5/USBUART_1_hid.c ****                         */
 241:Generated_Source\PSoC5/USBUART_1_hid.c ****                     }
 242:Generated_Source\PSoC5/USBUART_1_hid.c ****                     else
 243:Generated_Source\PSoC5/USBUART_1_hid.c ****                     {   /* Reload the timer*/
 244:Generated_Source\PSoC5/USBUART_1_hid.c ****                         USBUART_1_hidIdleTimer[interfaceNumber] =
 245:Generated_Source\PSoC5/USBUART_1_hid.c ****                         USBUART_1_hidIdleRate[interfaceNumber];
 246:Generated_Source\PSoC5/USBUART_1_hid.c ****                     }
 247:Generated_Source\PSoC5/USBUART_1_hid.c ****                     requestHandled = USBUART_1_InitNoDataControlTransfer();
 248:Generated_Source\PSoC5/USBUART_1_hid.c ****                 }
 249:Generated_Source\PSoC5/USBUART_1_hid.c ****                 break;
 250:Generated_Source\PSoC5/USBUART_1_hid.c **** 
 251:Generated_Source\PSoC5/USBUART_1_hid.c ****             case USBUART_1_HID_SET_PROTOCOL:
 252:Generated_Source\PSoC5/USBUART_1_hid.c ****                 /* Validate interfaceNumber and protocol (must be 0 or 1) */
 253:Generated_Source\PSoC5/USBUART_1_hid.c ****                 if ((interfaceNumber < USBUART_1_MAX_INTERFACES_NUMBER) && (USBUART_1_wValueLoReg <
 254:Generated_Source\PSoC5/USBUART_1_hid.c ****                 {
 255:Generated_Source\PSoC5/USBUART_1_hid.c ****                     USBUART_1_hidProtocol[interfaceNumber] = (uint8)USBUART_1_wValueLoReg;
 256:Generated_Source\PSoC5/USBUART_1_hid.c ****                     requestHandled = USBUART_1_InitNoDataControlTransfer();
 257:Generated_Source\PSoC5/USBUART_1_hid.c ****                 }
 258:Generated_Source\PSoC5/USBUART_1_hid.c ****                 break;
 259:Generated_Source\PSoC5/USBUART_1_hid.c ****             
 260:Generated_Source\PSoC5/USBUART_1_hid.c ****             default:    
 261:Generated_Source\PSoC5/USBUART_1_hid.c ****                 /* Unknown class request is not handled. */
 262:Generated_Source\PSoC5/USBUART_1_hid.c ****                 break;
 263:Generated_Source\PSoC5/USBUART_1_hid.c ****         }
 264:Generated_Source\PSoC5/USBUART_1_hid.c ****     }
 265:Generated_Source\PSoC5/USBUART_1_hid.c **** 
 266:Generated_Source\PSoC5/USBUART_1_hid.c ****     return (requestHandled);
 267:Generated_Source\PSoC5/USBUART_1_hid.c **** }
 268:Generated_Source\PSoC5/USBUART_1_hid.c **** 
 269:Generated_Source\PSoC5/USBUART_1_hid.c **** 
 270:Generated_Source\PSoC5/USBUART_1_hid.c **** /*******************************************************************************
 271:Generated_Source\PSoC5/USBUART_1_hid.c **** * Function Name: USB_FindHidClassDescriptor
 272:Generated_Source\PSoC5/USBUART_1_hid.c **** ****************************************************************************//**
 273:Generated_Source\PSoC5/USBUART_1_hid.c **** *
 274:Generated_Source\PSoC5/USBUART_1_hid.c **** *  This routine find Hid Class Descriptor pointer based on the Interface number
 275:Generated_Source\PSoC5/USBUART_1_hid.c **** *  and Alternate setting then loads the currentTD structure with the address of
 276:Generated_Source\PSoC5/USBUART_1_hid.c **** *  the buffer and the size.
 277:Generated_Source\PSoC5/USBUART_1_hid.c **** *  The HID Class Descriptor resides inside the config descriptor.
 278:Generated_Source\PSoC5/USBUART_1_hid.c **** *
 279:Generated_Source\PSoC5/USBUART_1_hid.c **** * \return
 280:Generated_Source\PSoC5/USBUART_1_hid.c **** *  currentTD
 281:Generated_Source\PSoC5/USBUART_1_hid.c **** *
ARM GAS  C:\Users\user\AppData\Local\Temp\ccaOaSVv.s 			page 8


 282:Generated_Source\PSoC5/USBUART_1_hid.c **** * \reentrant
 283:Generated_Source\PSoC5/USBUART_1_hid.c **** *  No.
 284:Generated_Source\PSoC5/USBUART_1_hid.c **** *
 285:Generated_Source\PSoC5/USBUART_1_hid.c **** *******************************************************************************/
 286:Generated_Source\PSoC5/USBUART_1_hid.c **** void USBUART_1_FindHidClassDecriptor(void) 
 287:Generated_Source\PSoC5/USBUART_1_hid.c **** {
 118              		.loc 1 287 0
 119              		.cfi_startproc
 120              		@ args = 0, pretend = 0, frame = 0
 121              		@ frame_needed = 0, uses_anonymous_args = 0
 122 0000 08B5     		push	{r3, lr}
 123              		.cfi_def_cfa_offset 8
 124              		.cfi_offset 3, -8
 125              		.cfi_offset 14, -4
 288:Generated_Source\PSoC5/USBUART_1_hid.c ****     const T_USBUART_1_LUT CYCODE *pTmp;
 289:Generated_Source\PSoC5/USBUART_1_hid.c ****     volatile uint8 *pDescr;
 290:Generated_Source\PSoC5/USBUART_1_hid.c ****     uint8 interfaceN;
 291:Generated_Source\PSoC5/USBUART_1_hid.c **** 
 292:Generated_Source\PSoC5/USBUART_1_hid.c ****     pTmp = USBUART_1_GetConfigTablePtr(USBUART_1_configuration - 1u);
 126              		.loc 1 292 0
 127 0002 0C4B     		ldr	r3, .L12
 128 0004 1878     		ldrb	r0, [r3]	@ zero_extendqisi2
 129 0006 0138     		subs	r0, r0, #1
 130 0008 C0B2     		uxtb	r0, r0
 131 000a FFF7FEFF 		bl	USBUART_1_GetConfigTablePtr
 132              	.LVL10:
 293:Generated_Source\PSoC5/USBUART_1_hid.c ****     
 294:Generated_Source\PSoC5/USBUART_1_hid.c ****     interfaceN = (uint8) USBUART_1_wIndexLoReg;
 133              		.loc 1 294 0
 134 000e 0A4B     		ldr	r3, .L12+4
 135 0010 1B79     		ldrb	r3, [r3, #4]	@ zero_extendqisi2
 136 0012 DBB2     		uxtb	r3, r3
 137              	.LVL11:
 295:Generated_Source\PSoC5/USBUART_1_hid.c ****     /* Third entry in the LUT starts the Interface Table pointers */
 296:Generated_Source\PSoC5/USBUART_1_hid.c ****     /* Now use the request interface number*/
 297:Generated_Source\PSoC5/USBUART_1_hid.c ****     pTmp = &pTmp[interfaceN + 2u];
 138              		.loc 1 297 0
 139 0014 9A1C     		adds	r2, r3, #2
 140 0016 00EBC200 		add	r0, r0, r2, lsl #3
 141              	.LVL12:
 298:Generated_Source\PSoC5/USBUART_1_hid.c ****     
 299:Generated_Source\PSoC5/USBUART_1_hid.c ****     /* USB_DEVICEx_CONFIGURATIONy_INTERFACEz_TABLE */
 300:Generated_Source\PSoC5/USBUART_1_hid.c ****     pTmp = (const T_USBUART_1_LUT CYCODE *) pTmp->p_list;
 142              		.loc 1 300 0
 143 001a 4268     		ldr	r2, [r0, #4]
 144              	.LVL13:
 301:Generated_Source\PSoC5/USBUART_1_hid.c ****     
 302:Generated_Source\PSoC5/USBUART_1_hid.c ****     /* Now use Alternate setting number */
 303:Generated_Source\PSoC5/USBUART_1_hid.c ****     pTmp = &pTmp[USBUART_1_interfaceSetting[interfaceN]];
 145              		.loc 1 303 0
 146 001c 0749     		ldr	r1, .L12+8
 147 001e CB5C     		ldrb	r3, [r1, r3]	@ zero_extendqisi2
 148              	.LVL14:
 149 0020 02EBC303 		add	r3, r2, r3, lsl #3
 150              	.LVL15:
 304:Generated_Source\PSoC5/USBUART_1_hid.c ****     
 305:Generated_Source\PSoC5/USBUART_1_hid.c ****     /* USB_DEVICEx_CONFIGURATIONy_INTERFACEz_ALTERNATEi_HID_TABLE */
ARM GAS  C:\Users\user\AppData\Local\Temp\ccaOaSVv.s 			page 9


 306:Generated_Source\PSoC5/USBUART_1_hid.c ****     pTmp = (const T_USBUART_1_LUT CYCODE *) pTmp->p_list;
 151              		.loc 1 306 0
 152 0024 5B68     		ldr	r3, [r3, #4]
 153              	.LVL16:
 307:Generated_Source\PSoC5/USBUART_1_hid.c ****     
 308:Generated_Source\PSoC5/USBUART_1_hid.c ****     /* Fifth entry in the LUT points to Hid Class Descriptor in Configuration Descriptor */
 309:Generated_Source\PSoC5/USBUART_1_hid.c ****     pTmp = &pTmp[4u];
 310:Generated_Source\PSoC5/USBUART_1_hid.c ****     pDescr = (volatile uint8 *)pTmp->p_list;
 154              		.loc 1 310 0
 155 0026 596A     		ldr	r1, [r3, #36]
 156              	.LVL17:
 311:Generated_Source\PSoC5/USBUART_1_hid.c ****     
 312:Generated_Source\PSoC5/USBUART_1_hid.c ****     /* The first byte contains the descriptor length */
 313:Generated_Source\PSoC5/USBUART_1_hid.c ****     USBUART_1_currentTD.count = *pDescr;
 157              		.loc 1 313 0
 158 0028 0B78     		ldrb	r3, [r1]	@ zero_extendqisi2
 159              	.LVL18:
 160 002a 054A     		ldr	r2, .L12+12
 161 002c 1380     		strh	r3, [r2]	@ movhi
 314:Generated_Source\PSoC5/USBUART_1_hid.c ****     USBUART_1_currentTD.pData = pDescr;
 162              		.loc 1 314 0
 163 002e 5160     		str	r1, [r2, #4]
 164 0030 08BD     		pop	{r3, pc}
 165              	.L13:
 166 0032 00BF     		.align	2
 167              	.L12:
 168 0034 00000000 		.word	USBUART_1_configuration
 169 0038 00600040 		.word	1073766400
 170 003c 00000000 		.word	USBUART_1_interfaceSetting
 171 0040 00000000 		.word	USBUART_1_currentTD
 172              		.cfi_endproc
 173              	.LFE3:
 174              		.size	USBUART_1_FindHidClassDecriptor, .-USBUART_1_FindHidClassDecriptor
 175              		.section	.text.USBUART_1_FindReportDescriptor,"ax",%progbits
 176              		.align	2
 177              		.global	USBUART_1_FindReportDescriptor
 178              		.thumb
 179              		.thumb_func
 180              		.type	USBUART_1_FindReportDescriptor, %function
 181              	USBUART_1_FindReportDescriptor:
 182              	.LFB4:
 315:Generated_Source\PSoC5/USBUART_1_hid.c **** }
 316:Generated_Source\PSoC5/USBUART_1_hid.c **** 
 317:Generated_Source\PSoC5/USBUART_1_hid.c **** 
 318:Generated_Source\PSoC5/USBUART_1_hid.c **** /*******************************************************************************
 319:Generated_Source\PSoC5/USBUART_1_hid.c **** * Function Name: USB_FindReportDescriptor
 320:Generated_Source\PSoC5/USBUART_1_hid.c **** ****************************************************************************//**
 321:Generated_Source\PSoC5/USBUART_1_hid.c **** *
 322:Generated_Source\PSoC5/USBUART_1_hid.c **** *  This routine find Hid Report Descriptor pointer based on the Interface
 323:Generated_Source\PSoC5/USBUART_1_hid.c **** *  number, then loads the currentTD structure with the address of the buffer
 324:Generated_Source\PSoC5/USBUART_1_hid.c **** *  and the size.
 325:Generated_Source\PSoC5/USBUART_1_hid.c **** *  Hid Report Descriptor is located after IN/OUT/FEATURE reports.
 326:Generated_Source\PSoC5/USBUART_1_hid.c **** *
 327:Generated_Source\PSoC5/USBUART_1_hid.c **** * \return
 328:Generated_Source\PSoC5/USBUART_1_hid.c **** *  currentTD
 329:Generated_Source\PSoC5/USBUART_1_hid.c **** *
 330:Generated_Source\PSoC5/USBUART_1_hid.c **** * \reentrant
ARM GAS  C:\Users\user\AppData\Local\Temp\ccaOaSVv.s 			page 10


 331:Generated_Source\PSoC5/USBUART_1_hid.c **** *  No.
 332:Generated_Source\PSoC5/USBUART_1_hid.c **** *
 333:Generated_Source\PSoC5/USBUART_1_hid.c **** *******************************************************************************/
 334:Generated_Source\PSoC5/USBUART_1_hid.c **** void USBUART_1_FindReportDescriptor(void) 
 335:Generated_Source\PSoC5/USBUART_1_hid.c **** {
 183              		.loc 1 335 0
 184              		.cfi_startproc
 185              		@ args = 0, pretend = 0, frame = 0
 186              		@ frame_needed = 0, uses_anonymous_args = 0
 187 0000 08B5     		push	{r3, lr}
 188              		.cfi_def_cfa_offset 8
 189              		.cfi_offset 3, -8
 190              		.cfi_offset 14, -4
 336:Generated_Source\PSoC5/USBUART_1_hid.c ****     const T_USBUART_1_LUT CYCODE *pTmp;
 337:Generated_Source\PSoC5/USBUART_1_hid.c ****     volatile uint8 *pDescr;
 338:Generated_Source\PSoC5/USBUART_1_hid.c ****     uint8 interfaceN;
 339:Generated_Source\PSoC5/USBUART_1_hid.c **** 
 340:Generated_Source\PSoC5/USBUART_1_hid.c ****     pTmp = USBUART_1_GetConfigTablePtr(USBUART_1_configuration - 1u);
 191              		.loc 1 340 0
 192 0002 0E4B     		ldr	r3, .L16
 193 0004 1878     		ldrb	r0, [r3]	@ zero_extendqisi2
 194 0006 0138     		subs	r0, r0, #1
 195 0008 C0B2     		uxtb	r0, r0
 196 000a FFF7FEFF 		bl	USBUART_1_GetConfigTablePtr
 197              	.LVL19:
 341:Generated_Source\PSoC5/USBUART_1_hid.c ****     interfaceN = (uint8) USBUART_1_wIndexLoReg;
 198              		.loc 1 341 0
 199 000e 0C4B     		ldr	r3, .L16+4
 200 0010 1B79     		ldrb	r3, [r3, #4]	@ zero_extendqisi2
 201 0012 DBB2     		uxtb	r3, r3
 202              	.LVL20:
 342:Generated_Source\PSoC5/USBUART_1_hid.c ****     
 343:Generated_Source\PSoC5/USBUART_1_hid.c ****     /* Third entry in the LUT starts the Interface Table pointers */
 344:Generated_Source\PSoC5/USBUART_1_hid.c ****     /* Now use the request interface number */
 345:Generated_Source\PSoC5/USBUART_1_hid.c ****     pTmp = &pTmp[interfaceN + 2u];
 203              		.loc 1 345 0
 204 0014 9A1C     		adds	r2, r3, #2
 205 0016 00EBC200 		add	r0, r0, r2, lsl #3
 206              	.LVL21:
 346:Generated_Source\PSoC5/USBUART_1_hid.c ****     
 347:Generated_Source\PSoC5/USBUART_1_hid.c ****     /* USB_DEVICEx_CONFIGURATIONy_INTERFACEz_TABLE */
 348:Generated_Source\PSoC5/USBUART_1_hid.c ****     pTmp = (const T_USBUART_1_LUT CYCODE *) pTmp->p_list;
 207              		.loc 1 348 0
 208 001a 4268     		ldr	r2, [r0, #4]
 209              	.LVL22:
 349:Generated_Source\PSoC5/USBUART_1_hid.c ****     
 350:Generated_Source\PSoC5/USBUART_1_hid.c ****     /* Now use Alternate setting number */
 351:Generated_Source\PSoC5/USBUART_1_hid.c ****     pTmp = &pTmp[USBUART_1_interfaceSetting[interfaceN]];
 210              		.loc 1 351 0
 211 001c 0949     		ldr	r1, .L16+8
 212 001e CB5C     		ldrb	r3, [r1, r3]	@ zero_extendqisi2
 213              	.LVL23:
 214 0020 02EBC303 		add	r3, r2, r3, lsl #3
 215              	.LVL24:
 352:Generated_Source\PSoC5/USBUART_1_hid.c ****     
 353:Generated_Source\PSoC5/USBUART_1_hid.c ****     /* USB_DEVICEx_CONFIGURATIONy_INTERFACEz_ALTERNATEi_HID_TABLE */
 354:Generated_Source\PSoC5/USBUART_1_hid.c ****     pTmp = (const T_USBUART_1_LUT CYCODE *) pTmp->p_list;
ARM GAS  C:\Users\user\AppData\Local\Temp\ccaOaSVv.s 			page 11


 216              		.loc 1 354 0
 217 0024 5B68     		ldr	r3, [r3, #4]
 218              	.LVL25:
 355:Generated_Source\PSoC5/USBUART_1_hid.c ****     
 356:Generated_Source\PSoC5/USBUART_1_hid.c ****     /* Fourth entry in the LUT starts the Hid Report Descriptor */
 357:Generated_Source\PSoC5/USBUART_1_hid.c ****     pTmp = &pTmp[3u];
 358:Generated_Source\PSoC5/USBUART_1_hid.c ****     pDescr = (volatile uint8 *)pTmp->p_list;
 219              		.loc 1 358 0
 220 0026 DB69     		ldr	r3, [r3, #28]
 221              	.LVL26:
 359:Generated_Source\PSoC5/USBUART_1_hid.c ****     
 360:Generated_Source\PSoC5/USBUART_1_hid.c ****     /* The 1st and 2nd bytes of descriptor contain its length. LSB is 1st. */
 361:Generated_Source\PSoC5/USBUART_1_hid.c ****     USBUART_1_currentTD.count =  ((uint16)((uint16) pDescr[1u] << 8u) | pDescr[0u]);
 222              		.loc 1 361 0
 223 0028 5978     		ldrb	r1, [r3, #1]	@ zero_extendqisi2
 224 002a 13F8022B 		ldrb	r2, [r3], #2	@ zero_extendqisi2
 225              	.LVL27:
 226 002e 42EA0122 		orr	r2, r2, r1, lsl #8
 227 0032 0549     		ldr	r1, .L16+12
 228 0034 0A80     		strh	r2, [r1]	@ movhi
 362:Generated_Source\PSoC5/USBUART_1_hid.c ****     USBUART_1_currentTD.pData = &pDescr[2u];
 229              		.loc 1 362 0
 230 0036 4B60     		str	r3, [r1, #4]
 231 0038 08BD     		pop	{r3, pc}
 232              	.LVL28:
 233              	.L17:
 234 003a 00BF     		.align	2
 235              	.L16:
 236 003c 00000000 		.word	USBUART_1_configuration
 237 0040 00600040 		.word	1073766400
 238 0044 00000000 		.word	USBUART_1_interfaceSetting
 239 0048 00000000 		.word	USBUART_1_currentTD
 240              		.cfi_endproc
 241              	.LFE4:
 242              		.size	USBUART_1_FindReportDescriptor, .-USBUART_1_FindReportDescriptor
 243              		.section	.text.USBUART_1_FindReport,"ax",%progbits
 244              		.align	2
 245              		.global	USBUART_1_FindReport
 246              		.thumb
 247              		.thumb_func
 248              		.type	USBUART_1_FindReport, %function
 249              	USBUART_1_FindReport:
 250              	.LFB5:
 363:Generated_Source\PSoC5/USBUART_1_hid.c **** }
 364:Generated_Source\PSoC5/USBUART_1_hid.c **** 
 365:Generated_Source\PSoC5/USBUART_1_hid.c **** 
 366:Generated_Source\PSoC5/USBUART_1_hid.c **** /*******************************************************************************
 367:Generated_Source\PSoC5/USBUART_1_hid.c **** * Function Name: USBUART_1_FindReport
 368:Generated_Source\PSoC5/USBUART_1_hid.c **** ****************************************************************************//**
 369:Generated_Source\PSoC5/USBUART_1_hid.c **** *
 370:Generated_Source\PSoC5/USBUART_1_hid.c **** *  This routine sets up a transfer based on the Interface number, Report Type
 371:Generated_Source\PSoC5/USBUART_1_hid.c **** *  and Report ID, then loads the currentTD structure with the address of the
 372:Generated_Source\PSoC5/USBUART_1_hid.c **** *  buffer and the size.  The caller has to decide if it is a control read or
 373:Generated_Source\PSoC5/USBUART_1_hid.c **** *  control write.
 374:Generated_Source\PSoC5/USBUART_1_hid.c **** *
 375:Generated_Source\PSoC5/USBUART_1_hid.c **** * \return
 376:Generated_Source\PSoC5/USBUART_1_hid.c **** *  currentTD
ARM GAS  C:\Users\user\AppData\Local\Temp\ccaOaSVv.s 			page 12


 377:Generated_Source\PSoC5/USBUART_1_hid.c **** *
 378:Generated_Source\PSoC5/USBUART_1_hid.c **** * \reentrant
 379:Generated_Source\PSoC5/USBUART_1_hid.c **** *  No.
 380:Generated_Source\PSoC5/USBUART_1_hid.c **** *
 381:Generated_Source\PSoC5/USBUART_1_hid.c **** *******************************************************************************/
 382:Generated_Source\PSoC5/USBUART_1_hid.c **** void USBUART_1_FindReport(void) 
 383:Generated_Source\PSoC5/USBUART_1_hid.c **** {
 251              		.loc 1 383 0
 252              		.cfi_startproc
 253              		@ args = 0, pretend = 0, frame = 0
 254              		@ frame_needed = 0, uses_anonymous_args = 0
 255 0000 10B5     		push	{r4, lr}
 256              		.cfi_def_cfa_offset 8
 257              		.cfi_offset 4, -8
 258              		.cfi_offset 14, -4
 384:Generated_Source\PSoC5/USBUART_1_hid.c ****     const T_USBUART_1_LUT CYCODE *pTmp;
 385:Generated_Source\PSoC5/USBUART_1_hid.c ****     T_USBUART_1_TD *pTD;
 386:Generated_Source\PSoC5/USBUART_1_hid.c ****     uint8 reportType;
 387:Generated_Source\PSoC5/USBUART_1_hid.c ****     uint8 interfaceN;
 388:Generated_Source\PSoC5/USBUART_1_hid.c ****  
 389:Generated_Source\PSoC5/USBUART_1_hid.c ****     /* `#START HID_FINDREPORT` Place custom handling here */
 390:Generated_Source\PSoC5/USBUART_1_hid.c **** 
 391:Generated_Source\PSoC5/USBUART_1_hid.c ****     /* `#END` */
 392:Generated_Source\PSoC5/USBUART_1_hid.c ****     
 393:Generated_Source\PSoC5/USBUART_1_hid.c **** #ifdef USBUART_1_FIND_REPORT_CALLBACK
 394:Generated_Source\PSoC5/USBUART_1_hid.c ****     USBUART_1_FindReport_Callback();
 395:Generated_Source\PSoC5/USBUART_1_hid.c **** #endif /* (USBUART_1_FIND_REPORT_CALLBACK) */
 396:Generated_Source\PSoC5/USBUART_1_hid.c ****     
 397:Generated_Source\PSoC5/USBUART_1_hid.c ****     USBUART_1_currentTD.count = 0u;   /* Init not supported condition */
 259              		.loc 1 397 0
 260 0002 0022     		movs	r2, #0
 261 0004 1A4B     		ldr	r3, .L21
 262 0006 1A80     		strh	r2, [r3]	@ movhi
 398:Generated_Source\PSoC5/USBUART_1_hid.c ****     pTmp = USBUART_1_GetConfigTablePtr(USBUART_1_configuration - 1u);
 263              		.loc 1 398 0
 264 0008 1A4B     		ldr	r3, .L21+4
 265 000a 1878     		ldrb	r0, [r3]	@ zero_extendqisi2
 266 000c 0138     		subs	r0, r0, #1
 267 000e C0B2     		uxtb	r0, r0
 268 0010 FFF7FEFF 		bl	USBUART_1_GetConfigTablePtr
 269              	.LVL29:
 399:Generated_Source\PSoC5/USBUART_1_hid.c ****     reportType = (uint8) USBUART_1_wValueHiReg;
 270              		.loc 1 399 0
 271 0014 184A     		ldr	r2, .L21+8
 272 0016 D378     		ldrb	r3, [r2, #3]	@ zero_extendqisi2
 273              	.LVL30:
 400:Generated_Source\PSoC5/USBUART_1_hid.c ****     interfaceN = (uint8) USBUART_1_wIndexLoReg;
 274              		.loc 1 400 0
 275 0018 1279     		ldrb	r2, [r2, #4]	@ zero_extendqisi2
 276 001a D2B2     		uxtb	r2, r2
 277              	.LVL31:
 401:Generated_Source\PSoC5/USBUART_1_hid.c ****     
 402:Generated_Source\PSoC5/USBUART_1_hid.c ****     /* Third entry in the LUT Configuration Table starts the Interface Table pointers */
 403:Generated_Source\PSoC5/USBUART_1_hid.c ****     /* Now use the request interface number */
 404:Generated_Source\PSoC5/USBUART_1_hid.c ****     pTmp = &pTmp[interfaceN + 2u];
 278              		.loc 1 404 0
 279 001c 911C     		adds	r1, r2, #2
ARM GAS  C:\Users\user\AppData\Local\Temp\ccaOaSVv.s 			page 13


 280 001e 00EBC100 		add	r0, r0, r1, lsl #3
 281              	.LVL32:
 405:Generated_Source\PSoC5/USBUART_1_hid.c ****     
 406:Generated_Source\PSoC5/USBUART_1_hid.c ****     /* USB_DEVICEx_CONFIGURATIONy_INTERFACEz_TABLE */
 407:Generated_Source\PSoC5/USBUART_1_hid.c ****     pTmp = (const T_USBUART_1_LUT CYCODE *) pTmp->p_list;
 282              		.loc 1 407 0
 283 0022 4168     		ldr	r1, [r0, #4]
 284              	.LVL33:
 408:Generated_Source\PSoC5/USBUART_1_hid.c ****     if (interfaceN < USBUART_1_MAX_INTERFACES_NUMBER)
 285              		.loc 1 408 0
 286 0024 022A     		cmp	r2, #2
 287 0026 21D8     		bhi	.L18
 288 0028 DBB2     		uxtb	r3, r3
 409:Generated_Source\PSoC5/USBUART_1_hid.c ****     {
 410:Generated_Source\PSoC5/USBUART_1_hid.c ****         /* Now use Alternate setting number */
 411:Generated_Source\PSoC5/USBUART_1_hid.c ****         pTmp = &pTmp[USBUART_1_interfaceSetting[interfaceN]];
 289              		.loc 1 411 0
 290 002a 1448     		ldr	r0, .L21+12
 291 002c 825C     		ldrb	r2, [r0, r2]	@ zero_extendqisi2
 292              	.LVL34:
 293 002e 01EBC201 		add	r1, r1, r2, lsl #3
 294              	.LVL35:
 412:Generated_Source\PSoC5/USBUART_1_hid.c ****         
 413:Generated_Source\PSoC5/USBUART_1_hid.c ****         /* USB_DEVICEx_CONFIGURATIONy_INTERFACEz_ALTERNATEi_HID_TABLE */
 414:Generated_Source\PSoC5/USBUART_1_hid.c ****         pTmp = (const T_USBUART_1_LUT CYCODE *) pTmp->p_list;
 295              		.loc 1 414 0
 296 0032 4968     		ldr	r1, [r1, #4]
 297              	.LVL36:
 415:Generated_Source\PSoC5/USBUART_1_hid.c ****         
 416:Generated_Source\PSoC5/USBUART_1_hid.c ****         /* Validate reportType to comply with "7.2.1 Get_Report Request" */
 417:Generated_Source\PSoC5/USBUART_1_hid.c ****         if ((reportType >= USBUART_1_HID_GET_REPORT_INPUT) &&
 298              		.loc 1 417 0
 299 0034 5A1E     		subs	r2, r3, #1
 300 0036 D2B2     		uxtb	r2, r2
 301 0038 022A     		cmp	r2, #2
 302 003a 17D8     		bhi	.L18
 418:Generated_Source\PSoC5/USBUART_1_hid.c ****             (reportType <= USBUART_1_HID_GET_REPORT_FEATURE))
 419:Generated_Source\PSoC5/USBUART_1_hid.c ****         {
 420:Generated_Source\PSoC5/USBUART_1_hid.c ****             /* Get the entry proper TD (IN, OUT or Feature Report Table)*/
 421:Generated_Source\PSoC5/USBUART_1_hid.c ****             pTmp = &pTmp[reportType - 1u];
 303              		.loc 1 421 0
 304 003c 03F10053 		add	r3, r3, #536870912
 305              	.LVL37:
 306 0040 013B     		subs	r3, r3, #1
 307              	.LVL38:
 308 0042 01EBC300 		add	r0, r1, r3, lsl #3
 309              	.LVL39:
 422:Generated_Source\PSoC5/USBUART_1_hid.c ****             
 423:Generated_Source\PSoC5/USBUART_1_hid.c ****             /* Get reportID */
 424:Generated_Source\PSoC5/USBUART_1_hid.c ****             reportType = (uint8) USBUART_1_wValueLoReg;
 310              		.loc 1 424 0
 311 0046 0C4A     		ldr	r2, .L21+8
 312 0048 9278     		ldrb	r2, [r2, #2]	@ zero_extendqisi2
 313 004a D2B2     		uxtb	r2, r2
 314              	.LVL40:
 425:Generated_Source\PSoC5/USBUART_1_hid.c ****             
 426:Generated_Source\PSoC5/USBUART_1_hid.c ****             /* Validate table support by the HID descriptor, compare table count with reportID */
ARM GAS  C:\Users\user\AppData\Local\Temp\ccaOaSVv.s 			page 14


 427:Generated_Source\PSoC5/USBUART_1_hid.c ****             if (pTmp->c >= reportType)
 315              		.loc 1 427 0
 316 004c 11F83330 		ldrb	r3, [r1, r3, lsl #3]	@ zero_extendqisi2
 317 0050 9A42     		cmp	r2, r3
 318 0052 0BD8     		bhi	.L18
 428:Generated_Source\PSoC5/USBUART_1_hid.c ****             {
 429:Generated_Source\PSoC5/USBUART_1_hid.c ****                 pTD = (T_USBUART_1_TD *) pTmp->p_list;
 319              		.loc 1 429 0
 320 0054 4068     		ldr	r0, [r0, #4]
 321              	.LVL41:
 430:Generated_Source\PSoC5/USBUART_1_hid.c ****                 pTD = &pTD[reportType];                          /* select entry depend on report I
 322              		.loc 1 430 0
 323 0056 02EB4202 		add	r2, r2, r2, lsl #1
 324              	.LVL42:
 325 005a 9100     		lsls	r1, r2, #2
 326 005c 4218     		adds	r2, r0, r1
 327              	.LVL43:
 431:Generated_Source\PSoC5/USBUART_1_hid.c ****                 USBUART_1_currentTD.pData = pTD->pData;   /* Buffer pointer */
 328              		.loc 1 431 0
 329 005e 5468     		ldr	r4, [r2, #4]
 330 0060 034B     		ldr	r3, .L21
 331 0062 5C60     		str	r4, [r3, #4]
 432:Generated_Source\PSoC5/USBUART_1_hid.c ****                 USBUART_1_currentTD.count = pTD->count;   /* Buffer Size */
 332              		.loc 1 432 0
 333 0064 415A     		ldrh	r1, [r0, r1]
 334 0066 1980     		strh	r1, [r3]	@ movhi
 433:Generated_Source\PSoC5/USBUART_1_hid.c ****                 USBUART_1_currentTD.pStatusBlock = pTD->pStatusBlock;
 335              		.loc 1 433 0
 336 0068 9268     		ldr	r2, [r2, #8]
 337              	.LVL44:
 338 006a 9A60     		str	r2, [r3, #8]
 339              	.L18:
 340 006c 10BD     		pop	{r4, pc}
 341              	.L22:
 342 006e 00BF     		.align	2
 343              	.L21:
 344 0070 00000000 		.word	USBUART_1_currentTD
 345 0074 00000000 		.word	USBUART_1_configuration
 346 0078 00600040 		.word	1073766400
 347 007c 00000000 		.word	USBUART_1_interfaceSetting
 348              		.cfi_endproc
 349              	.LFE5:
 350              		.size	USBUART_1_FindReport, .-USBUART_1_FindReport
 351              		.section	.text.USBUART_1_DispatchHIDClassRqst,"ax",%progbits
 352              		.align	2
 353              		.global	USBUART_1_DispatchHIDClassRqst
 354              		.thumb
 355              		.thumb_func
 356              		.type	USBUART_1_DispatchHIDClassRqst, %function
 357              	USBUART_1_DispatchHIDClassRqst:
 358              	.LFB2:
 132:Generated_Source\PSoC5/USBUART_1_hid.c ****     uint8 requestHandled = USBUART_1_FALSE;
 359              		.loc 1 132 0
 360              		.cfi_startproc
 361              		@ args = 0, pretend = 0, frame = 0
 362              		@ frame_needed = 0, uses_anonymous_args = 0
 363 0000 08B5     		push	{r3, lr}
ARM GAS  C:\Users\user\AppData\Local\Temp\ccaOaSVv.s 			page 15


 364              		.cfi_def_cfa_offset 8
 365              		.cfi_offset 3, -8
 366              		.cfi_offset 14, -4
 367              	.LVL45:
 135:Generated_Source\PSoC5/USBUART_1_hid.c ****     
 368              		.loc 1 135 0
 369 0002 5B4B     		ldr	r3, .L53
 370 0004 1A79     		ldrb	r2, [r3, #4]	@ zero_extendqisi2
 371 0006 D2B2     		uxtb	r2, r2
 372              	.LVL46:
 138:Generated_Source\PSoC5/USBUART_1_hid.c ****     {
 373              		.loc 1 138 0
 374 0008 1B78     		ldrb	r3, [r3]	@ zero_extendqisi2
 375 000a 13F0800F 		tst	r3, #128
 376 000e 4DD0     		beq	.L24
 142:Generated_Source\PSoC5/USBUART_1_hid.c ****         {
 377              		.loc 1 142 0
 378 0010 574B     		ldr	r3, .L53
 379 0012 5B78     		ldrb	r3, [r3, #1]	@ zero_extendqisi2
 380 0014 013B     		subs	r3, r3, #1
 381 0016 052B     		cmp	r3, #5
 382 0018 00F28E80 		bhi	.L37
 383 001c DFE803F0 		tbb	[pc, r3]
 384              	.L27:
 385 0020 21       		.byte	(.L26-.L27)/2
 386 0021 2B       		.byte	(.L28-.L27)/2
 387 0022 3B       		.byte	(.L29-.L27)/2
 388 0023 8C       		.byte	(.L37-.L27)/2
 389 0024 8C       		.byte	(.L37-.L27)/2
 390 0025 03       		.byte	(.L30-.L27)/2
 391              		.p2align 1
 392              	.L30:
 145:Generated_Source\PSoC5/USBUART_1_hid.c ****                 {
 393              		.loc 1 145 0
 394 0026 524B     		ldr	r3, .L53
 395 0028 DB78     		ldrb	r3, [r3, #3]	@ zero_extendqisi2
 396 002a DBB2     		uxtb	r3, r3
 397 002c 212B     		cmp	r3, #33
 398 002e 09D1     		bne	.L31
 147:Generated_Source\PSoC5/USBUART_1_hid.c ****                     if (USBUART_1_currentTD.count != 0u)
 399              		.loc 1 147 0
 400 0030 FFF7FEFF 		bl	USBUART_1_FindHidClassDecriptor
 401              	.LVL47:
 148:Generated_Source\PSoC5/USBUART_1_hid.c ****                     {
 402              		.loc 1 148 0
 403 0034 4F4B     		ldr	r3, .L53+4
 404 0036 1B88     		ldrh	r3, [r3]
 405 0038 9BB2     		uxth	r3, r3
 406 003a 002B     		cmp	r3, #0
 407 003c 7ED0     		beq	.L38
 150:Generated_Source\PSoC5/USBUART_1_hid.c ****                     }
 408              		.loc 1 150 0
 409 003e FFF7FEFF 		bl	USBUART_1_InitControlRead
 410              	.LVL48:
 411 0042 08BD     		pop	{r3, pc}
 412              	.LVL49:
 413              	.L31:
ARM GAS  C:\Users\user\AppData\Local\Temp\ccaOaSVv.s 			page 16


 153:Generated_Source\PSoC5/USBUART_1_hid.c ****                 {
 414              		.loc 1 153 0
 415 0044 4A4B     		ldr	r3, .L53
 416 0046 DB78     		ldrb	r3, [r3, #3]	@ zero_extendqisi2
 417 0048 DBB2     		uxtb	r3, r3
 418 004a 222B     		cmp	r3, #34
 419 004c 78D1     		bne	.L39
 155:Generated_Source\PSoC5/USBUART_1_hid.c ****                     if (USBUART_1_currentTD.count != 0u)
 420              		.loc 1 155 0
 421 004e FFF7FEFF 		bl	USBUART_1_FindReportDescriptor
 422              	.LVL50:
 156:Generated_Source\PSoC5/USBUART_1_hid.c ****                     {
 423              		.loc 1 156 0
 424 0052 484B     		ldr	r3, .L53+4
 425 0054 1B88     		ldrh	r3, [r3]
 426 0056 9BB2     		uxth	r3, r3
 427 0058 002B     		cmp	r3, #0
 428 005a 73D0     		beq	.L40
 158:Generated_Source\PSoC5/USBUART_1_hid.c ****                     }
 429              		.loc 1 158 0
 430 005c FFF7FEFF 		bl	USBUART_1_InitControlRead
 431              	.LVL51:
 432 0060 08BD     		pop	{r3, pc}
 433              	.LVL52:
 434              	.L26:
 168:Generated_Source\PSoC5/USBUART_1_hid.c ****                 if (USBUART_1_currentTD.count != 0u)
 435              		.loc 1 168 0
 436 0062 FFF7FEFF 		bl	USBUART_1_FindReport
 437              	.LVL53:
 169:Generated_Source\PSoC5/USBUART_1_hid.c ****                 {
 438              		.loc 1 169 0
 439 0066 434B     		ldr	r3, .L53+4
 440 0068 1B88     		ldrh	r3, [r3]
 441 006a 9BB2     		uxth	r3, r3
 442 006c 002B     		cmp	r3, #0
 443 006e 6BD0     		beq	.L41
 171:Generated_Source\PSoC5/USBUART_1_hid.c ****                 }
 444              		.loc 1 171 0
 445 0070 FFF7FEFF 		bl	USBUART_1_InitControlRead
 446              	.LVL54:
 447 0074 08BD     		pop	{r3, pc}
 448              	.LVL55:
 449              	.L28:
 178:Generated_Source\PSoC5/USBUART_1_hid.c ****                 {
 450              		.loc 1 178 0
 451 0076 022A     		cmp	r2, #2
 452 0078 68D8     		bhi	.L42
 178:Generated_Source\PSoC5/USBUART_1_hid.c ****                 {
 453              		.loc 1 178 0 is_stmt 0 discriminator 1
 454 007a 3D4B     		ldr	r3, .L53
 455 007c 9B78     		ldrb	r3, [r3, #2]	@ zero_extendqisi2
 456 007e 13F0FF0F 		tst	r3, #255
 457 0082 65D1     		bne	.L43
 180:Generated_Source\PSoC5/USBUART_1_hid.c ****                     USBUART_1_currentTD.pData = &USBUART_1_hidIdleRate[interfaceNumber];
 458              		.loc 1 180 0 is_stmt 1
 459 0084 3B49     		ldr	r1, .L53+4
 460 0086 0123     		movs	r3, #1
ARM GAS  C:\Users\user\AppData\Local\Temp\ccaOaSVv.s 			page 17


 461 0088 0B80     		strh	r3, [r1]	@ movhi
 181:Generated_Source\PSoC5/USBUART_1_hid.c ****                     requestHandled  = USBUART_1_InitControlRead();
 462              		.loc 1 181 0
 463 008a 3B4B     		ldr	r3, .L53+8
 464 008c 1A44     		add	r2, r2, r3
 465              	.LVL56:
 466 008e 4A60     		str	r2, [r1, #4]
 182:Generated_Source\PSoC5/USBUART_1_hid.c ****                 }
 467              		.loc 1 182 0
 468 0090 FFF7FEFF 		bl	USBUART_1_InitControlRead
 469              	.LVL57:
 470 0094 08BD     		pop	{r3, pc}
 471              	.LVL58:
 472              	.L29:
 188:Generated_Source\PSoC5/USBUART_1_hid.c ****                 {
 473              		.loc 1 188 0
 474 0096 022A     		cmp	r2, #2
 475 0098 5CD8     		bhi	.L44
 190:Generated_Source\PSoC5/USBUART_1_hid.c ****                     USBUART_1_currentTD.pData = &USBUART_1_hidProtocol[interfaceNumber];
 476              		.loc 1 190 0
 477 009a 3649     		ldr	r1, .L53+4
 478 009c 0123     		movs	r3, #1
 479 009e 0B80     		strh	r3, [r1]	@ movhi
 191:Generated_Source\PSoC5/USBUART_1_hid.c ****                     requestHandled  = USBUART_1_InitControlRead();
 480              		.loc 1 191 0
 481 00a0 364B     		ldr	r3, .L53+12
 482 00a2 1A44     		add	r2, r2, r3
 483              	.LVL59:
 484 00a4 4A60     		str	r2, [r1, #4]
 192:Generated_Source\PSoC5/USBUART_1_hid.c ****                 }
 485              		.loc 1 192 0
 486 00a6 FFF7FEFF 		bl	USBUART_1_InitControlRead
 487              	.LVL60:
 488 00aa 08BD     		pop	{r3, pc}
 489              	.LVL61:
 490              	.L24:
 204:Generated_Source\PSoC5/USBUART_1_hid.c ****         {
 491              		.loc 1 204 0
 492 00ac 304B     		ldr	r3, .L53
 493 00ae 5B78     		ldrb	r3, [r3, #1]	@ zero_extendqisi2
 494 00b0 DBB2     		uxtb	r3, r3
 495 00b2 0A2B     		cmp	r3, #10
 496 00b4 0DD0     		beq	.L32
 497 00b6 0B2B     		cmp	r3, #11
 498 00b8 2FD0     		beq	.L33
 499 00ba 092B     		cmp	r3, #9
 500 00bc 4CD1     		bne	.L51
 207:Generated_Source\PSoC5/USBUART_1_hid.c ****                 if (USBUART_1_currentTD.count != 0u)
 501              		.loc 1 207 0
 502 00be FFF7FEFF 		bl	USBUART_1_FindReport
 503              	.LVL62:
 208:Generated_Source\PSoC5/USBUART_1_hid.c ****                 {
 504              		.loc 1 208 0
 505 00c2 2C4B     		ldr	r3, .L53+4
 506 00c4 1B88     		ldrh	r3, [r3]
 507 00c6 9BB2     		uxth	r3, r3
 508 00c8 002B     		cmp	r3, #0
ARM GAS  C:\Users\user\AppData\Local\Temp\ccaOaSVv.s 			page 18


 509 00ca 47D0     		beq	.L46
 210:Generated_Source\PSoC5/USBUART_1_hid.c ****                 }
 510              		.loc 1 210 0
 511 00cc FFF7FEFF 		bl	USBUART_1_InitControlWrite
 512              	.LVL63:
 513 00d0 08BD     		pop	{r3, pc}
 514              	.LVL64:
 515              	.L32:
 217:Generated_Source\PSoC5/USBUART_1_hid.c ****                 {
 516              		.loc 1 217 0
 517 00d2 022A     		cmp	r2, #2
 518 00d4 44D8     		bhi	.L47
 217:Generated_Source\PSoC5/USBUART_1_hid.c ****                 {
 519              		.loc 1 217 0 is_stmt 0 discriminator 1
 520 00d6 264B     		ldr	r3, .L53
 521 00d8 9B78     		ldrb	r3, [r3, #2]	@ zero_extendqisi2
 522 00da 13F0FF0F 		tst	r3, #255
 523 00de 41D1     		bne	.L48
 219:Generated_Source\PSoC5/USBUART_1_hid.c ****                     /* With regards to HID spec: "7.2.4 Set_Idle Request"
 524              		.loc 1 219 0 is_stmt 1
 525 00e0 234B     		ldr	r3, .L53
 526 00e2 DB78     		ldrb	r3, [r3, #3]	@ zero_extendqisi2
 527 00e4 DBB2     		uxtb	r3, r3
 528 00e6 2449     		ldr	r1, .L53+8
 529 00e8 8B54     		strb	r3, [r1, r2]
 225:Generated_Source\PSoC5/USBUART_1_hid.c ****                        USBUART_1_hidIdleTimer[interfaceNumber])
 530              		.loc 1 225 0
 531 00ea 895C     		ldrb	r1, [r1, r2]	@ zero_extendqisi2
 532 00ec C9B2     		uxtb	r1, r1
 226:Generated_Source\PSoC5/USBUART_1_hid.c ****                     {
 533              		.loc 1 226 0
 534 00ee 244B     		ldr	r3, .L53+16
 535 00f0 9B5C     		ldrb	r3, [r3, r2]	@ zero_extendqisi2
 536 00f2 DBB2     		uxtb	r3, r3
 225:Generated_Source\PSoC5/USBUART_1_hid.c ****                        USBUART_1_hidIdleTimer[interfaceNumber])
 537              		.loc 1 225 0
 538 00f4 9942     		cmp	r1, r3
 539 00f6 03D2     		bcs	.L35
 229:Generated_Source\PSoC5/USBUART_1_hid.c ****                     }
 540              		.loc 1 229 0
 541 00f8 0021     		movs	r1, #0
 542 00fa 214B     		ldr	r3, .L53+16
 543 00fc 9954     		strb	r1, [r3, r2]
 544 00fe 09E0     		b	.L36
 545              	.L35:
 235:Generated_Source\PSoC5/USBUART_1_hid.c ****                     {
 546              		.loc 1 235 0
 547 0100 1F4B     		ldr	r3, .L53+16
 548 0102 9B5C     		ldrb	r3, [r3, r2]	@ zero_extendqisi2
 549 0104 DBB2     		uxtb	r3, r3
 550 0106 012B     		cmp	r3, #1
 551 0108 04D9     		bls	.L36
 245:Generated_Source\PSoC5/USBUART_1_hid.c ****                     }
 552              		.loc 1 245 0
 553 010a 1B4B     		ldr	r3, .L53+8
 554 010c 9B5C     		ldrb	r3, [r3, r2]	@ zero_extendqisi2
 555 010e DBB2     		uxtb	r3, r3
ARM GAS  C:\Users\user\AppData\Local\Temp\ccaOaSVv.s 			page 19


 244:Generated_Source\PSoC5/USBUART_1_hid.c ****                         USBUART_1_hidIdleRate[interfaceNumber];
 556              		.loc 1 244 0
 557 0110 1B49     		ldr	r1, .L53+16
 558 0112 8B54     		strb	r3, [r1, r2]
 559              	.L36:
 247:Generated_Source\PSoC5/USBUART_1_hid.c ****                 }
 560              		.loc 1 247 0
 561 0114 FFF7FEFF 		bl	USBUART_1_InitNoDataControlTransfer
 562              	.LVL65:
 563 0118 08BD     		pop	{r3, pc}
 564              	.LVL66:
 565              	.L33:
 253:Generated_Source\PSoC5/USBUART_1_hid.c ****                 {
 566              		.loc 1 253 0
 567 011a 022A     		cmp	r2, #2
 568 011c 24D8     		bhi	.L49
 253:Generated_Source\PSoC5/USBUART_1_hid.c ****                 {
 569              		.loc 1 253 0 is_stmt 0 discriminator 1
 570 011e 144B     		ldr	r3, .L53
 571 0120 9B78     		ldrb	r3, [r3, #2]	@ zero_extendqisi2
 572 0122 DBB2     		uxtb	r3, r3
 573 0124 012B     		cmp	r3, #1
 574 0126 21D8     		bhi	.L50
 255:Generated_Source\PSoC5/USBUART_1_hid.c ****                     requestHandled = USBUART_1_InitNoDataControlTransfer();
 575              		.loc 1 255 0 is_stmt 1
 576 0128 114B     		ldr	r3, .L53
 577 012a 9B78     		ldrb	r3, [r3, #2]	@ zero_extendqisi2
 578 012c DBB2     		uxtb	r3, r3
 579 012e 1349     		ldr	r1, .L53+12
 580 0130 8B54     		strb	r3, [r1, r2]
 256:Generated_Source\PSoC5/USBUART_1_hid.c ****                 }
 581              		.loc 1 256 0
 582 0132 FFF7FEFF 		bl	USBUART_1_InitNoDataControlTransfer
 583              	.LVL67:
 584 0136 08BD     		pop	{r3, pc}
 585              	.LVL68:
 586              	.L37:
 133:Generated_Source\PSoC5/USBUART_1_hid.c **** 
 587              		.loc 1 133 0
 588 0138 0020     		movs	r0, #0
 589 013a 08BD     		pop	{r3, pc}
 590              	.LVL69:
 591              	.L38:
 592 013c 0020     		movs	r0, #0
 593 013e 08BD     		pop	{r3, pc}
 594              	.LVL70:
 595              	.L39:
 596 0140 0020     		movs	r0, #0
 597 0142 08BD     		pop	{r3, pc}
 598              	.LVL71:
 599              	.L40:
 600 0144 0020     		movs	r0, #0
 601 0146 08BD     		pop	{r3, pc}
 602              	.L41:
 603 0148 0020     		movs	r0, #0
 604 014a 08BD     		pop	{r3, pc}
 605              	.LVL72:
ARM GAS  C:\Users\user\AppData\Local\Temp\ccaOaSVv.s 			page 20


 606              	.L42:
 607 014c 0020     		movs	r0, #0
 608 014e 08BD     		pop	{r3, pc}
 609              	.L43:
 610 0150 0020     		movs	r0, #0
 611 0152 08BD     		pop	{r3, pc}
 612              	.L44:
 613 0154 0020     		movs	r0, #0
 614 0156 08BD     		pop	{r3, pc}
 615              	.L51:
 616 0158 0020     		movs	r0, #0
 617 015a 08BD     		pop	{r3, pc}
 618              	.LVL73:
 619              	.L46:
 620 015c 0020     		movs	r0, #0
 621 015e 08BD     		pop	{r3, pc}
 622              	.LVL74:
 623              	.L47:
 624 0160 0020     		movs	r0, #0
 625 0162 08BD     		pop	{r3, pc}
 626              	.L48:
 627 0164 0020     		movs	r0, #0
 628 0166 08BD     		pop	{r3, pc}
 629              	.L49:
 630 0168 0020     		movs	r0, #0
 631 016a 08BD     		pop	{r3, pc}
 632              	.L50:
 633 016c 0020     		movs	r0, #0
 634              	.LVL75:
 267:Generated_Source\PSoC5/USBUART_1_hid.c **** 
 635              		.loc 1 267 0
 636 016e 08BD     		pop	{r3, pc}
 637              	.L54:
 638              		.align	2
 639              	.L53:
 640 0170 00600040 		.word	1073766400
 641 0174 00000000 		.word	USBUART_1_currentTD
 642 0178 00000000 		.word	USBUART_1_hidIdleRate
 643 017c 00000000 		.word	USBUART_1_hidProtocol
 644 0180 00000000 		.word	USBUART_1_hidIdleTimer
 645              		.cfi_endproc
 646              	.LFE2:
 647              		.size	USBUART_1_DispatchHIDClassRqst, .-USBUART_1_DispatchHIDClassRqst
 648              		.comm	USBUART_1_hidIdleTimer,3,4
 649              		.comm	USBUART_1_hidIdleRate,3,4
 650              		.comm	USBUART_1_hidProtocol,3,4
 651              		.text
 652              	.Letext0:
 653              		.file 2 "Generated_Source\\PSoC5\\cytypes.h"
 654              		.file 3 "Generated_Source\\PSoC5\\USBUART_1.h"
 655              		.file 4 "Generated_Source\\PSoC5\\USBUART_1_pvt.h"